

Microchip MPLAB XC8 Assembler V2.36 build 20220127204148 
                                                                                               Fri Jan 19 11:08:14 2024

Microchip MPLAB XC8 C Compiler v2.36 (Free license) build 20220127204148 Og1 
     1                           	processor	18F46K42
     2                           	fnconf	rparam,??,?,0
     3                           	pagewidth 120
     4                           	opt	flic
     5                           	psect	idataCOMRAM,global,class=CODE,delta=1,noexec
     6                           	psect	idataBANK0,global,class=CODE,delta=1,noexec
     7                           	psect	nvCOMRAM,global,class=COMRAM,space=1,delta=1,lowdata,noexec
     8                           	psect	nvBANK0,global,class=BANK0,space=1,delta=1,lowdata,noexec
     9                           	psect	smallconst,global,reloc=2,class=SMALLCONST,delta=1,noexec
    10                           	psect	cinit,global,reloc=2,class=CODE,delta=1
    11                           	psect	bssCOMRAM,global,class=COMRAM,space=1,delta=1,lowdata,noexec
    12                           	psect	dataCOMRAM,global,class=COMRAM,space=1,delta=1,lowdata,noexec
    13                           	psect	bssBANK0,global,class=BANK0,space=1,delta=1,lowdata,noexec
    14                           	psect	dataBANK0,global,class=BANK0,space=1,delta=1,lowdata,noexec
    15                           	psect	bssBANK1,global,class=BANK1,space=1,delta=1,lowdata,noexec
    16                           	psect	cstackBANK1,global,class=BANK1,space=1,delta=1,lowdata,noexec
    17                           	psect	cstackBANK0,global,class=BANK0,space=1,delta=1,lowdata,noexec
    18                           	psect	cstackCOMRAM,global,class=COMRAM,space=1,delta=1,lowdata,noexec
    19                           	psect	text0,global,reloc=2,class=CODE,delta=1
    20                           	psect	text1,global,reloc=2,class=CODE,delta=1
    21                           	psect	text2,global,reloc=2,class=CODE,delta=1
    22                           	psect	text3,global,reloc=2,class=CODE,delta=1,group=3
    23                           	psect	text4,global,reloc=2,class=CODE,delta=1,group=1
    24                           	psect	text5,global,reloc=2,class=CODE,delta=1,group=1
    25                           	psect	text6,global,reloc=2,class=CODE,delta=1,group=1
    26                           	psect	text7,global,reloc=2,class=CODE,delta=1,group=1
    27                           	psect	text8,global,reloc=2,class=CODE,delta=1,group=3
    28                           	psect	text9,global,reloc=2,class=CODE,delta=1,group=3
    29                           	psect	text10,global,reloc=2,class=CODE,delta=1,group=3
    30                           	psect	text11,global,reloc=2,class=CODE,delta=1
    31                           	psect	text12,global,reloc=2,class=CODE,delta=1
    32                           	psect	text13,global,reloc=2,class=CODE,delta=1,group=3
    33                           	psect	text14,global,reloc=2,class=CODE,delta=1,group=2
    34                           	psect	text15,global,reloc=2,class=CODE,delta=1,group=2
    35                           	psect	text16,global,reloc=2,class=CODE,delta=1
    36                           	psect	text17,global,reloc=2,class=CODE,delta=1
    37                           	psect	text18,global,reloc=2,class=CODE,delta=1
    38                           	psect	text19,global,reloc=2,class=CODE,delta=1
    39                           	psect	text20,global,reloc=2,class=CODE,delta=1
    40                           	psect	text21,global,reloc=2,class=CODE,delta=1,group=2
    41                           	psect	text22,global,reloc=2,class=CODE,delta=1,group=2
    42                           	psect	text23,global,reloc=2,class=CODE,delta=1,group=2
    43                           	psect	text24,global,reloc=2,class=CODE,delta=1,group=2
    44                           	psect	text25,global,reloc=2,class=CODE,delta=1,group=2
    45                           	psect	text26,global,reloc=2,class=CODE,delta=1
    46                           	psect	text27,global,reloc=2,class=CODE,delta=1
    47                           	psect	text28,global,reloc=2,class=CODE,delta=1
    48                           	psect	text29,global,reloc=2,class=CODE,delta=1
    49                           	psect	text30,global,reloc=2,class=CODE,delta=1
    50                           	psect	text31,global,reloc=2,class=CODE,delta=1
    51                           	psect	text32,global,reloc=2,class=CODE,delta=1
    52                           	psect	text33,global,reloc=2,class=CODE,delta=1
    53                           	psect	text34,global,reloc=2,class=CODE,delta=1
    54                           	psect	text35,global,reloc=2,class=CODE,delta=1
    55                           	psect	text36,global,reloc=2,class=CODE,delta=1
    56                           	psect	text37,global,reloc=2,class=CODE,delta=1
    57                           	psect	text38,global,reloc=2,class=CODE,delta=1
    58                           	psect	text39,global,reloc=2,class=CODE,delta=1
    59                           	psect	text40,global,reloc=2,class=CODE,delta=1
    60                           	psect	text41,global,reloc=2,class=CODE,delta=1
    61                           	psect	text42,global,reloc=2,class=CODE,delta=1
    62                           	psect	text43,global,reloc=2,class=CODE,delta=1
    63                           	psect	text44,global,reloc=2,class=CODE,delta=1
    64                           	psect	text45,global,reloc=2,class=CODE,delta=1
    65                           	psect	text46,global,reloc=2,class=CODE,delta=1
    66                           	psect	text47,global,reloc=2,class=CODE,delta=1
    67                           	psect	text48,global,reloc=2,class=CODE,delta=1
    68                           	psect	text49,global,reloc=2,class=CODE,delta=1
    69                           	psect	text50,global,reloc=2,class=CODE,delta=1
    70                           	psect	text51,global,reloc=2,class=CODE,delta=1
    71                           	psect	text52,global,reloc=2,class=CODE,delta=1
    72                           	psect	text53,global,reloc=2,class=CODE,delta=1
    73                           	psect	text54,global,reloc=2,class=CODE,delta=1
    74                           	psect	text55,global,reloc=2,class=CODE,delta=1
    75                           	psect	text56,global,reloc=4,class=CODE,delta=1
    76                           	psect	text57,global,reloc=2,class=CODE,delta=1
    77                           	psect	text58,global,reloc=4,class=CODE,delta=1
    78                           	psect	text59,global,reloc=2,class=CODE,delta=1
    79                           	psect	text60,global,reloc=2,class=CODE,delta=1
    80                           	psect	text61,global,reloc=2,class=CODE,delta=1
    81                           	psect	text62,global,reloc=2,class=CODE,delta=1
    82                           	psect	text63,global,reloc=2,class=CODE,delta=1
    83                           	psect	text64,global,reloc=4,class=CODE,delta=1
    84                           	psect	text65,global,reloc=2,class=CODE,delta=1
    85                           	psect	text66,global,reloc=2,class=CODE,delta=1
    86                           	psect	text67,global,reloc=2,class=CODE,delta=1
    87                           	psect	text68,global,reloc=4,class=CODE,delta=1
    88                           	psect	text69,global,reloc=4,class=CODE,delta=1
    89                           	psect	text70,global,reloc=2,class=CODE,delta=1
    90                           	psect	text71,global,reloc=4,class=CODE,delta=1
    91                           	psect	text72,global,reloc=2,class=CODE,delta=1
    92                           	psect	text73,global,reloc=4,class=CODE,delta=1
    93                           	psect	text74,global,reloc=2,class=CODE,delta=1
    94                           	psect	text75,global,reloc=2,class=CODE,delta=1
    95                           	psect	text76,global,reloc=2,class=CODE,delta=1
    96                           	psect	text77,global,reloc=2,class=CODE,delta=1
    97                           	psect	text78,global,reloc=4,class=CODE,delta=1
    98                           	psect	text79,global,reloc=4,class=CODE,delta=1
    99                           	psect	text80,global,reloc=4,class=CODE,delta=1
   100                           	psect	ivt0x8,global,reloc=2,class=CODE,delta=1,noexec,keep,optim=
   101                           	psect	intsave_regs,global,class=BIGRAM,space=1,delta=1,noexec
   102                           	psect	text81,global,reloc=4,class=CODE,delta=1
   103                           	psect	rparam,global,class=COMRAM,space=1,delta=1,noexec
   104                           	psect	idloc,global,abs,ovrld,class=IDLOC,space=5,delta=1,noexec
   105                           	psect	config,global,abs,ovrld,class=CONFIG,space=4,delta=1,noexec
   106  0000                     
   107                           ; Version 2.20
   108                           ; Generated 05/05/2020 GMT
   109                           ; 
   110                           ; Copyright © 2020, Microchip Technology Inc. and its subsidiaries ("Microchip")
   111                           ; All rights reserved.
   112                           ; 
   113                           ; This software is developed by Microchip Technology Inc. and its subsidiaries ("Microch
      +                          ip").
   114                           ; 
   115                           ; Redistribution and use in source and binary forms, with or without modification, are
   116                           ; permitted provided that the following conditions are met:
   117                           ; 
   118                           ;     1. Redistributions of source code must retain the above copyright notice, this lis
      +                          t of
   119                           ;        conditions and the following disclaimer.
   120                           ; 
   121                           ;     2. Redistributions in binary form must reproduce the above copyright notice, this 
      +                          list
   122                           ;        of conditions and the following disclaimer in the documentation and/or other
   123                           ;        materials provided with the distribution.
   124                           ; 
   125                           ;     3. Microchip's name may not be used to endorse or promote products derived from th
      +                          is
   126                           ;        software without specific prior written permission.
   127                           ; 
   128                           ; THIS SOFTWARE IS PROVIDED BY MICROCHIP "AS IS" AND ANY EXPRESS OR IMPLIED WARRANTIES,
   129                           ; INCLUDING, BUT NOT LIMITED TO, THE IMPLIED WARRANTIES OF MERCHANTABILITY AND FITNESS F
      +                          OR
   130                           ; PURPOSE ARE DISCLAIMED.  IN NO EVENT SHALL MICROCHIP BE LIABLE FOR ANY DIRECT, INDIREC
      +                          T,
   131                           ; INCIDENTAL, SPECIAL, EXEMPLARY, OR CONSEQUENTIAL DAMAGES (INCLUDING BUT NOT LIMITED TO
   132                           ; PROCUREMENT OF SUBSTITUTE GOODS OR SERVICES; LOSS OF USE, DATA OR PROFITS; OR BUSINESS
   133                           ; INTERRUPTION) HOWSOEVER CAUSED AND ON ANY THEORY OF LIABILITY, WHETHER IN CONTRACT, ST
      +                          RICT
   134                           ; LIABILITY, OR TORT (INCLUDING NEGLIGENCE OR OTHERWISE) ARISING IN ANY WAY OUT OF THE U
      +                          SE OF
   135                           ; THIS SOFTWARE, EVEN IF ADVISED OF THE POSSIBILITY OF SUCH DAMAGE.
   136                           ; 
   137                           ; 
   138                           ; Code-generator required, PIC18F46K42 Definitions
   139                           ; 
   140                           ; SFR Addresses
   141  0000                     
   142                           	psect	idataCOMRAM
   143  00333A                     __pidataCOMRAM:
   144                           	callstack 0
   145                           
   146                           ;initializer for _fahrModus
   147  00333A  01                 	db	1
   148                           
   149                           	psect	idataBANK0
   150  00331C                     __pidataBANK0:
   151                           	callstack 0
   152                           
   153                           ;initializer for _defaultMotorPowerBackward
   154  00331C  0064               	dw	100
   155                           
   156                           ;initializer for _defaultMotorPowerForward
   157  00331E  0096               	dw	150
   158                           
   159                           ;initializer for _maxMPowBackward
   160  003320  FF38               	dw	65336
   161                           
   162                           ;initializer for _maxMPowForward
   163  003322  012C               	dw	300
   164  0000                     _ADERRL	set	16098
   165  0000                     _ADERRH	set	16099
   166  0000                     _ADPREVL	set	16109
   167  0000                     _ADPREVH	set	16110
   168  0000                     _ADFLTRL	set	16102
   169  0000                     _ADFLTRH	set	16103
   170  0000                     _ADACCL	set	16104
   171  0000                     _ADACCH	set	16105
   172  0000                     _ADCNT	set	16107
   173  0000                     _ADRESL	set	16111
   174  0000                     _ADRESH	set	16112
   175  0000                     _ADCON0	set	16120
   176  0000                     _ADCON1	set	16121
   177  0000                     _ADPREH	set	16119
   178  0000                     _ADPREL	set	16118
   179  0000                     _ADCAP	set	16117
   180  0000                     _ADACQH	set	16116
   181  0000                     _ADPCH	set	16113
   182  0000                     _ADRPT	set	16108
   183  0000                     _ADACCU	set	16106
   184  0000                     _ADSTPTH	set	16101
   185  0000                     _ADSTPTL	set	16100
   186  0000                     _ADUTHH	set	16097
   187  0000                     _ADUTHL	set	16096
   188  0000                     _ADLTHH	set	16095
   189  0000                     _T2CON	set	16300
   190  0000                     _T2TMR	set	16298
   191  0000                     _T2PR	set	16299
   192  0000                     _T2HLT	set	16301
   193  0000                     _T2CLKCON	set	16302
   194  0000                     _SMT1SIG	set	16162
   195  0000                     _SMT1WIN	set	16163
   196  0000                     _SMT1CLK	set	16161
   197  0000                     _SMT1STAT	set	16160
   198  0000                     _SMT1CON1	set	16159
   199  0000                     _PWM8DCL	set	16224
   200  0000                     _PWM8DCH	set	16225
   201  0000                     _PWM8CON	set	16226
   202  0000                     _CCPTMRS1bits	set	16223
   203  0000                     _PWM7DCL	set	16228
   204  0000                     _PWM7DCH	set	16229
   205  0000                     _PWM7CON	set	16230
   206  0000                     _T4CON	set	16288
   207  0000                     _PIR7bits	set	14759
   208  0000                     _T4TMR	set	16286
   209  0000                     _T4PR	set	16287
   210  0000                     _T4RST	set	16291
   211  0000                     _T4HLT	set	16289
   212  0000                     _T4CLKCON	set	16290
   213  0000                     _T3CON	set	16294
   214  0000                     _TMR3L	set	16292
   215  0000                     _TMR3H	set	16293
   216  0000                     _T3CLK	set	16297
   217  0000                     _T3GATE	set	16296
   218  0000                     _T3GCON	set	16295
   219  0000                     _T5CON	set	16282
   220  0000                     _T5CLK	set	16285
   221  0000                     _T5GATE	set	16284
   222  0000                     _CCPR4L	set	16240
   223  0000                     _CCPR4H	set	16241
   224  0000                     _CCP4CAP	set	16243
   225  0000                     _CCP4CON	set	16242
   226  0000                     _IPR9bits	set	14729
   227  0000                     _IVTBASEL	set	16341
   228  0000                     _IVTBASEH	set	16342
   229  0000                     _IVTBASEU	set	16343
   230  0000                     _CCP4PPS	set	15056
   231  0000                     _SMT1WINPPS	set	15057
   232  0000                     _CLCIN0PPS	set	15065
   233  0000                     _CLCIN3PPS	set	15068
   234  0000                     _TRISD	set	16325
   235  0000                     _TRISC	set	16324
   236  0000                     _TRISB	set	16323
   237  0000                     _LATC	set	16316
   238  0000                     _LATB	set	16315
   239  0000                     _OSCTUNE	set	14814
   240  0000                     _OSCFRQ	set	14815
   241                           
   242                           	psect	nvCOMRAM
   243  00003D                     __pnvCOMRAM:
   244                           	callstack 0
   245  00003D                     _UART1_RxInterruptHandler:
   246                           	callstack 0
   247  00003D                     	ds	2
   248  00003F                     _uart1TxBufferRemaining:
   249                           	callstack 0
   250  00003F                     	ds	1
   251                           
   252                           	psect	nvBANK0
   253  0000E1                     __pnvBANK0:
   254                           	callstack 0
   255  0000E1                     _BatteryVolt:
   256                           	callstack 0
   257  0000E1                     	ds	2
   258  0000E3                     _TMR4_InterruptHandler:
   259                           	callstack 0
   260  0000E3                     	ds	2
   261  0000E5                     _timer3ReloadVal:
   262                           	callstack 0
   263  0000E5                     	ds	2
   264  0000E7                     _TMR5_GateInterruptHandler:
   265                           	callstack 0
   266  0000E7                     	ds	2
   267  0000E9                     _timer5ReloadVal:
   268                           	callstack 0
   269  0000E9                     	ds	2
   270  0000EB                     _CCP4_CallBack:
   271                           	callstack 0
   272  0000EB                     	ds	2
   273  0000ED                     _CCP3_CallBack:
   274                           	callstack 0
   275  0000ED                     	ds	2
   276  0000EF                     _UART1_ErrorHandler:
   277                           	callstack 0
   278  0000EF                     	ds	2
   279  0000F1                     _UART1_OverrunErrorHandler:
   280                           	callstack 0
   281  0000F1                     	ds	2
   282  0000F3                     _UART1_FramingErrorHandler:
   283                           	callstack 0
   284  0000F3                     	ds	2
   285  0000F5                     _UART1_TxInterruptHandler:
   286                           	callstack 0
   287  0000F5                     	ds	2
   288  0000                     _CLC3CON	set	15456
   289  0000                     _U1ERRIRbits	set	15865
   290  0000                     _ADCON1bits	set	16121
   291  0000                     _ADSTATbits	set	16124
   292  0000                     _ADCON2bits	set	16122
   293  0000                     _ADCON3bits	set	16123
   294  0000                     _ADCON0bits	set	16120
   295  0000                     _SMT1PR	set	16155
   296  0000                     _SMT1STATbits	set	16160
   297  0000                     _SMT1CON0bits	set	16158
   298  0000                     _SMT1CON1bits	set	16159
   299  0000                     _PR2	set	16299
   300  0000                     _TMR2	set	16298
   301  0000                     _T2CONbits	set	16300
   302  0000                     _T2RSTbits	set	16303
   303  0000                     _T2HLTbits	set	16301
   304  0000                     _PR4	set	16287
   305  0000                     _TMR4	set	16286
   306  0000                     _T4CONbits	set	16288
   307  0000                     _T4RSTbits	set	16291
   308  0000                     _T4HLTbits	set	16289
   309  0000                     _T3GCONbits	set	16295
   310  0000                     _T3CONbits	set	16294
   311  0000                     _T5GCONbits	set	16283
   312  0000                     _T5CONbits	set	16282
   313  0000                     _IVTLOCKbits	set	16340
   314  0000                     _GIE	set	130711
   315  0000                     _IPR1bits	set	14721
   316  0000                     _IPR3bits	set	14723
   317  0000                     _PIE3bits	set	14739
   318  0000                     _PMD0	set	14784
   319  0000                     _OSCCON1	set	14809
   320  0000                     _OSCCON3	set	14811
   321  0000                     _OSCEN	set	14813
   322  0000                     _RA0PPS	set	14848
   323  0000                     _RA1PPS	set	14849
   324  0000                     _ANSELA	set	14912
   325  0000                     _ANSELB	set	14928
   326  0000                     _ANSELC	set	14944
   327  0000                     _ANSELD	set	14960
   328  0000                     _LATA	set	16314
   329  0000                     _LATD	set	16317
   330  0000                     _LATE	set	16318
   331  0000                     _PMD7	set	14791
   332  0000                     _PMD6	set	14790
   333  0000                     _PMD5	set	14789
   334  0000                     _PMD4	set	14788
   335  0000                     _PMD3	set	14787
   336  0000                     _PMD2	set	14786
   337  0000                     _PMD1	set	14785
   338  0000                     _TRISA	set	16322
   339  0000                     _TRISE	set	16326
   340  0000                     _PORTDbits	set	16333
   341  0000                     _INTCON0bits	set	16338
   342  0000                     _INLVLD	set	14964
   343  0000                     _SLRCOND	set	14963
   344  0000                     _ODCOND	set	14962
   345  0000                     _RD0I2C	set	14970
   346  0000                     _WPUD	set	14961
   347  0000                     _ANSELE	set	14976
   348  0000                     _INLVLC	set	14948
   349  0000                     _SLRCONC	set	14947
   350  0000                     _ODCONC	set	14946
   351  0000                     _RC3I2C	set	14954
   352  0000                     _WPUC	set	14945
   353  0000                     _INLVLB	set	14932
   354  0000                     _SLRCONB	set	14931
   355  0000                     _ODCONB	set	14930
   356  0000                     _RB1I2C	set	14938
   357  0000                     _WPUB	set	14929
   358  0000                     _T5GPPS	set	15049
   359  0000                     _CCP3PPS	set	15055
   360  0000                     _INLVLE	set	14980
   361  0000                     _SLRCONE	set	14979
   362  0000                     _ODCONE	set	14978
   363  0000                     _WPUE	set	14977
   364  0000                     _INLVLA	set	14916
   365  0000                     _SLRCONA	set	14915
   366  0000                     _ODCONA	set	14914
   367  0000                     _WPUA	set	14913
   368  0000                     _RB2I2C	set	14939
   369  0000                     _RC4I2C	set	14955
   370  0000                     _RD1I2C	set	14971
   371  0000                     _U1RXPPS	set	15077
   372  0000                     _RA3PPS	set	14851
   373  0000                     _RA4PPS	set	14852
   374  0000                     _CLC3CONbits	set	15456
   375  0000                     _U1RXB	set	15848
   376  0000                     _U1TXB	set	15850
   377  0000                     _U1P1L	set	15852
   378  0000                     _RB3PPS	set	14859
   379  0000                     _CLCIN2PPS	set	15067
   380  0000                     _SMT1SIGPPS	set	15058
   381  0000                     _PIE7bits	set	14743
   382  0000                     _PIE8bits	set	14744
   383  0000                     _PIE9bits	set	14745
   384  0000                     _PIR9bits	set	14761
   385  0000                     _SMT1TMR	set	16146
   386  0000                     _SMT1CPR	set	16149
   387  0000                     _SMT1CPW	set	16152
   388  0000                     _ADLTHL	set	16094
   389  0000                     _SMT1PRL	set	16155
   390  0000                     _SMT1PRH	set	16156
   391  0000                     _SMT1PRU	set	16157
   392  0000                     _SMT1CON0	set	16158
   393  0000                     _CCPTMRS0bits	set	16222
   394  0000                     _CCPR3L	set	16244
   395  0000                     _CCPR3H	set	16245
   396  0000                     _CCP3CON	set	16246
   397  0000                     _U1ERRIE	set	15866
   398  0000                     _U1ERRIR	set	15865
   399  0000                     _U1UIR	set	15864
   400  0000                     _U1FIFO	set	15863
   401  0000                     _U1BRGH	set	15862
   402  0000                     _U1BRGL	set	15861
   403  0000                     _U1CON2	set	15860
   404  0000                     _U1CON1	set	15859
   405  0000                     _U1CON0	set	15858
   406  0000                     _U1P3H	set	15857
   407  0000                     _U1P3L	set	15856
   408  0000                     _U1P2H	set	15855
   409  0000                     _U1P2L	set	15854
   410  0000                     _U1P1H	set	15853
   411  0000                     _IVTLOCK	set	16340
   412  0000                     _IPR7bits	set	14727
   413  0000                     _IPR8bits	set	14728
   414  0000                     _IPR10bits	set	14730
   415  0000                     _PIE1bits	set	14737
   416  0000                     _TMR5L	set	16280
   417  0000                     _TMR5H	set	16281
   418  0000                     _T5GCON	set	16283
   419  0000                     _CCP3CAP	set	16247
   420  0000                     _PIR10bits	set	14762
   421  0000                     _PIR1bits	set	14753
   422  0000                     _PIR6bits	set	14758
   423  0000                     _PIR8bits	set	14760
   424  0000                     _PIE10bits	set	14746
   425  0000                     _PWM6DCL	set	16232
   426  0000                     _PWM6DCH	set	16233
   427  0000                     _PWM6CON	set	16234
   428  0000                     _PWM5DCL	set	16236
   429  0000                     _PWM5DCH	set	16237
   430  0000                     _PWM5CON	set	16238
   431  0000                     _PIR4bits	set	14756
   432  0000                     _CLC3GLS3	set	15465
   433  0000                     _CLC3GLS2	set	15464
   434  0000                     _CLC3GLS1	set	15463
   435  0000                     _CLC3GLS0	set	15462
   436  0000                     _CLC3SEL3	set	15461
   437  0000                     _CLC3SEL2	set	15460
   438  0000                     _CLC3SEL1	set	15459
   439  0000                     _CLC3SEL0	set	15458
   440  0000                     _CLC3POL	set	15457
   441  0000                     _T2RST	set	16303
   442  0000                     _ADACQL	set	16115
   443  0000                     _ADCLK	set	16127
   444  0000                     _ADACT	set	16126
   445  0000                     _ADREF	set	16125
   446  0000                     _ADSTAT	set	16124
   447  0000                     _ADCON3	set	16123
   448  0000                     _ADCON2	set	16122
   449                           
   450                           	psect	smallconst
   451  001000                     __psmallconst:
   452                           	callstack 0
   453  001000  00                 	db	0
   454  001001                     STR_2:
   455                           
   456                           ; BSR set to: 0
   457  001001  42                 	db	66	;'B'
   458  001002  56                 	db	86	;'V'
   459  001003  6F                 	db	111	;'o'
   460  001004  6C                 	db	108	;'l'
   461  001005  74                 	db	116	;'t'
   462  001006  3A                 	db	58	;':'
   463  001007  20                 	db	32
   464  001008  25                 	db	37
   465  001009  64                 	db	100	;'d'
   466  00100A  0A                 	db	10
   467  00100B  00                 	db	0
   468  00100C                     STR_1:
   469                           
   470                           ; BSR set to: 0
   471  00100C  6D                 	db	109	;'m'
   472  00100D  61                 	db	97	;'a'
   473  00100E  69                 	db	105	;'i'
   474  00100F  6E                 	db	110	;'n'
   475  001010  0A                 	db	10
   476  001011  00                 	db	0
   477  001012  00                 	db	0	; dummy byte at the end
   478  0000                     
   479                           ; #config settings
   480                           
   481                           	psect	cinit
   482  0027F2                     __pcinit:
   483                           	callstack 0
   484  0027F2                     start_initialization:
   485                           	callstack 0
   486  0027F2                     __initialization:
   487                           	callstack 0
   488                           
   489                           ; Initialize objects allocated to BANK0 (8 bytes)
   490                           ; load TBLPTR registers with __pidataBANK0
   491  0027F2  0E1C               	movlw	low __pidataBANK0
   492  0027F4  6EF6               	movwf	tblptrl,c
   493  0027F6  0E33               	movlw	high __pidataBANK0
   494  0027F8  6EF7               	movwf	tblptrh,c
   495  0027FA  0E00               	movlw	low (__pidataBANK0 shr (0+16))
   496  0027FC  6EF8               	movwf	tblptru,c
   497  0027FE  EE00  F0F7         	lfsr	0,__pdataBANK0
   498  002802  EE10 F008          	lfsr	1,8
   499  002806                     copy_data0:
   500  002806  0009               	tblrd		*+
   501  002808  006F FFD7 FFEE     	movff	tablat,postinc0
   502  00280E  50E5               	movf	postdec1,w,c
   503  002810  50E1               	movf	fsr1l,w,c
   504  002812  E1F9               	bnz	copy_data0
   505                           
   506                           ; Initialize objects allocated to COMRAM (1 bytes)
   507                           ; load TBLPTR registers with __pidataCOMRAM
   508  002814  0E3A               	movlw	low __pidataCOMRAM
   509  002816  6EF6               	movwf	tblptrl,c
   510  002818  0E33               	movlw	high __pidataCOMRAM
   511  00281A  6EF7               	movwf	tblptrh,c
   512  00281C  0E00               	movlw	low (__pidataCOMRAM shr (0+16))
   513  00281E  6EF8               	movwf	tblptru,c
   514  002820  0009               	tblrd		*+	;fetch initializer
   515  002822  006F FFD4  F040    	movff	tablat,__pdataCOMRAM
   516                           
   517                           ; Clear objects allocated to BANK1 (32 bytes)
   518  002828  EE00  F100         	lfsr	0,__pbssBANK1
   519  00282C  0E20               	movlw	32
   520  00282E                     clear_0:
   521  00282E  6AEE               	clrf	postinc0,c
   522  002830  06E8               	decf	wreg,f,c
   523  002832  E1FD               	bnz	clear_0
   524                           
   525                           ; Clear objects allocated to BANK0 (49 bytes)
   526  002834  EE00  F0B0         	lfsr	0,__pbssBANK0
   527  002838  0E31               	movlw	49
   528  00283A                     clear_1:
   529  00283A  6AEE               	clrf	postinc0,c
   530  00283C  06E8               	decf	wreg,f,c
   531  00283E  E1FD               	bnz	clear_1
   532                           
   533                           ; Clear objects allocated to COMRAM (26 bytes)
   534  002840  EE00  F023         	lfsr	0,__pbssCOMRAM
   535  002844  0E1A               	movlw	26
   536  002846                     clear_2:
   537  002846  6AEE               	clrf	postinc0,c
   538  002848  06E8               	decf	wreg,f,c
   539  00284A  E1FD               	bnz	clear_2
   540                           
   541                           ;
   542                           ; Setup IVTBASE
   543                           ;
   544  00284C  0E08               	movlw	(ivt0x8_base shr 0)& (0+255)
   545  00284E  6ED5               	movwf	213,c
   546  002850  0E00               	movlw	(ivt0x8_base shr (0+8))& (0+255)
   547  002852  6ED6               	movwf	214,c
   548  002854  0E00               	movlw	(ivt0x8_base shr (0+16))& (0+255)
   549  002856  6ED7               	movwf	215,c
   550  002858                     end_of_initialization:
   551                           	callstack 0
   552  002858                     __end_of__initialization:
   553                           	callstack 0
   554  002858  0100               	movlb	0
   555  00285A  EFE4  F018         	goto	_main	;jump to C main() function
   556                           
   557                           	psect	bssCOMRAM
   558  000023                     __pbssCOMRAM:
   559                           	callstack 0
   560  000023                     _flags:
   561                           	callstack 0
   562  000023                     	ds	2
   563  000025                     _motPow:
   564                           	callstack 0
   565  000025                     	ds	2
   566  000027                     TMR4_ISR@CountCallBack:
   567                           	callstack 0
   568  000027                     	ds	2
   569  000029                     _distFront:
   570                           	callstack 0
   571  000029                     	ds	2
   572  00002B                     _distRightM:
   573                           	callstack 0
   574  00002B                     	ds	2
   575  00002D                     _distRight:
   576                           	callstack 0
   577  00002D                     	ds	2
   578  00002F                     _distLeftM:
   579                           	callstack 0
   580  00002F                     	ds	2
   581  000031                     _distLeft:
   582                           	callstack 0
   583  000031                     	ds	2
   584  000033                     _uart1RxLastError:
   585                           	callstack 0
   586  000033                     	ds	1
   587  000034                     _uart1RxCount:
   588                           	callstack 0
   589  000034                     	ds	1
   590  000035                     _uart1RxTail:
   591                           	callstack 0
   592  000035                     	ds	1
   593  000036                     _uart1RxHead:
   594                           	callstack 0
   595  000036                     	ds	1
   596  000037                     _uart1TxTail:
   597                           	callstack 0
   598  000037                     	ds	1
   599  000038                     _uart1TxHead:
   600                           	callstack 0
   601  000038                     	ds	1
   602  000039                     _smtPeriod:
   603                           	callstack 0
   604  000039                     	ds	4
   605                           
   606                           	psect	dataCOMRAM
   607  000040                     __pdataCOMRAM:
   608                           	callstack 0
   609  000040                     _fahrModus:
   610                           	callstack 0
   611  000040                     	ds	1
   612                           
   613                           	psect	bssBANK0
   614  0000B0                     __pbssBANK0:
   615                           	callstack 0
   616  0000B0                     _uart1RxStatusBuffer:
   617                           	callstack 0
   618  0000B0                     	ds	8
   619  0000B8                     _uart1RxBuffer:
   620                           	callstack 0
   621  0000B8                     	ds	8
   622  0000C0                     _uart1TxBuffer:
   623                           	callstack 0
   624  0000C0                     	ds	8
   625  0000C8                     _smtWay:
   626                           	callstack 0
   627  0000C8                     	ds	4
   628  0000CC                     _smtDuty:
   629                           	callstack 0
   630  0000CC                     	ds	4
   631  0000D0                     _nout:
   632                           	callstack 0
   633  0000D0                     	ds	2
   634  0000D2                     _width:
   635                           	callstack 0
   636  0000D2                     	ds	2
   637  0000D4                     _prec:
   638                           	callstack 0
   639  0000D4                     	ds	2
   640  0000D6                     _actMotorPow:
   641                           	callstack 0
   642  0000D6                     	ds	2
   643  0000D8                     _oldSpeedDelta:
   644                           	callstack 0
   645  0000D8                     	ds	2
   646  0000DA                     _oldSpeed:
   647                           	callstack 0
   648  0000DA                     	ds	2
   649  0000DC                     _currentSpeed:
   650                           	callstack 0
   651  0000DC                     	ds	2
   652  0000DE                     _setSpeed:
   653                           	callstack 0
   654  0000DE                     	ds	2
   655  0000E0                     _cycle10ms:
   656                           	callstack 0
   657  0000E0                     	ds	1
   658                           
   659                           	psect	dataBANK0
   660  0000F7                     __pdataBANK0:
   661                           	callstack 0
   662  0000F7                     _defaultMotorPowerBackward:
   663                           	callstack 0
   664  0000F7                     	ds	2
   665  0000F9                     _defaultMotorPowerForward:
   666                           	callstack 0
   667  0000F9                     	ds	2
   668  0000FB                     _maxMPowBackward:
   669                           	callstack 0
   670  0000FB                     	ds	2
   671  0000FD                     _maxMPowForward:
   672                           	callstack 0
   673  0000FD                     	ds	2
   674                           
   675                           	psect	bssBANK1
   676  000100                     __pbssBANK1:
   677                           	callstack 0
   678  000100                     _dbuf:
   679                           	callstack 0
   680  000100                     	ds	32
   681                           
   682                           	psect	cstackBANK1
   683  000120                     __pcstackBANK1:
   684                           	callstack 0
   685  000120                     ?_vfprintf:
   686                           	callstack 0
   687  000120                     vfprintf@fp:
   688                           	callstack 0
   689                           
   690                           ; 2 bytes @ 0x0
   691  000120                     	ds	2
   692  000122                     vfprintf@fmt:
   693                           	callstack 0
   694                           
   695                           ; 2 bytes @ 0x2
   696  000122                     	ds	2
   697  000124                     vfprintf@ap:
   698                           	callstack 0
   699                           
   700                           ; 2 bytes @ 0x4
   701  000124                     	ds	2
   702  000126                     ?_printf:
   703                           	callstack 0
   704  000126                     printf@fmt:
   705                           	callstack 0
   706                           
   707                           ; 2 bytes @ 0x6
   708  000126                     	ds	4
   709  00012A                     printf@ap:
   710                           	callstack 0
   711                           
   712                           ; 2 bytes @ 0xA
   713  00012A                     	ds	2
   714                           
   715                           	psect	cstackBANK0
   716  000060                     __pcstackBANK0:
   717                           	callstack 0
   718  000060                     ??_TMR5_Initialize:
   719  000060                     ??_PWM7_LoadDutyValue:
   720  000060                     ??_PWM8_LoadDutyValue:
   721  000060                     ??_ADCC_GetSingleConversion:
   722  000060                     ?___awdiv:
   723                           	callstack 0
   724  000060                     ?___aldiv:
   725                           	callstack 0
   726  000060                     ?___aodiv:
   727                           	callstack 0
   728  000060                     ?___aomod:
   729                           	callstack 0
   730  000060                     ___awdiv@dividend:
   731                           	callstack 0
   732  000060                     fputc@c:
   733                           	callstack 0
   734  000060                     strlen@a:
   735                           	callstack 0
   736  000060                     ___aldiv@dividend:
   737                           	callstack 0
   738  000060                     ___aodiv@dividend:
   739                           	callstack 0
   740  000060                     ___aomod@dividend:
   741                           	callstack 0
   742                           
   743                           ; 8 bytes @ 0x0
   744  000060                     	ds	2
   745  000062                     setMotor@MotorPower:
   746                           	callstack 0
   747  000062                     ___awdiv@divisor:
   748                           	callstack 0
   749  000062                     fputc@fp:
   750                           	callstack 0
   751                           
   752                           ; 2 bytes @ 0x2
   753  000062                     	ds	2
   754  000064                     ??_setMotor:
   755  000064                     ??_fputc:
   756  000064                     ___awdiv@counter:
   757                           	callstack 0
   758  000064                     ___aldiv@divisor:
   759                           	callstack 0
   760                           
   761                           ; 4 bytes @ 0x4
   762  000064                     	ds	1
   763  000065                     ___awdiv@sign:
   764                           	callstack 0
   765                           
   766                           ; 1 bytes @ 0x5
   767  000065                     	ds	1
   768  000066                     ___awdiv@quotient:
   769                           	callstack 0
   770                           
   771                           ; 2 bytes @ 0x6
   772  000066                     	ds	2
   773  000068                     ?___xxtofl:
   774                           	callstack 0
   775  000068                     ___aldiv@counter:
   776                           	callstack 0
   777  000068                     ___xxtofl@val:
   778                           	callstack 0
   779  000068                     ___aodiv@divisor:
   780                           	callstack 0
   781  000068                     ___aomod@divisor:
   782                           	callstack 0
   783                           
   784                           ; 8 bytes @ 0x8
   785  000068                     	ds	1
   786  000069                     ___aldiv@sign:
   787                           	callstack 0
   788  000069                     fputs@s:
   789                           	callstack 0
   790                           
   791                           ; 2 bytes @ 0x9
   792  000069                     	ds	1
   793  00006A                     ___aldiv@quotient:
   794                           	callstack 0
   795                           
   796                           ; 4 bytes @ 0xA
   797  00006A                     	ds	1
   798  00006B                     fputs@fp:
   799                           	callstack 0
   800                           
   801                           ; 2 bytes @ 0xB
   802  00006B                     	ds	1
   803  00006C                     ??___xxtofl:
   804                           
   805                           ; 1 bytes @ 0xC
   806  00006C                     	ds	1
   807  00006D                     fputs@c:
   808                           	callstack 0
   809                           
   810                           ; 1 bytes @ 0xD
   811  00006D                     	ds	1
   812  00006E                     actSpeed@speed:
   813                           	callstack 0
   814  00006E                     fputs@i:
   815                           	callstack 0
   816                           
   817                           ; 2 bytes @ 0xE
   818  00006E                     	ds	2
   819  000070                     ?_abs:
   820                           	callstack 0
   821  000070                     ?_pad:
   822                           	callstack 0
   823  000070                     ___aodiv@counter:
   824                           	callstack 0
   825  000070                     ___xxtofl@sign:
   826                           	callstack 0
   827  000070                     pad@fp:
   828                           	callstack 0
   829  000070                     abs@a:
   830                           	callstack 0
   831                           
   832                           ; 2 bytes @ 0x10
   833  000070                     	ds	1
   834  000071                     ___aodiv@sign:
   835                           	callstack 0
   836  000071                     ___xxtofl@exp:
   837                           	callstack 0
   838                           
   839                           ; 1 bytes @ 0x11
   840  000071                     	ds	1
   841  000072                     ??_abs:
   842  000072                     pad@buf:
   843                           	callstack 0
   844  000072                     ___xxtofl@arg:
   845                           	callstack 0
   846  000072                     ___aodiv@quotient:
   847                           	callstack 0
   848                           
   849                           ; 8 bytes @ 0x12
   850  000072                     	ds	2
   851  000074                     pad@p:
   852                           	callstack 0
   853                           
   854                           ; 2 bytes @ 0x14
   855  000074                     	ds	2
   856  000076                     ?___flmul:
   857                           	callstack 0
   858  000076                     pad@i:
   859                           	callstack 0
   860  000076                     ___flmul@b:
   861                           	callstack 0
   862                           
   863                           ; 4 bytes @ 0x16
   864  000076                     	ds	2
   865  000078                     pad@w:
   866                           	callstack 0
   867                           
   868                           ; 2 bytes @ 0x18
   869  000078                     	ds	2
   870  00007A                     ?_dtoa:
   871                           	callstack 0
   872  00007A                     dtoa@fp:
   873                           	callstack 0
   874  00007A                     ___flmul@a:
   875                           	callstack 0
   876                           
   877                           ; 4 bytes @ 0x1A
   878  00007A                     	ds	2
   879  00007C                     dtoa@d:
   880                           	callstack 0
   881                           
   882                           ; 8 bytes @ 0x1C
   883  00007C                     	ds	2
   884  00007E                     ??___flmul:
   885                           
   886                           ; 1 bytes @ 0x1E
   887  00007E                     	ds	4
   888  000082                     ___flmul@sign:
   889                           	callstack 0
   890                           
   891                           ; 1 bytes @ 0x22
   892  000082                     	ds	1
   893  000083                     ___flmul@aexp:
   894                           	callstack 0
   895                           
   896                           ; 1 bytes @ 0x23
   897  000083                     	ds	1
   898  000084                     ??_dtoa:
   899  000084                     ___flmul@grs:
   900                           	callstack 0
   901                           
   902                           ; 4 bytes @ 0x24
   903  000084                     	ds	4
   904  000088                     ___flmul@bexp:
   905                           	callstack 0
   906                           
   907                           ; 1 bytes @ 0x28
   908  000088                     	ds	1
   909  000089                     ___flmul@prod:
   910                           	callstack 0
   911                           
   912                           ; 4 bytes @ 0x29
   913  000089                     	ds	3
   914  00008C                     _dtoa$3416:
   915                           	callstack 0
   916                           
   917                           ; 2 bytes @ 0x2C
   918  00008C                     	ds	1
   919  00008D                     ___flmul@temp:
   920                           	callstack 0
   921                           
   922                           ; 2 bytes @ 0x2D
   923  00008D                     	ds	1
   924  00008E                     dtoa@p:
   925                           	callstack 0
   926                           
   927                           ; 2 bytes @ 0x2E
   928  00008E                     	ds	1
   929  00008F                     ?___fltol:
   930                           	callstack 0
   931  00008F                     ___fltol@f1:
   932                           	callstack 0
   933                           
   934                           ; 4 bytes @ 0x2F
   935  00008F                     	ds	1
   936  000090                     dtoa@w:
   937                           	callstack 0
   938                           
   939                           ; 2 bytes @ 0x30
   940  000090                     	ds	2
   941  000092                     dtoa@s:
   942                           	callstack 0
   943                           
   944                           ; 2 bytes @ 0x32
   945  000092                     	ds	1
   946  000093                     ??___fltol:
   947                           
   948                           ; 1 bytes @ 0x33
   949  000093                     	ds	1
   950  000094                     dtoa@n:
   951                           	callstack 0
   952                           
   953                           ; 8 bytes @ 0x34
   954  000094                     	ds	3
   955  000097                     ??_calcMotorPow:
   956                           
   957                           ; 1 bytes @ 0x37
   958  000097                     	ds	2
   959  000099                     calcMotorPow@factor:
   960                           	callstack 0
   961                           
   962                           ; 4 bytes @ 0x39
   963  000099                     	ds	3
   964  00009C                     dtoa@i:
   965                           	callstack 0
   966                           
   967                           ; 2 bytes @ 0x3C
   968  00009C                     	ds	1
   969  00009D                     calcMotorPow@setSpeedDelta:
   970                           	callstack 0
   971                           
   972                           ; 2 bytes @ 0x3D
   973  00009D                     	ds	1
   974  00009E                     ?_vfpfcnvrt:
   975                           	callstack 0
   976  00009E                     vfpfcnvrt@fp:
   977                           	callstack 0
   978                           
   979                           ; 2 bytes @ 0x3E
   980  00009E                     	ds	1
   981  00009F                     calcMotorPow@addMPow:
   982                           	callstack 0
   983                           
   984                           ; 2 bytes @ 0x3F
   985  00009F                     	ds	1
   986  0000A0                     vfpfcnvrt@fmt:
   987                           	callstack 0
   988                           
   989                           ; 2 bytes @ 0x40
   990  0000A0                     	ds	2
   991  0000A2                     vfpfcnvrt@ap:
   992                           	callstack 0
   993                           
   994                           ; 2 bytes @ 0x42
   995  0000A2                     	ds	2
   996  0000A4                     ??_vfpfcnvrt:
   997                           
   998                           ; 1 bytes @ 0x44
   999  0000A4                     	ds	2
  1000  0000A6                     vfpfcnvrt@ll:
  1001                           	callstack 0
  1002                           
  1003                           ; 8 bytes @ 0x46
  1004  0000A6                     	ds	8
  1005  0000AE                     vfprintf@cfmt:
  1006                           	callstack 0
  1007                           
  1008                           ; 2 bytes @ 0x4E
  1009  0000AE                     	ds	2
  1010                           
  1011                           	psect	cstackCOMRAM
  1012  000001                     __pcstackCOMRAM:
  1013                           	callstack 0
  1014  000001                     CCP3_DefaultCallBack@capturedValue:
  1015                           	callstack 0
  1016                           
  1017                           ; 2 bytes @ 0x0
  1018  000001                     	ds	2
  1019  000003                     ??_CCP3_CaptureISR:
  1020                           
  1021                           ; 1 bytes @ 0x2
  1022  000003                     	ds	2
  1023  000005                     CCP3_CaptureISR@module:
  1024                           	callstack 0
  1025                           
  1026                           ; 2 bytes @ 0x4
  1027  000005                     	ds	2
  1028  000007                     CCP4_DefaultCallBack@capturedValue:
  1029                           	callstack 0
  1030                           
  1031                           ; 2 bytes @ 0x6
  1032  000007                     	ds	2
  1033  000009                     ??_CCP4_CaptureISR:
  1034                           
  1035                           ; 1 bytes @ 0x8
  1036  000009                     	ds	2
  1037  00000B                     CCP4_CaptureISR@module:
  1038                           	callstack 0
  1039                           
  1040                           ; 2 bytes @ 0xA
  1041  00000B                     	ds	2
  1042  00000D                     ?_TMR5_ReadTimer:
  1043                           	callstack 0
  1044  00000D                     TMR5_WriteTimer@timerVal:
  1045                           	callstack 0
  1046                           
  1047                           ; 2 bytes @ 0xC
  1048  00000D                     	ds	2
  1049  00000F                     ??_TMR5_ReadTimer:
  1050  00000F                     
  1051                           ; 1 bytes @ 0xE
  1052  00000F                     	ds	2
  1053  000011                     TMR5_ReadTimer@readVal:
  1054                           	callstack 0
  1055                           
  1056                           ; 2 bytes @ 0x10
  1057  000011                     	ds	2
  1058  000013                     TMR5_ReadTimer@readValHigh:
  1059                           	callstack 0
  1060                           
  1061                           ; 1 bytes @ 0x12
  1062  000013                     	ds	1
  1063  000014                     TMR5_ReadTimer@readValLow:
  1064                           	callstack 0
  1065                           
  1066                           ; 1 bytes @ 0x13
  1067  000014                     	ds	1
  1068  000015                     ??_TMR5_GATE_ISR:
  1069                           
  1070                           ; 1 bytes @ 0x14
  1071  000015                     	ds	2
  1072  000017                     ??_UART1_tx_vect_isr:
  1073  000017                     
  1074                           ; 1 bytes @ 0x16
  1075  000017                     	ds	3
  1076  00001A                     ??_UART1_rx_vect_isr:
  1077                           
  1078                           ; 1 bytes @ 0x19
  1079  00001A                     	ds	3
  1080  00001D                     ??_TMR4_ISR:
  1081                           
  1082                           ; 1 bytes @ 0x1C
  1083  00001D                     	ds	3
  1084  000020                     ??_TMR3_Initialize:
  1085  000020                     ??_calcLenkung:
  1086  000020                     ?_strlen:
  1087                           	callstack 0
  1088  000020                     ?_ADCC_GetSingleConversion:
  1089                           	callstack 0
  1090  000020                     ?_actSpeed:
  1091                           	callstack 0
  1092  000020                     UART1_Write@txData:
  1093                           	callstack 0
  1094  000020                     INTERRUPT_Initialize@state:
  1095                           	callstack 0
  1096  000020                     ___aomod@counter:
  1097                           	callstack 0
  1098  000020                     ___fltol@sign1:
  1099                           	callstack 0
  1100  000020                     UART1_SetFramingErrorHandler@interruptHandler:
  1101                           	callstack 0
  1102  000020                     UART1_SetOverrunErrorHandler@interruptHandler:
  1103                           	callstack 0
  1104  000020                     UART1_SetErrorHandler@interruptHandler:
  1105                           	callstack 0
  1106  000020                     UART1_SetRxInterruptHandler@InterruptHandler:
  1107                           	callstack 0
  1108  000020                     UART1_SetTxInterruptHandler@InterruptHandler:
  1109                           	callstack 0
  1110  000020                     CCP3_SetCallBack@customCallBack:
  1111                           	callstack 0
  1112  000020                     CCP4_SetCallBack@customCallBack:
  1113                           	callstack 0
  1114  000020                     TMR5_SetGateInterruptHandler@InterruptHandler:
  1115                           	callstack 0
  1116  000020                     TMR4_SetInterruptHandler@InterruptHandler:
  1117                           	callstack 0
  1118  000020                     PWM7_LoadDutyValue@dutyValue:
  1119                           	callstack 0
  1120  000020                     PWM8_LoadDutyValue@dutyValue:
  1121                           	callstack 0
  1122  000020                     strlen@s:
  1123                           	callstack 0
  1124                           
  1125                           ; 2 bytes @ 0x1F
  1126  000020                     	ds	1
  1127  000021                     putch@txData:
  1128                           	callstack 0
  1129  000021                     ___aomod@sign:
  1130                           	callstack 0
  1131  000021                     ___fltol@exp1:
  1132                           	callstack 0
  1133                           
  1134                           ; 1 bytes @ 0x20
  1135  000021                     	ds	1
  1136  000022                     ??_pad:
  1137  000022                     ADCC_GetSingleConversion@channel:
  1138                           	callstack 0
  1139                           
  1140                           ; 1 bytes @ 0x21
  1141  000022                     	ds	1
  1142  000023                     
  1143                           ; 1 bytes @ 0x22
  1144 ;;
  1145 ;;Main: autosize = 0, tempsize = 0, incstack = 0, save=0
  1146 ;;
  1147 ;; *************** function _main *****************
  1148 ;; Defined at:
  1149 ;;		line 67 in file "main.c"
  1150 ;; Parameters:    Size  Location     Type
  1151 ;;		None
  1152 ;; Auto vars:     Size  Location     Type
  1153 ;;		None
  1154 ;; Return value:  Size  Location     Type
  1155 ;;                  1    wreg      void 
  1156 ;; Registers used:
  1157 ;;		wreg, fsr1l, fsr1h, fsr2l, fsr2h, status,2, status,0, tblptrl, tblptrh, tblptru, prodl, prodh, cstack
  1158 ;; Tracked objects:
  1159 ;;		On entry : 0/0
  1160 ;;		On exit  : 0/0
  1161 ;;		Unchanged: 0/0
  1162 ;; Data sizes:     COMRAM   BANK0   BANK1   BANK2   BANK3   BANK4   BANK5   BANK6   BANK7   BANK8   BANK9  BANK10  BANK1
      +1  BANK12  BANK13  BANK14  BANK15
  1163 ;;      Params:         0       0       0       0       0       0       0       0       0       0       0       0       
      +0       0       0       0       0
  1164 ;;      Locals:         0       0       0       0       0       0       0       0       0       0       0       0       
      +0       0       0       0       0
  1165 ;;      Temps:          0       0       0       0       0       0       0       0       0       0       0       0       
      +0       0       0       0       0
  1166 ;;      Totals:         0       0       0       0       0       0       0       0       0       0       0       0       
      +0       0       0       0       0
  1167 ;;Total ram usage:        0 bytes
  1168 ;; Hardware stack levels required when called: 19
  1169 ;; This function calls:
  1170 ;;		_SYSTEM_Initialize
  1171 ;;		_TMR4_SetInterruptHandler
  1172 ;;		_loop
  1173 ;; This function is called by:
  1174 ;;		Startup code after reset
  1175 ;; This function uses a non-reentrant model
  1176 ;;
  1177                           
  1178                           	psect	text0
  1179  0031C8                     __ptext0:
  1180                           	callstack 0
  1181  0031C8                     _main:
  1182                           	callstack 12
  1183  0031C8                     
  1184                           ;main.c: 69:     SYSTEM_Initialize();
  1185  0031C8  EC08  F016         	call	_SYSTEM_Initialize	;wreg free
  1186  0031CC                     
  1187                           ;main.c: 76:     (INTCON0bits.GIEH = 1);
  1188  0031CC  8ED2               	bsf	210,7,c	;volatile
  1189  0031CE                     
  1190                           ;main.c: 79:     (INTCON0bits.GIEL = 1);
  1191  0031CE  8CD2               	bsf	210,6,c	;volatile
  1192                           
  1193                           ;main.c: 87:     TMR4_SetInterruptHandler(TMR4_10msISR);
  1194  0031D0  0E2A               	movlw	low _TMR4_10msISR
  1195  0031D2  6E20               	movwf	TMR4_SetInterruptHandler@InterruptHandler^0,c
  1196  0031D4  0E33               	movlw	high _TMR4_10msISR
  1197  0031D6  6E21               	movwf	(TMR4_SetInterruptHandler@InterruptHandler+1)^0,c
  1198  0031D8  EC7F  F019         	call	_TMR4_SetInterruptHandler	;wreg free
  1199  0031DC                     
  1200                           ;main.c: 89:     loop();
  1201  0031DC  EC63  F014         	call	_loop	;wreg free
  1202  0031E0  EF57  F000         	goto	start
  1203  0031E4                     __end_of_main:
  1204                           	callstack 0
  1205                           
  1206 ;; *************** function _loop *****************
  1207 ;; Defined at:
  1208 ;;		line 92 in file "main.c"
  1209 ;; Parameters:    Size  Location     Type
  1210 ;;		None
  1211 ;; Auto vars:     Size  Location     Type
  1212 ;;		None
  1213 ;; Return value:  Size  Location     Type
  1214 ;;                  1    wreg      void 
  1215 ;; Registers used:
  1216 ;;		wreg, fsr1l, fsr1h, fsr2l, fsr2h, status,2, status,0, tblptrl, tblptrh, tblptru, prodl, prodh, cstack
  1217 ;; Tracked objects:
  1218 ;;		On entry : 0/0
  1219 ;;		On exit  : 0/0
  1220 ;;		Unchanged: 0/0
  1221 ;; Data sizes:     COMRAM   BANK0   BANK1   BANK2   BANK3   BANK4   BANK5   BANK6   BANK7   BANK8   BANK9  BANK10  BANK1
      +1  BANK12  BANK13  BANK14  BANK15
  1222 ;;      Params:         0       0       0       0       0       0       0       0       0       0       0       0       
      +0       0       0       0       0
  1223 ;;      Locals:         0       0       0       0       0       0       0       0       0       0       0       0       
      +0       0       0       0       0
  1224 ;;      Temps:          0       0       0       0       0       0       0       0       0       0       0       0       
      +0       0       0       0       0
  1225 ;;      Totals:         0       0       0       0       0       0       0       0       0       0       0       0       
      +0       0       0       0       0
  1226 ;;Total ram usage:        0 bytes
  1227 ;; Hardware stack levels used: 1
  1228 ;; Hardware stack levels required when called: 18
  1229 ;; This function calls:
  1230 ;;		_ADCC_GetSingleConversion
  1231 ;;		_calcLenkung
  1232 ;;		_calcMotorPow
  1233 ;;		_outBatteryVoltage
  1234 ;;		_printf
  1235 ;; This function is called by:
  1236 ;;		_main
  1237 ;; This function uses a non-reentrant model
  1238 ;;
  1239                           
  1240                           	psect	text1
  1241  0028C6                     __ptext1:
  1242                           	callstack 0
  1243  0028C6                     _loop:
  1244                           	callstack 12
  1245  0028C6                     l1195:
  1246  0028C6                     
  1247                           ;main.c: 98:         BatteryVolt = ADCC_GetSingleConversion(aiBatt);
  1248  0028C6  0E22               	movlw	34
  1249  0028C8  EC44  F017         	call	_ADCC_GetSingleConversion
  1250  0028CC  C020  F0E1         	movff	?_ADCC_GetSingleConversion,_BatteryVolt
  1251  0028D0  C021  F0E2         	movff	?_ADCC_GetSingleConversion+1,_BatteryVolt+1
  1252  0028D4                     
  1253                           ;main.c: 99:         outBatteryVoltage();
  1254  0028D4  EC4A  F019         	call	_outBatteryVoltage	;wreg free
  1255  0028D8                     
  1256                           ;main.c: 100:     }while(BatteryVolt < 2800);
  1257  0028D8  0EF0               	movlw	240
  1258  0028DA  0100               	movlb	0	; () banked
  1259  0028DC  5DE1               	subwf	_BatteryVolt& (0+255),w,b
  1260  0028DE  0E0A               	movlw	10
  1261  0028E0  59E2               	subwfb	(_BatteryVolt+1)& (0+255),w,b
  1262  0028E2  A0D8               	btfss	status,0,c
  1263  0028E4  EF76  F014         	goto	u4031
  1264  0028E8  EF78  F014         	goto	u4030
  1265  0028EC                     u4031:
  1266  0028EC  EF63  F014         	goto	l1195
  1267  0028F0                     u4030:
  1268  0028F0                     l5278:
  1269  0028F0  0100               	movlb	0	; () banked
  1270  0028F2  51E0               	movf	_cycle10ms& (0+255),w,b
  1271  0028F4  B4D8               	btfsc	status,2,c
  1272  0028F6  EF7F  F014         	goto	u4041
  1273  0028FA  EF81  F014         	goto	u4040
  1274  0028FE                     u4041:
  1275  0028FE  EF78  F014         	goto	l5278
  1276  002902                     u4040:
  1277  002902                     
  1278                           ; BSR set to: 0
  1279                           ;main.c: 104:         cycle10ms = 0;
  1280  002902  0E00               	movlw	0
  1281  002904  6FE0               	movwf	_cycle10ms& (0+255),b
  1282  002906                     
  1283                           ; BSR set to: 0
  1284                           ;main.c: 107:         printf("main\n");
  1285  002906  0E0C               	movlw	low STR_1
  1286  002908  0101               	movlb	1	; () banked
  1287  00290A  6F26               	movwf	printf@fmt& (0+255),b
  1288  00290C  0E10               	movlw	high STR_1
  1289  00290E  6F27               	movwf	(printf@fmt+1)& (0+255),b
  1290  002910  EC97  F018         	call	_printf	;wreg free
  1291  002914                     
  1292                           ;main.c: 109:         setSpeed = 150;
  1293  002914  0E00               	movlw	0
  1294  002916  0100               	movlb	0	; () banked
  1295  002918  6FDF               	movwf	(_setSpeed+1)& (0+255),b
  1296  00291A  0E96               	movlw	150
  1297  00291C  6FDE               	movwf	_setSpeed& (0+255),b
  1298  00291E                     
  1299                           ; BSR set to: 0
  1300                           ;main.c: 112:         calcMotorPow();
  1301  00291E  ECAC  F00C         	call	_calcMotorPow	;wreg free
  1302  002922                     
  1303                           ;main.c: 113:         calcLenkung();
  1304  002922  ECC1  F016         	call	_calcLenkung	;wreg free
  1305  002926  EF78  F014         	goto	l5278
  1306  00292A  0012               	return		;funcret
  1307  00292C                     __end_of_loop:
  1308                           	callstack 0
  1309                           
  1310 ;; *************** function _outBatteryVoltage *****************
  1311 ;; Defined at:
  1312 ;;		line 134 in file "main.c"
  1313 ;; Parameters:    Size  Location     Type
  1314 ;;		None
  1315 ;; Auto vars:     Size  Location     Type
  1316 ;;  batt            2    0        unsigned short 
  1317 ;; Return value:  Size  Location     Type
  1318 ;;                  1    wreg      void 
  1319 ;; Registers used:
  1320 ;;		wreg, fsr1l, fsr1h, fsr2l, fsr2h, status,2, status,0, tblptrl, tblptrh, tblptru, cstack
  1321 ;; Tracked objects:
  1322 ;;		On entry : 0/0
  1323 ;;		On exit  : 0/0
  1324 ;;		Unchanged: 0/0
  1325 ;; Data sizes:     COMRAM   BANK0   BANK1   BANK2   BANK3   BANK4   BANK5   BANK6   BANK7   BANK8   BANK9  BANK10  BANK1
      +1  BANK12  BANK13  BANK14  BANK15
  1326 ;;      Params:         0       0       0       0       0       0       0       0       0       0       0       0       
      +0       0       0       0       0
  1327 ;;      Locals:         0       0       0       0       0       0       0       0       0       0       0       0       
      +0       0       0       0       0
  1328 ;;      Temps:          0       0       0       0       0       0       0       0       0       0       0       0       
      +0       0       0       0       0
  1329 ;;      Totals:         0       0       0       0       0       0       0       0       0       0       0       0       
      +0       0       0       0       0
  1330 ;;Total ram usage:        0 bytes
  1331 ;; Hardware stack levels used: 1
  1332 ;; Hardware stack levels required when called: 17
  1333 ;; This function calls:
  1334 ;;		_printf
  1335 ;; This function is called by:
  1336 ;;		_loop
  1337 ;; This function uses a non-reentrant model
  1338 ;;
  1339                           
  1340                           	psect	text2
  1341  003294                     __ptext2:
  1342                           	callstack 0
  1343  003294                     _outBatteryVoltage:
  1344                           	callstack 12
  1345  003294                     
  1346                           ;main.c: 137:     printf("BVolt: %d\n", batt);
  1347  003294  0E01               	movlw	low STR_2
  1348  003296  0101               	movlb	1	; () banked
  1349  003298  6F26               	movwf	printf@fmt& (0+255),b
  1350  00329A  0E10               	movlw	high STR_2
  1351  00329C  6F27               	movwf	(printf@fmt+1)& (0+255),b
  1352  00329E  0EFF               	movlw	255
  1353  0032A0  6F29               	movwf	(?_printf+3)& (0+255),b
  1354  0032A2  6928               	setf	(?_printf+2)& (0+255),b
  1355  0032A4  EC97  F018         	call	_printf	;wreg free
  1356  0032A8  0012               	return		;funcret
  1357  0032AA                     __end_of_outBatteryVoltage:
  1358                           	callstack 0
  1359                           
  1360 ;; *************** function _printf *****************
  1361 ;; Defined at:
  1362 ;;		line 5 in file "C:\Program Files\Microchip\xc8\v2.36\pic\sources\c99\common\printf.c"
  1363 ;; Parameters:    Size  Location     Type
  1364 ;;  fmt             2    6[BANK1 ] PTR const unsigned char 
  1365 ;;		 -> STR_2(11), STR_1(6), 
  1366 ;; Auto vars:     Size  Location     Type
  1367 ;;  ap              2   10[BANK1 ] PTR void [1]
  1368 ;;		 -> ?_printf(2), 
  1369 ;;  ret             2    0        int 
  1370 ;; Return value:  Size  Location     Type
  1371 ;;                  2    6[BANK1 ] int 
  1372 ;; Registers used:
  1373 ;;		wreg, fsr1l, fsr1h, fsr2l, fsr2h, status,2, status,0, tblptrl, tblptrh, tblptru, cstack
  1374 ;; Tracked objects:
  1375 ;;		On entry : 0/0
  1376 ;;		On exit  : 0/0
  1377 ;;		Unchanged: 0/0
  1378 ;; Data sizes:     COMRAM   BANK0   BANK1   BANK2   BANK3   BANK4   BANK5   BANK6   BANK7   BANK8   BANK9  BANK10  BANK1
      +1  BANK12  BANK13  BANK14  BANK15
  1379 ;;      Params:         0       0       4       0       0       0       0       0       0       0       0       0       
      +0       0       0       0       0
  1380 ;;      Locals:         0       0       2       0       0       0       0       0       0       0       0       0       
      +0       0       0       0       0
  1381 ;;      Temps:          0       0       0       0       0       0       0       0       0       0       0       0       
      +0       0       0       0       0
  1382 ;;      Totals:         0       0       6       0       0       0       0       0       0       0       0       0       
      +0       0       0       0       0
  1383 ;;Total ram usage:        6 bytes
  1384 ;; Hardware stack levels used: 1
  1385 ;; Hardware stack levels required when called: 16
  1386 ;; This function calls:
  1387 ;;		_vfprintf
  1388 ;; This function is called by:
  1389 ;;		_loop
  1390 ;;		_outBatteryVoltage
  1391 ;; This function uses a non-reentrant model
  1392 ;;
  1393                           
  1394                           	psect	text3
  1395  00312E                     __ptext3:
  1396                           	callstack 0
  1397  00312E                     _printf:
  1398                           	callstack 13
  1399  00312E  0E28               	movlw	low (?_printf+2)
  1400  003130  0101               	movlb	1	; () banked
  1401  003132  6F2A               	movwf	printf@ap& (0+255),b
  1402  003134  0E01               	movlw	high (?_printf+2)
  1403  003136  6F2B               	movwf	(printf@ap+1)& (0+255),b
  1404  003138                     
  1405                           ; BSR set to: 1
  1406  003138  0E00               	movlw	0
  1407  00313A  6F20               	movwf	vfprintf@fp& (0+255),b
  1408  00313C  0E00               	movlw	0
  1409  00313E  6F21               	movwf	(vfprintf@fp+1)& (0+255),b
  1410  003140  C126  F122         	movff	printf@fmt,vfprintf@fmt
  1411  003144  C127  F123         	movff	printf@fmt+1,vfprintf@fmt+1
  1412  003148  0E2A               	movlw	low printf@ap
  1413  00314A  6F24               	movwf	vfprintf@ap& (0+255),b
  1414  00314C  0E01               	movlw	high printf@ap
  1415  00314E  6F25               	movwf	(vfprintf@ap+1)& (0+255),b
  1416  003150  EC2F  F014         	call	_vfprintf	;wreg free
  1417  003154  0012               	return		;funcret
  1418  003156                     __end_of_printf:
  1419                           	callstack 0
  1420                           
  1421 ;; *************** function _vfprintf *****************
  1422 ;; Defined at:
  1423 ;;		line 1390 in file "C:\Program Files\Microchip\xc8\v2.36\pic\sources\c99\common\doprnt.c"
  1424 ;; Parameters:    Size  Location     Type
  1425 ;;  fp              2    0[BANK1 ] PTR struct _IO_FILE
  1426 ;;		 -> NULL(0), 
  1427 ;;  fmt             2    2[BANK1 ] PTR const unsigned char 
  1428 ;;		 -> STR_2(11), STR_1(6), 
  1429 ;;  ap              2    4[BANK1 ] PTR PTR void 
  1430 ;;		 -> printf@ap(2), 
  1431 ;; Auto vars:     Size  Location     Type
  1432 ;;  cfmt            2   78[BANK0 ] PTR unsigned char 
  1433 ;;		 -> STR_2(11), STR_1(6), 
  1434 ;; Return value:  Size  Location     Type
  1435 ;;                  2    0[BANK1 ] int 
  1436 ;; Registers used:
  1437 ;;		wreg, fsr1l, fsr1h, fsr2l, fsr2h, status,2, status,0, tblptrl, tblptrh, tblptru, cstack
  1438 ;; Tracked objects:
  1439 ;;		On entry : 0/0
  1440 ;;		On exit  : 0/0
  1441 ;;		Unchanged: 0/0
  1442 ;; Data sizes:     COMRAM   BANK0   BANK1   BANK2   BANK3   BANK4   BANK5   BANK6   BANK7   BANK8   BANK9  BANK10  BANK1
      +1  BANK12  BANK13  BANK14  BANK15
  1443 ;;      Params:         0       0       6       0       0       0       0       0       0       0       0       0       
      +0       0       0       0       0
  1444 ;;      Locals:         0       2       0       0       0       0       0       0       0       0       0       0       
      +0       0       0       0       0
  1445 ;;      Temps:          0       0       0       0       0       0       0       0       0       0       0       0       
      +0       0       0       0       0
  1446 ;;      Totals:         0       2       6       0       0       0       0       0       0       0       0       0       
      +0       0       0       0       0
  1447 ;;Total ram usage:        8 bytes
  1448 ;; Hardware stack levels used: 1
  1449 ;; Hardware stack levels required when called: 15
  1450 ;; This function calls:
  1451 ;;		_vfpfcnvrt
  1452 ;; This function is called by:
  1453 ;;		_printf
  1454 ;; This function uses a non-reentrant model
  1455 ;;
  1456                           
  1457                           	psect	text4
  1458  00285E                     __ptext4:
  1459                           	callstack 0
  1460  00285E                     _vfprintf:
  1461                           	callstack 13
  1462  00285E                     
  1463                           ;C:\Program Files\Microchip\xc8\v2.36\pic\sources\c99\common\doprnt.c: 1390: int vfprint
      +                          f(FILE *fp, const char *fmt, va_list ap);C:\Program Files\Microchip\xc8\v2.36\pic\source
      +                          s\c99\common\doprnt.c: 1391: {;C:\Program Files\Microchip\xc8\v2.36\pic\sources\c99\comm
      +                          on\doprnt.c: 1393:     char *cfmt;;C:\Program Files\Microchip\xc8\v2.36\pic\sources\c99\
      +                          common\doprnt.c: 1395:     cfmt = (char *)fmt;
  1464  00285E  C122  F0AE         	movff	vfprintf@fmt,vfprintf@cfmt
  1465  002862  C123  F0AF         	movff	vfprintf@fmt+1,vfprintf@cfmt+1
  1466  002866                     
  1467                           ;C:\Program Files\Microchip\xc8\v2.36\pic\sources\c99\common\doprnt.c: 1396:     nout = 
      +                          0;
  1468  002866  0E00               	movlw	0
  1469  002868  0100               	movlb	0	; () banked
  1470  00286A  6FD1               	movwf	(_nout+1)& (0+255),b
  1471  00286C  0E00               	movlw	0
  1472  00286E  6FD0               	movwf	_nout& (0+255),b
  1473                           
  1474                           ;C:\Program Files\Microchip\xc8\v2.36\pic\sources\c99\common\doprnt.c: 1397:     while (
      +                          *cfmt) {
  1475  002870  EF4D  F014         	goto	l4910
  1476  002874                     l4908:
  1477                           
  1478                           ; BSR set to: 0
  1479                           ;C:\Program Files\Microchip\xc8\v2.36\pic\sources\c99\common\doprnt.c: 1398:         nou
      +                          t += vfpfcnvrt(fp, &cfmt, ap);
  1480  002874  C120  F09E         	movff	vfprintf@fp,vfpfcnvrt@fp
  1481  002878  C121  F09F         	movff	vfprintf@fp+1,vfpfcnvrt@fp+1
  1482  00287C  0EAE               	movlw	low vfprintf@cfmt
  1483  00287E  6FA0               	movwf	vfpfcnvrt@fmt& (0+255),b
  1484  002880  0E00               	movlw	high vfprintf@cfmt
  1485  002882  6FA1               	movwf	(vfpfcnvrt@fmt+1)& (0+255),b
  1486  002884  C124  F0A2         	movff	vfprintf@ap,vfpfcnvrt@ap
  1487  002888  C125  F0A3         	movff	vfprintf@ap+1,vfpfcnvrt@ap+1
  1488  00288C  ECA5  F00B         	call	_vfpfcnvrt	;wreg free
  1489  002890  0100               	movlb	0	; () banked
  1490  002892  519E               	movf	?_vfpfcnvrt& (0+255),w,b
  1491  002894  27D0               	addwf	_nout& (0+255),f,b
  1492  002896  519F               	movf	(?_vfpfcnvrt+1)& (0+255),w,b
  1493  002898  23D1               	addwfc	(_nout+1)& (0+255),f,b
  1494  00289A                     l4910:
  1495                           
  1496                           ; BSR set to: 0
  1497                           ;C:\Program Files\Microchip\xc8\v2.36\pic\sources\c99\common\doprnt.c: 1397:     while (
      +                          *cfmt) {
  1498  00289A  0060  F2BB  FFF6   	movff	vfprintf@cfmt,tblptrl
  1499  0028A0  0060  F2BF  FFF7   	movff	vfprintf@cfmt+1,tblptrh
  1500  0028A6                     	if	1	;Program memory is < 0x10000, tblptru is always zero
  1501  0028A6  6AF8               	clrf	tblptru,c
  1502  0028A8                     	endif
  1503  0028A8                     	if	0	;tblptru may be non-zero
  1504  0028A8                     	endif
  1505  0028A8  0008               	tblrd		*
  1506  0028AA  50F5               	movf	tablat,w,c
  1507  0028AC  0900               	iorlw	0
  1508  0028AE  A4D8               	btfss	status,2,c
  1509  0028B0  EF5C  F014         	goto	u3521
  1510  0028B4  EF5E  F014         	goto	u3520
  1511  0028B8                     u3521:
  1512  0028B8  EF3A  F014         	goto	l4908
  1513  0028BC                     u3520:
  1514  0028BC                     
  1515                           ; BSR set to: 0
  1516                           ;C:\Program Files\Microchip\xc8\v2.36\pic\sources\c99\common\doprnt.c: 1400:     return 
      +                          nout;
  1517  0028BC  C0D0  F120         	movff	_nout,?_vfprintf
  1518  0028C0  C0D1  F121         	movff	_nout+1,?_vfprintf+1
  1519  0028C4                     
  1520                           ; BSR set to: 0
  1521  0028C4  0012               	return		;funcret
  1522  0028C6                     __end_of_vfprintf:
  1523                           	callstack 0
  1524                           
  1525 ;; *************** function _vfpfcnvrt *****************
  1526 ;; Defined at:
  1527 ;;		line 692 in file "C:\Program Files\Microchip\xc8\v2.36\pic\sources\c99\common\doprnt.c"
  1528 ;; Parameters:    Size  Location     Type
  1529 ;;  fp              2   62[BANK0 ] PTR struct _IO_FILE
  1530 ;;		 -> NULL(0), 
  1531 ;;  fmt             2   64[BANK0 ] PTR PTR unsigned char 
  1532 ;;		 -> vfprintf@cfmt(2), 
  1533 ;;  ap              2   66[BANK0 ] PTR PTR void 
  1534 ;;		 -> printf@ap(2), 
  1535 ;; Auto vars:     Size  Location     Type
  1536 ;;  ll              8   70[BANK0 ] long long 
  1537 ;;  llu             8    0        unsigned long long 
  1538 ;;  f               4    0        unsigned long long 
  1539 ;;  vp              3    0        PTR void 
  1540 ;;  ct              3    0        unsigned char [3]
  1541 ;;  cp              3    0        PTR unsigned char 
  1542 ;;  i               2    0        int 
  1543 ;;  done            2    0        int 
  1544 ;;  c               1    0        unsigned char 
  1545 ;; Return value:  Size  Location     Type
  1546 ;;                  2   62[BANK0 ] int 
  1547 ;; Registers used:
  1548 ;;		wreg, fsr1l, fsr1h, fsr2l, fsr2h, status,2, status,0, tblptrl, tblptrh, tblptru, cstack
  1549 ;; Tracked objects:
  1550 ;;		On entry : 0/0
  1551 ;;		On exit  : 0/0
  1552 ;;		Unchanged: 0/0
  1553 ;; Data sizes:     COMRAM   BANK0   BANK1   BANK2   BANK3   BANK4   BANK5   BANK6   BANK7   BANK8   BANK9  BANK10  BANK1
      +1  BANK12  BANK13  BANK14  BANK15
  1554 ;;      Params:         0       6       0       0       0       0       0       0       0       0       0       0       
      +0       0       0       0       0
  1555 ;;      Locals:         0       8       0       0       0       0       0       0       0       0       0       0       
      +0       0       0       0       0
  1556 ;;      Temps:          0       2       0       0       0       0       0       0       0       0       0       0       
      +0       0       0       0       0
  1557 ;;      Totals:         0      16       0       0       0       0       0       0       0       0       0       0       
      +0       0       0       0       0
  1558 ;;Total ram usage:       16 bytes
  1559 ;; Hardware stack levels used: 1
  1560 ;; Hardware stack levels required when called: 14
  1561 ;; This function calls:
  1562 ;;		_dtoa
  1563 ;;		_fputc
  1564 ;; This function is called by:
  1565 ;;		_vfprintf
  1566 ;; This function uses a non-reentrant model
  1567 ;;
  1568                           
  1569                           	psect	text5
  1570  00174A                     __ptext5:
  1571                           	callstack 0
  1572  00174A                     _vfpfcnvrt:
  1573                           	callstack 13
  1574  00174A                     
  1575                           ;C:\Program Files\Microchip\xc8\v2.36\pic\sources\c99\common\doprnt.c: 692: static int v
      +                          fpfcnvrt(FILE *fp, char *fmt[], va_list ap);C:\Program Files\Microchip\xc8\v2.36\pic\sou
      +                          rces\c99\common\doprnt.c: 693: {;C:\Program Files\Microchip\xc8\v2.36\pic\sources\c99\co
      +                          mmon\doprnt.c: 694:     char c, *cp, ct[3];;C:\Program Files\Microchip\xc8\v2.36\pic\sou
      +                          rces\c99\common\doprnt.c: 695:     int done, i;;C:\Program Files\Microchip\xc8\v2.36\pic
      +                          \sources\c99\common\doprnt.c: 696:     long long ll;;C:\Program Files\Microchip\xc8\v2.3
      +                          6\pic\sources\c99\common\doprnt.c: 697:     unsigned long long llu;
  1576  00174A  0060  F283  FFD9   	movff	vfpfcnvrt@fmt,fsr2l
  1577  001750  0060  F287  FFDA   	movff	vfpfcnvrt@fmt+1,fsr2h
  1578  001756  006F FF7B FFF6     	movff	postinc2,tblptrl
  1579  00175C  006F FF77 FFF7     	movff	postdec2,tblptrh
  1580  001762                     	if	1	;Program memory is < 0x10000, tblptru is always zero
  1581  001762  6AF8               	clrf	tblptru,c
  1582  001764                     	endif
  1583  001764                     	if	0	;tblptru may be non-zero
  1584  001764                     	endif
  1585  001764  0008               	tblrd		*
  1586  001766  50F5               	movf	tablat,w,c
  1587  001768  0A25               	xorlw	37
  1588  00176A  A4D8               	btfss	status,2,c
  1589  00176C  EFBA  F00B         	goto	u3401
  1590  001770  EFBC  F00B         	goto	u3400
  1591  001774                     u3401:
  1592  001774  EF88  F00C         	goto	l4848
  1593  001778                     u3400:
  1594  001778                     
  1595                           ;C:\Program Files\Microchip\xc8\v2.36\pic\sources\c99\common\doprnt.c: 703:         ++*f
      +                          mt;
  1596  001778  0060  F283  FFD9   	movff	vfpfcnvrt@fmt,fsr2l
  1597  00177E  0060  F287  FFDA   	movff	vfpfcnvrt@fmt+1,fsr2h
  1598  001784  2ADE               	incf	postinc2,f,c
  1599  001786  0E00               	movlw	0
  1600  001788  22DD               	addwfc	postdec2,f,c
  1601  00178A                     
  1602                           ;C:\Program Files\Microchip\xc8\v2.36\pic\sources\c99\common\doprnt.c: 705:         flag
      +                          s = width = 0;
  1603  00178A  0E00               	movlw	0
  1604  00178C  0100               	movlb	0	; () banked
  1605  00178E  6FD3               	movwf	(_width+1)& (0+255),b
  1606  001790  0E00               	movlw	0
  1607  001792  6FD2               	movwf	_width& (0+255),b
  1608  001794  C0D2  F023         	movff	_width,_flags
  1609  001798  C0D3  F024         	movff	_width+1,_flags+1
  1610  00179C                     
  1611                           ; BSR set to: 0
  1612                           ;C:\Program Files\Microchip\xc8\v2.36\pic\sources\c99\common\doprnt.c: 706:         prec
      +                           = -1;
  1613  00179C  69D4               	setf	_prec& (0+255),b
  1614  00179E  69D5               	setf	(_prec+1)& (0+255),b
  1615  0017A0                     
  1616                           ; BSR set to: 0
  1617                           ;C:\Program Files\Microchip\xc8\v2.36\pic\sources\c99\common\doprnt.c: 847:         if (
      +                          (*fmt[0] == 'd') || (*fmt[0] == 'i')) {
  1618  0017A0  0060  F283  FFD9   	movff	vfpfcnvrt@fmt,fsr2l
  1619  0017A6  0060  F287  FFDA   	movff	vfpfcnvrt@fmt+1,fsr2h
  1620  0017AC  006F FF7B FFF6     	movff	postinc2,tblptrl
  1621  0017B2  006F FF77 FFF7     	movff	postdec2,tblptrh
  1622  0017B8                     	if	1	;Program memory is < 0x10000, tblptru is always zero
  1623  0017B8  6AF8               	clrf	tblptru,c
  1624  0017BA                     	endif
  1625  0017BA                     	if	0	;tblptru may be non-zero
  1626  0017BA                     	endif
  1627  0017BA  0008               	tblrd		*
  1628  0017BC  50F5               	movf	tablat,w,c
  1629  0017BE  0A64               	xorlw	100
  1630  0017C0  B4D8               	btfsc	status,2,c
  1631  0017C2  EFE5  F00B         	goto	u3411
  1632  0017C6  EFE7  F00B         	goto	u3410
  1633  0017CA                     u3411:
  1634  0017CA  EFFE  F00B         	goto	l4826
  1635  0017CE                     u3410:
  1636  0017CE                     
  1637                           ; BSR set to: 0
  1638  0017CE  0060  F283  FFD9   	movff	vfpfcnvrt@fmt,fsr2l
  1639  0017D4  0060  F287  FFDA   	movff	vfpfcnvrt@fmt+1,fsr2h
  1640  0017DA  006F FF7B FFF6     	movff	postinc2,tblptrl
  1641  0017E0  006F FF77 FFF7     	movff	postdec2,tblptrh
  1642  0017E6                     	if	1	;Program memory is < 0x10000, tblptru is always zero
  1643  0017E6  6AF8               	clrf	tblptru,c
  1644  0017E8                     	endif
  1645  0017E8                     	if	0	;tblptru may be non-zero
  1646  0017E8                     	endif
  1647  0017E8  0008               	tblrd		*
  1648  0017EA  50F5               	movf	tablat,w,c
  1649  0017EC  0A69               	xorlw	105
  1650  0017EE  A4D8               	btfss	status,2,c
  1651  0017F0  EFFC  F00B         	goto	u3421
  1652  0017F4  EFFE  F00B         	goto	u3420
  1653  0017F8                     u3421:
  1654  0017F8  EF48  F00C         	goto	l4832
  1655  0017FC                     u3420:
  1656  0017FC                     l4826:
  1657                           
  1658                           ; BSR set to: 0
  1659                           ;C:\Program Files\Microchip\xc8\v2.36\pic\sources\c99\common\doprnt.c: 849:             
      +                          ++*fmt;
  1660  0017FC  0060  F283  FFD9   	movff	vfpfcnvrt@fmt,fsr2l
  1661  001802  0060  F287  FFDA   	movff	vfpfcnvrt@fmt+1,fsr2h
  1662  001808  2ADE               	incf	postinc2,f,c
  1663  00180A  0E00               	movlw	0
  1664  00180C  22DD               	addwfc	postdec2,f,c
  1665                           
  1666                           ;C:\Program Files\Microchip\xc8\v2.36\pic\sources\c99\common\doprnt.c: 850:             
      +                          ll = (long long)(*(int *)__va_arg(*(int **)ap, (int)0));
  1667  00180E  0060  F28B  FFD9   	movff	vfpfcnvrt@ap,fsr2l
  1668  001814  0060  F28F  FFDA   	movff	vfpfcnvrt@ap+1,fsr2h
  1669  00181A  006F FF7C  F0A4    	movff	indf2,??_vfpfcnvrt
  1670  001820  0E02               	movlw	2
  1671  001822  26DE               	addwf	postinc2,f,c
  1672  001824  006F FF7C  F0A5    	movff	indf2,??_vfpfcnvrt+1
  1673  00182A  0E00               	movlw	0
  1674  00182C  22DD               	addwfc	postdec2,f,c
  1675  00182E  0060  F293  FFD9   	movff	??_vfpfcnvrt,fsr2l
  1676  001834  0060  F297  FFDA   	movff	??_vfpfcnvrt+1,fsr2h
  1677  00183A  006F FF78  F0A6    	movff	postinc2,vfpfcnvrt@ll
  1678  001840  006F FF74  F0A7    	movff	postdec2,vfpfcnvrt@ll+1
  1679  001846  0E00               	movlw	0
  1680  001848  BFA7               	btfsc	(vfpfcnvrt@ll+1)& (0+255),7,b
  1681  00184A  0EFF               	movlw	-1
  1682  00184C  6FA8               	movwf	(vfpfcnvrt@ll+2)& (0+255),b
  1683  00184E  6FA9               	movwf	(vfpfcnvrt@ll+3)& (0+255),b
  1684  001850  6FAA               	movwf	(vfpfcnvrt@ll+4)& (0+255),b
  1685  001852  6FAB               	movwf	(vfpfcnvrt@ll+5)& (0+255),b
  1686  001854  6FAC               	movwf	(vfpfcnvrt@ll+6)& (0+255),b
  1687  001856  6FAD               	movwf	(vfpfcnvrt@ll+7)& (0+255),b
  1688  001858                     
  1689                           ; BSR set to: 0
  1690                           ;C:\Program Files\Microchip\xc8\v2.36\pic\sources\c99\common\doprnt.c: 852:             
      +                          return dtoa(fp, ll);
  1691  001858  C09E  F07A         	movff	vfpfcnvrt@fp,dtoa@fp
  1692  00185C  C09F  F07B         	movff	vfpfcnvrt@fp+1,dtoa@fp+1
  1693  001860  C0A6  F07C         	movff	vfpfcnvrt@ll,dtoa@d
  1694  001864  C0A7  F07D         	movff	vfpfcnvrt@ll+1,dtoa@d+1
  1695  001868  C0A8  F07E         	movff	vfpfcnvrt@ll+2,dtoa@d+2
  1696  00186C  C0A9  F07F         	movff	vfpfcnvrt@ll+3,dtoa@d+3
  1697  001870  C0AA  F080         	movff	vfpfcnvrt@ll+4,dtoa@d+4
  1698  001874  C0AB  F081         	movff	vfpfcnvrt@ll+5,dtoa@d+5
  1699  001878  C0AC  F082         	movff	vfpfcnvrt@ll+6,dtoa@d+6
  1700  00187C  C0AD  F083         	movff	vfpfcnvrt@ll+7,dtoa@d+7
  1701  001880  EC32  F00A         	call	_dtoa	;wreg free
  1702  001884  C07A  F09E         	movff	?_dtoa,?_vfpfcnvrt
  1703  001888  C07B  F09F         	movff	?_dtoa+1,?_vfpfcnvrt+1
  1704  00188C  EFAB  F00C         	goto	l2014
  1705  001890                     l4832:
  1706                           
  1707                           ; BSR set to: 0
  1708                           ;C:\Program Files\Microchip\xc8\v2.36\pic\sources\c99\common\doprnt.c: 1372:         if 
      +                          ((*fmt)[0] == '%') {
  1709  001890  0060  F283  FFD9   	movff	vfpfcnvrt@fmt,fsr2l
  1710  001896  0060  F287  FFDA   	movff	vfpfcnvrt@fmt+1,fsr2h
  1711  00189C  006F FF7B FFF6     	movff	postinc2,tblptrl
  1712  0018A2  006F FF77 FFF7     	movff	postdec2,tblptrh
  1713  0018A8                     	if	1	;Program memory is < 0x10000, tblptru is always zero
  1714  0018A8  6AF8               	clrf	tblptru,c
  1715  0018AA                     	endif
  1716  0018AA                     	if	0	;tblptru may be non-zero
  1717  0018AA                     	endif
  1718  0018AA  0008               	tblrd		*
  1719  0018AC  50F5               	movf	tablat,w,c
  1720  0018AE  0A25               	xorlw	37
  1721  0018B0  A4D8               	btfss	status,2,c
  1722  0018B2  EF5D  F00C         	goto	u3431
  1723  0018B6  EF5F  F00C         	goto	u3430
  1724  0018BA                     u3431:
  1725  0018BA  EF79  F00C         	goto	l4842
  1726  0018BE                     u3430:
  1727  0018BE                     
  1728                           ; BSR set to: 0
  1729                           ;C:\Program Files\Microchip\xc8\v2.36\pic\sources\c99\common\doprnt.c: 1373:            
      +                           ++*fmt;
  1730  0018BE  0060  F283  FFD9   	movff	vfpfcnvrt@fmt,fsr2l
  1731  0018C4  0060  F287  FFDA   	movff	vfpfcnvrt@fmt+1,fsr2h
  1732  0018CA  2ADE               	incf	postinc2,f,c
  1733  0018CC  0E00               	movlw	0
  1734  0018CE  22DD               	addwfc	postdec2,f,c
  1735  0018D0                     
  1736                           ; BSR set to: 0
  1737                           ;C:\Program Files\Microchip\xc8\v2.36\pic\sources\c99\common\doprnt.c: 1374:            
      +                           fputc((int)'%', fp);
  1738  0018D0  0E00               	movlw	0
  1739  0018D2  6F61               	movwf	(fputc@c+1)& (0+255),b
  1740  0018D4  0E25               	movlw	37
  1741  0018D6  6F60               	movwf	fputc@c& (0+255),b
  1742  0018D8  C09E  F062         	movff	vfpfcnvrt@fp,fputc@fp
  1743  0018DC  C09F  F063         	movff	vfpfcnvrt@fp+1,fputc@fp+1
  1744  0018E0  ECAD  F013         	call	_fputc	;wreg free
  1745  0018E4                     l4838:
  1746                           
  1747                           ;C:\Program Files\Microchip\xc8\v2.36\pic\sources\c99\common\doprnt.c: 1375:            
      +                           return 1;
  1748  0018E4  0E00               	movlw	0
  1749  0018E6  0100               	movlb	0	; () banked
  1750  0018E8  6F9F               	movwf	(?_vfpfcnvrt+1)& (0+255),b
  1751  0018EA  0E01               	movlw	1
  1752  0018EC  6F9E               	movwf	?_vfpfcnvrt& (0+255),b
  1753  0018EE  EFAB  F00C         	goto	l2014
  1754  0018F2                     l4842:
  1755                           
  1756                           ; BSR set to: 0
  1757                           ;C:\Program Files\Microchip\xc8\v2.36\pic\sources\c99\common\doprnt.c: 1379:         ++*
      +                          fmt;
  1758  0018F2  0060  F283  FFD9   	movff	vfpfcnvrt@fmt,fsr2l
  1759  0018F8  0060  F287  FFDA   	movff	vfpfcnvrt@fmt+1,fsr2h
  1760  0018FE  2ADE               	incf	postinc2,f,c
  1761  001900  0E00               	movlw	0
  1762  001902  22DD               	addwfc	postdec2,f,c
  1763  001904                     
  1764                           ; BSR set to: 0
  1765                           ;C:\Program Files\Microchip\xc8\v2.36\pic\sources\c99\common\doprnt.c: 1380:         ret
      +                          urn 0;
  1766  001904  0E00               	movlw	0
  1767  001906  6F9F               	movwf	(?_vfpfcnvrt+1)& (0+255),b
  1768  001908  0E00               	movlw	0
  1769  00190A  6F9E               	movwf	?_vfpfcnvrt& (0+255),b
  1770  00190C  EFAB  F00C         	goto	l2014
  1771  001910                     l4848:
  1772                           
  1773                           ;C:\Program Files\Microchip\xc8\v2.36\pic\sources\c99\common\doprnt.c: 1384:     fputc((
      +                          int)(*fmt)[0], fp);
  1774  001910  0060  F283  FFD9   	movff	vfpfcnvrt@fmt,fsr2l
  1775  001916  0060  F287  FFDA   	movff	vfpfcnvrt@fmt+1,fsr2h
  1776  00191C  006F FF7B FFF6     	movff	postinc2,tblptrl
  1777  001922  006F FF77 FFF7     	movff	postdec2,tblptrh
  1778  001928                     	if	1	;Program memory is < 0x10000, tblptru is always zero
  1779  001928  6AF8               	clrf	tblptru,c
  1780  00192A                     	endif
  1781  00192A                     	if	0	;tblptru may be non-zero
  1782  00192A                     	endif
  1783  00192A  0008               	tblrd		*
  1784  00192C  50F5               	movf	tablat,w,c
  1785  00192E  0100               	movlb	0	; () banked
  1786  001930  6F60               	movwf	fputc@c& (0+255),b
  1787  001932  6B61               	clrf	(fputc@c+1)& (0+255),b
  1788  001934  C09E  F062         	movff	vfpfcnvrt@fp,fputc@fp
  1789  001938  C09F  F063         	movff	vfpfcnvrt@fp+1,fputc@fp+1
  1790  00193C  ECAD  F013         	call	_fputc	;wreg free
  1791  001940                     
  1792                           ;C:\Program Files\Microchip\xc8\v2.36\pic\sources\c99\common\doprnt.c: 1385:     ++*fmt;
  1793  001940  0060  F283  FFD9   	movff	vfpfcnvrt@fmt,fsr2l
  1794  001946  0060  F287  FFDA   	movff	vfpfcnvrt@fmt+1,fsr2h
  1795  00194C  2ADE               	incf	postinc2,f,c
  1796  00194E  0E00               	movlw	0
  1797  001950  22DD               	addwfc	postdec2,f,c
  1798  001952  EF72  F00C         	goto	l4838
  1799  001956                     l2014:
  1800  001956  0012               	return		;funcret
  1801  001958                     __end_of_vfpfcnvrt:
  1802                           	callstack 0
  1803                           
  1804 ;; *************** function _dtoa *****************
  1805 ;; Defined at:
  1806 ;;		line 287 in file "C:\Program Files\Microchip\xc8\v2.36\pic\sources\c99\common\doprnt.c"
  1807 ;; Parameters:    Size  Location     Type
  1808 ;;  fp              2   26[BANK0 ] PTR struct _IO_FILE
  1809 ;;		 -> NULL(0), 
  1810 ;;  d               8   28[BANK0 ] long long 
  1811 ;; Auto vars:     Size  Location     Type
  1812 ;;  n               8   52[BANK0 ] long long 
  1813 ;;  i               2   60[BANK0 ] int 
  1814 ;;  s               2   50[BANK0 ] int 
  1815 ;;  w               2   48[BANK0 ] int 
  1816 ;;  p               2   46[BANK0 ] int 
  1817 ;; Return value:  Size  Location     Type
  1818 ;;                  2   26[BANK0 ] int 
  1819 ;; Registers used:
  1820 ;;		wreg, fsr1l, fsr1h, fsr2l, fsr2h, status,2, status,0, cstack
  1821 ;; Tracked objects:
  1822 ;;		On entry : 0/0
  1823 ;;		On exit  : 0/0
  1824 ;;		Unchanged: 0/0
  1825 ;; Data sizes:     COMRAM   BANK0   BANK1   BANK2   BANK3   BANK4   BANK5   BANK6   BANK7   BANK8   BANK9  BANK10  BANK1
      +1  BANK12  BANK13  BANK14  BANK15
  1826 ;;      Params:         0      10       0       0       0       0       0       0       0       0       0       0       
      +0       0       0       0       0
  1827 ;;      Locals:         0      18       0       0       0       0       0       0       0       0       0       0       
      +0       0       0       0       0
  1828 ;;      Temps:          0       8       0       0       0       0       0       0       0       0       0       0       
      +0       0       0       0       0
  1829 ;;      Totals:         0      36       0       0       0       0       0       0       0       0       0       0       
      +0       0       0       0       0
  1830 ;;Total ram usage:       36 bytes
  1831 ;; Hardware stack levels used: 1
  1832 ;; Hardware stack levels required when called: 13
  1833 ;; This function calls:
  1834 ;;		___aodiv
  1835 ;;		___aomod
  1836 ;;		_abs
  1837 ;;		_pad
  1838 ;; This function is called by:
  1839 ;;		_vfpfcnvrt
  1840 ;; This function uses a non-reentrant model
  1841 ;;
  1842                           
  1843                           	psect	text6
  1844  001464                     __ptext6:
  1845                           	callstack 0
  1846  001464                     _dtoa:
  1847                           	callstack 13
  1848  001464                     
  1849                           ;C:\Program Files\Microchip\xc8\v2.36\pic\sources\c99\common\doprnt.c: 287: static int d
      +                          toa(FILE *fp, long long d);C:\Program Files\Microchip\xc8\v2.36\pic\sources\c99\common\d
      +                          oprnt.c: 288: {;C:\Program Files\Microchip\xc8\v2.36\pic\sources\c99\common\doprnt.c: 28
      +                          9:     int i, p, s, w;;C:\Program Files\Microchip\xc8\v2.36\pic\sources\c99\common\doprn
      +                          t.c: 290:     long long n;;C:\Program Files\Microchip\xc8\v2.36\pic\sources\c99\common\d
      +                          oprnt.c: 293:     n = d;
  1850  001464  C07C  F094         	movff	dtoa@d,dtoa@n
  1851  001468  C07D  F095         	movff	dtoa@d+1,dtoa@n+1
  1852  00146C  C07E  F096         	movff	dtoa@d+2,dtoa@n+2
  1853  001470  C07F  F097         	movff	dtoa@d+3,dtoa@n+3
  1854  001474  C080  F098         	movff	dtoa@d+4,dtoa@n+4
  1855  001478  C081  F099         	movff	dtoa@d+5,dtoa@n+5
  1856  00147C  C082  F09A         	movff	dtoa@d+6,dtoa@n+6
  1857  001480  C083  F09B         	movff	dtoa@d+7,dtoa@n+7
  1858  001484                     
  1859                           ;C:\Program Files\Microchip\xc8\v2.36\pic\sources\c99\common\doprnt.c: 294:     s = n < 
      +                          0 ? 1 : 0;
  1860  001484  0100               	movlb	0	; () banked
  1861  001486  BF9B               	btfsc	(dtoa@n+7)& (0+255),7,b
  1862  001488  EF48  F00A         	goto	u3251
  1863  00148C  EF4B  F00A         	goto	u3250
  1864  001490                     u3251:
  1865  001490  0E01               	movlw	1
  1866  001492  EF4C  F00A         	goto	u3260
  1867  001496                     u3250:
  1868  001496  0E00               	movlw	0
  1869  001498                     u3260:
  1870  001498  6F92               	movwf	dtoa@s& (0+255),b
  1871  00149A  6B93               	clrf	(dtoa@s+1)& (0+255),b
  1872                           
  1873                           ;C:\Program Files\Microchip\xc8\v2.36\pic\sources\c99\common\doprnt.c: 295:     if (s) {
  1874  00149C  5192               	movf	dtoa@s& (0+255),w,b
  1875  00149E  1193               	iorwf	(dtoa@s+1)& (0+255),w,b
  1876  0014A0  B4D8               	btfsc	status,2,c
  1877  0014A2  EF55  F00A         	goto	u3271
  1878  0014A6  EF57  F00A         	goto	u3270
  1879  0014AA                     u3271:
  1880  0014AA  EF67  F00A         	goto	l4758
  1881  0014AE                     u3270:
  1882  0014AE                     
  1883                           ; BSR set to: 0
  1884                           ;C:\Program Files\Microchip\xc8\v2.36\pic\sources\c99\common\doprnt.c: 296:         n = 
      +                          -n;
  1885  0014AE  1F9B               	comf	(dtoa@n+7)& (0+255),f,b
  1886  0014B0  1F9A               	comf	(dtoa@n+6)& (0+255),f,b
  1887  0014B2  1F99               	comf	(dtoa@n+5)& (0+255),f,b
  1888  0014B4  1F98               	comf	(dtoa@n+4)& (0+255),f,b
  1889  0014B6  1F97               	comf	(dtoa@n+3)& (0+255),f,b
  1890  0014B8  1F96               	comf	(dtoa@n+2)& (0+255),f,b
  1891  0014BA  1F95               	comf	(dtoa@n+1)& (0+255),f,b
  1892  0014BC  6D94               	negf	dtoa@n& (0+255),b
  1893  0014BE  0E00               	movlw	0
  1894  0014C0  2395               	addwfc	(dtoa@n+1)& (0+255),f,b
  1895  0014C2  2396               	addwfc	(dtoa@n+2)& (0+255),f,b
  1896  0014C4  2397               	addwfc	(dtoa@n+3)& (0+255),f,b
  1897  0014C6  2398               	addwfc	(dtoa@n+4)& (0+255),f,b
  1898  0014C8  2399               	addwfc	(dtoa@n+5)& (0+255),f,b
  1899  0014CA  239A               	addwfc	(dtoa@n+6)& (0+255),f,b
  1900  0014CC  239B               	addwfc	(dtoa@n+7)& (0+255),f,b
  1901  0014CE                     l4758:
  1902                           
  1903                           ; BSR set to: 0
  1904                           ;C:\Program Files\Microchip\xc8\v2.36\pic\sources\c99\common\doprnt.c: 300:     if (!(pr
      +                          ec < 0)) {
  1905  0014CE  BFD5               	btfsc	(_prec+1)& (0+255),7,b
  1906  0014D0  EF6C  F00A         	goto	u3281
  1907  0014D4  EF6E  F00A         	goto	u3280
  1908  0014D8                     u3281:
  1909  0014D8  EF6F  F00A         	goto	l4762
  1910  0014DC                     u3280:
  1911  0014DC                     
  1912                           ; BSR set to: 0
  1913                           ;C:\Program Files\Microchip\xc8\v2.36\pic\sources\c99\common\doprnt.c: 301:         flag
      +                          s &= ~(1 << 1);
  1914  0014DC  9223               	bcf	_flags^0,1,c
  1915  0014DE                     l4762:
  1916                           
  1917                           ; BSR set to: 0
  1918                           ;C:\Program Files\Microchip\xc8\v2.36\pic\sources\c99\common\doprnt.c: 303:     p = (0 <
      +                           prec) ? prec : 1;
  1919  0014DE  BFD5               	btfsc	(_prec+1)& (0+255),7,b
  1920  0014E0  EF7C  F00A         	goto	u3290
  1921  0014E4  51D5               	movf	(_prec+1)& (0+255),w,b
  1922  0014E6  E106               	bnz	u3291
  1923  0014E8  05D4               	decf	_prec& (0+255),w,b
  1924  0014EA  B0D8               	btfsc	status,0,c
  1925  0014EC  EF7A  F00A         	goto	u3291
  1926  0014F0  EF7C  F00A         	goto	u3290
  1927  0014F4                     u3291:
  1928  0014F4  EF82  F00A         	goto	l1987
  1929  0014F8                     u3290:
  1930  0014F8                     
  1931                           ; BSR set to: 0
  1932  0014F8  0E00               	movlw	0
  1933  0014FA  6F8F               	movwf	(dtoa@p+1)& (0+255),b
  1934  0014FC  0E01               	movlw	1
  1935  0014FE  6F8E               	movwf	dtoa@p& (0+255),b
  1936  001500  EF86  F00A         	goto	l1989
  1937  001504                     l1987:
  1938                           
  1939                           ; BSR set to: 0
  1940  001504  C0D4  F08E         	movff	_prec,dtoa@p
  1941  001508  C0D5  F08F         	movff	_prec+1,dtoa@p+1
  1942  00150C                     l1989:
  1943                           
  1944                           ; BSR set to: 0
  1945                           ;C:\Program Files\Microchip\xc8\v2.36\pic\sources\c99\common\doprnt.c: 304:     w = widt
      +                          h;
  1946  00150C  C0D2  F090         	movff	_width,dtoa@w
  1947  001510  C0D3  F091         	movff	_width+1,dtoa@w+1
  1948  001514                     
  1949                           ; BSR set to: 0
  1950                           ;C:\Program Files\Microchip\xc8\v2.36\pic\sources\c99\common\doprnt.c: 305:     if (s ||
      +                           (flags & (1 << 2))) {
  1951  001514  5192               	movf	dtoa@s& (0+255),w,b
  1952  001516  1193               	iorwf	(dtoa@s+1)& (0+255),w,b
  1953  001518  A4D8               	btfss	status,2,c
  1954  00151A  EF91  F00A         	goto	u3301
  1955  00151E  EF93  F00A         	goto	u3300
  1956  001522                     u3301:
  1957  001522  EF9A  F00A         	goto	l4770
  1958  001526                     u3300:
  1959  001526                     
  1960                           ; BSR set to: 0
  1961  001526  A423               	btfss	_flags^0,2,c
  1962  001528  EF98  F00A         	goto	u3311
  1963  00152C  EF9A  F00A         	goto	u3310
  1964  001530                     u3311:
  1965  001530  EF9D  F00A         	goto	l4772
  1966  001534                     u3310:
  1967  001534                     l4770:
  1968                           
  1969                           ; BSR set to: 0
  1970                           ;C:\Program Files\Microchip\xc8\v2.36\pic\sources\c99\common\doprnt.c: 306:         --w;
  1971  001534  0790               	decf	dtoa@w& (0+255),f,b
  1972  001536  A0D8               	btfss	status,0,c
  1973  001538  0791               	decf	(dtoa@w+1)& (0+255),f,b
  1974  00153A                     l4772:
  1975                           
  1976                           ; BSR set to: 0
  1977                           ;C:\Program Files\Microchip\xc8\v2.36\pic\sources\c99\common\doprnt.c: 310:     i = size
      +                          of(dbuf) - 1;
  1978  00153A  0E00               	movlw	0
  1979  00153C  6F9D               	movwf	(dtoa@i+1)& (0+255),b
  1980  00153E  0E1F               	movlw	31
  1981  001540  6F9C               	movwf	dtoa@i& (0+255),b
  1982  001542                     
  1983                           ; BSR set to: 0
  1984                           ;C:\Program Files\Microchip\xc8\v2.36\pic\sources\c99\common\doprnt.c: 311:     dbuf[i] 
      +                          = '\0';
  1985  001542  0E00               	movlw	0
  1986  001544  0101               	movlb	1	; () banked
  1987  001546  6F1F               	movwf	(_dbuf+31)& (0+255),b
  1988                           
  1989                           ;C:\Program Files\Microchip\xc8\v2.36\pic\sources\c99\common\doprnt.c: 312:     while (!
      +                          (i < 1) && (n || (0 < p) || ((0 < w) && (flags & (1 << 1))))) {
  1990  001548  EF23  F00B         	goto	l4786
  1991  00154C                     l4776:
  1992                           
  1993                           ; BSR set to: 0
  1994                           ;C:\Program Files\Microchip\xc8\v2.36\pic\sources\c99\common\doprnt.c: 313:         --i;
  1995  00154C  079C               	decf	dtoa@i& (0+255),f,b
  1996  00154E  A0D8               	btfss	status,0,c
  1997  001550  079D               	decf	(dtoa@i+1)& (0+255),f,b
  1998  001552                     
  1999                           ; BSR set to: 0
  2000                           ;C:\Program Files\Microchip\xc8\v2.36\pic\sources\c99\common\doprnt.c: 314:         dbuf
      +                          [i] = (char)((int)'0' + abs(n % 10));
  2001  001552  0E00               	movlw	low _dbuf
  2002  001554  259C               	addwf	dtoa@i& (0+255),w,b
  2003  001556  6ED9               	movwf	fsr2l,c
  2004  001558  0E01               	movlw	high _dbuf
  2005  00155A  219D               	addwfc	(dtoa@i+1)& (0+255),w,b
  2006  00155C  6EDA               	movwf	fsr2h,c
  2007  00155E  C094  F060         	movff	dtoa@n,___aomod@dividend
  2008  001562  C095  F061         	movff	dtoa@n+1,___aomod@dividend+1
  2009  001566  C096  F062         	movff	dtoa@n+2,___aomod@dividend+2
  2010  00156A  C097  F063         	movff	dtoa@n+3,___aomod@dividend+3
  2011  00156E  C098  F064         	movff	dtoa@n+4,___aomod@dividend+4
  2012  001572  C099  F065         	movff	dtoa@n+5,___aomod@dividend+5
  2013  001576  C09A  F066         	movff	dtoa@n+6,___aomod@dividend+6
  2014  00157A  C09B  F067         	movff	dtoa@n+7,___aomod@dividend+7
  2015  00157E  0E0A               	movlw	10
  2016  001580  6F68               	movwf	___aomod@divisor& (0+255),b
  2017  001582  0E00               	movlw	0
  2018  001584  6F69               	movwf	(___aomod@divisor+1)& (0+255),b
  2019  001586  0E00               	movlw	0
  2020  001588  6F6A               	movwf	(___aomod@divisor+2)& (0+255),b
  2021  00158A  0E00               	movlw	0
  2022  00158C  6F6B               	movwf	(___aomod@divisor+3)& (0+255),b
  2023  00158E  0E00               	movlw	0
  2024  001590  6F6C               	movwf	(___aomod@divisor+4)& (0+255),b
  2025  001592  0E00               	movlw	0
  2026  001594  6F6D               	movwf	(___aomod@divisor+5)& (0+255),b
  2027  001596  0E00               	movlw	0
  2028  001598  6F6E               	movwf	(___aomod@divisor+6)& (0+255),b
  2029  00159A  0E00               	movlw	0
  2030  00159C  6F6F               	movwf	(___aomod@divisor+7)& (0+255),b
  2031  00159E  EC51  F00F         	call	___aomod	;wreg free
  2032  0015A2  C060  F084         	movff	?___aomod,??_dtoa
  2033  0015A6  C061  F085         	movff	?___aomod+1,??_dtoa+1
  2034  0015AA  C062  F086         	movff	?___aomod+2,??_dtoa+2
  2035  0015AE  C063  F087         	movff	?___aomod+3,??_dtoa+3
  2036  0015B2  C064  F088         	movff	?___aomod+4,??_dtoa+4
  2037  0015B6  C065  F089         	movff	?___aomod+5,??_dtoa+5
  2038  0015BA  C066  F08A         	movff	?___aomod+6,??_dtoa+6
  2039  0015BE  C067  F08B         	movff	?___aomod+7,??_dtoa+7
  2040  0015C2  C084  F070         	movff	??_dtoa,abs@a
  2041  0015C6  C086  F071         	movff	??_dtoa+2,abs@a+1
  2042  0015CA  EC05  F017         	call	_abs	;wreg free
  2043  0015CE  0100               	movlb	0	; () banked
  2044  0015D0  5170               	movf	?_abs& (0+255),w,b
  2045  0015D2  0F30               	addlw	48
  2046  0015D4  6EDF               	movwf	indf2,c
  2047  0015D6                     
  2048                           ; BSR set to: 0
  2049                           ;C:\Program Files\Microchip\xc8\v2.36\pic\sources\c99\common\doprnt.c: 315:         --p;
  2050  0015D6  078E               	decf	dtoa@p& (0+255),f,b
  2051  0015D8  A0D8               	btfss	status,0,c
  2052  0015DA  078F               	decf	(dtoa@p+1)& (0+255),f,b
  2053  0015DC                     
  2054                           ; BSR set to: 0
  2055                           ;C:\Program Files\Microchip\xc8\v2.36\pic\sources\c99\common\doprnt.c: 316:         --w;
  2056  0015DC  0790               	decf	dtoa@w& (0+255),f,b
  2057  0015DE  A0D8               	btfss	status,0,c
  2058  0015E0  0791               	decf	(dtoa@w+1)& (0+255),f,b
  2059  0015E2                     
  2060                           ; BSR set to: 0
  2061                           ;C:\Program Files\Microchip\xc8\v2.36\pic\sources\c99\common\doprnt.c: 317:         n = 
      +                          n / 10;
  2062  0015E2  C094  F060         	movff	dtoa@n,___aodiv@dividend
  2063  0015E6  C095  F061         	movff	dtoa@n+1,___aodiv@dividend+1
  2064  0015EA  C096  F062         	movff	dtoa@n+2,___aodiv@dividend+2
  2065  0015EE  C097  F063         	movff	dtoa@n+3,___aodiv@dividend+3
  2066  0015F2  C098  F064         	movff	dtoa@n+4,___aodiv@dividend+4
  2067  0015F6  C099  F065         	movff	dtoa@n+5,___aodiv@dividend+5
  2068  0015FA  C09A  F066         	movff	dtoa@n+6,___aodiv@dividend+6
  2069  0015FE  C09B  F067         	movff	dtoa@n+7,___aodiv@dividend+7
  2070  001602  0E0A               	movlw	10
  2071  001604  6F68               	movwf	___aodiv@divisor& (0+255),b
  2072  001606  0E00               	movlw	0
  2073  001608  6F69               	movwf	(___aodiv@divisor+1)& (0+255),b
  2074  00160A  0E00               	movlw	0
  2075  00160C  6F6A               	movwf	(___aodiv@divisor+2)& (0+255),b
  2076  00160E  0E00               	movlw	0
  2077  001610  6F6B               	movwf	(___aodiv@divisor+3)& (0+255),b
  2078  001612  0E00               	movlw	0
  2079  001614  6F6C               	movwf	(___aodiv@divisor+4)& (0+255),b
  2080  001616  0E00               	movlw	0
  2081  001618  6F6D               	movwf	(___aodiv@divisor+5)& (0+255),b
  2082  00161A  0E00               	movlw	0
  2083  00161C  6F6E               	movwf	(___aodiv@divisor+6)& (0+255),b
  2084  00161E  0E00               	movlw	0
  2085  001620  6F6F               	movwf	(___aodiv@divisor+7)& (0+255),b
  2086  001622  EC8C  F00E         	call	___aodiv	;wreg free
  2087  001626  C060  F094         	movff	?___aodiv,dtoa@n
  2088  00162A  C061  F095         	movff	?___aodiv+1,dtoa@n+1
  2089  00162E  C062  F096         	movff	?___aodiv+2,dtoa@n+2
  2090  001632  C063  F097         	movff	?___aodiv+3,dtoa@n+3
  2091  001636  C064  F098         	movff	?___aodiv+4,dtoa@n+4
  2092  00163A  C065  F099         	movff	?___aodiv+5,dtoa@n+5
  2093  00163E  C066  F09A         	movff	?___aodiv+6,dtoa@n+6
  2094  001642  C067  F09B         	movff	?___aodiv+7,dtoa@n+7
  2095  001646                     l4786:
  2096                           
  2097                           ;C:\Program Files\Microchip\xc8\v2.36\pic\sources\c99\common\doprnt.c: 312:     while (!
      +                          (i < 1) && (n || (0 < p) || ((0 < w) && (flags & (1 << 1))))) {
  2098  001646  0100               	movlb	0	; () banked
  2099  001648  BF9D               	btfsc	(dtoa@i+1)& (0+255),7,b
  2100  00164A  EF2F  F00B         	goto	u3321
  2101  00164E  519D               	movf	(dtoa@i+1)& (0+255),w,b
  2102  001650  E108               	bnz	u3320
  2103  001652  059C               	decf	dtoa@i& (0+255),w,b
  2104  001654  A0D8               	btfss	status,0,c
  2105  001656  EF2F  F00B         	goto	u3321
  2106  00165A  EF31  F00B         	goto	u3320
  2107  00165E                     u3321:
  2108  00165E  EF61  F00B         	goto	l4796
  2109  001662                     u3320:
  2110  001662                     
  2111                           ; BSR set to: 0
  2112  001662  5194               	movf	dtoa@n& (0+255),w,b
  2113  001664  1195               	iorwf	(dtoa@n+1)& (0+255),w,b
  2114  001666  1196               	iorwf	(dtoa@n+2)& (0+255),w,b
  2115  001668  1197               	iorwf	(dtoa@n+3)& (0+255),w,b
  2116  00166A  1198               	iorwf	(dtoa@n+4)& (0+255),w,b
  2117  00166C  1199               	iorwf	(dtoa@n+5)& (0+255),w,b
  2118  00166E  119A               	iorwf	(dtoa@n+6)& (0+255),w,b
  2119  001670  119B               	iorwf	(dtoa@n+7)& (0+255),w,b
  2120  001672  A4D8               	btfss	status,2,c
  2121  001674  EF3E  F00B         	goto	u3331
  2122  001678  EF40  F00B         	goto	u3330
  2123  00167C                     u3331:
  2124  00167C  EFA6  F00A         	goto	l4776
  2125  001680                     u3330:
  2126  001680                     
  2127                           ; BSR set to: 0
  2128  001680  BF8F               	btfsc	(dtoa@p+1)& (0+255),7,b
  2129  001682  EF4D  F00B         	goto	u3340
  2130  001686  518F               	movf	(dtoa@p+1)& (0+255),w,b
  2131  001688  E106               	bnz	u3341
  2132  00168A  058E               	decf	dtoa@p& (0+255),w,b
  2133  00168C  B0D8               	btfsc	status,0,c
  2134  00168E  EF4B  F00B         	goto	u3341
  2135  001692  EF4D  F00B         	goto	u3340
  2136  001696                     u3341:
  2137  001696  EFA6  F00A         	goto	l4776
  2138  00169A                     u3340:
  2139  00169A                     
  2140                           ; BSR set to: 0
  2141  00169A  BF91               	btfsc	(dtoa@w+1)& (0+255),7,b
  2142  00169C  EF58  F00B         	goto	u3351
  2143  0016A0  5191               	movf	(dtoa@w+1)& (0+255),w,b
  2144  0016A2  E108               	bnz	u3350
  2145  0016A4  0590               	decf	dtoa@w& (0+255),w,b
  2146  0016A6  A0D8               	btfss	status,0,c
  2147  0016A8  EF58  F00B         	goto	u3351
  2148  0016AC  EF5A  F00B         	goto	u3350
  2149  0016B0                     u3351:
  2150  0016B0  EF61  F00B         	goto	l4796
  2151  0016B4                     u3350:
  2152  0016B4                     
  2153                           ; BSR set to: 0
  2154  0016B4  B223               	btfsc	_flags^0,1,c
  2155  0016B6  EF5F  F00B         	goto	u3361
  2156  0016BA  EF61  F00B         	goto	u3360
  2157  0016BE                     u3361:
  2158  0016BE  EFA6  F00A         	goto	l4776
  2159  0016C2                     u3360:
  2160  0016C2                     l4796:
  2161                           
  2162                           ; BSR set to: 0
  2163                           ;C:\Program Files\Microchip\xc8\v2.36\pic\sources\c99\common\doprnt.c: 321:     if (s ||
      +                           (flags & (1 << 2))) {
  2164  0016C2  5192               	movf	dtoa@s& (0+255),w,b
  2165  0016C4  1193               	iorwf	(dtoa@s+1)& (0+255),w,b
  2166  0016C6  A4D8               	btfss	status,2,c
  2167  0016C8  EF68  F00B         	goto	u3371
  2168  0016CC  EF6A  F00B         	goto	u3370
  2169  0016D0                     u3371:
  2170  0016D0  EF71  F00B         	goto	l4800
  2171  0016D4                     u3370:
  2172  0016D4                     
  2173                           ; BSR set to: 0
  2174  0016D4  A423               	btfss	_flags^0,2,c
  2175  0016D6  EF6F  F00B         	goto	u3381
  2176  0016DA  EF71  F00B         	goto	u3380
  2177  0016DE                     u3381:
  2178  0016DE  EF90  F00B         	goto	l4810
  2179  0016E2                     u3380:
  2180  0016E2                     l4800:
  2181                           
  2182                           ; BSR set to: 0
  2183                           ;C:\Program Files\Microchip\xc8\v2.36\pic\sources\c99\common\doprnt.c: 322:         --i;
  2184  0016E2  079C               	decf	dtoa@i& (0+255),f,b
  2185  0016E4  A0D8               	btfss	status,0,c
  2186  0016E6  079D               	decf	(dtoa@i+1)& (0+255),f,b
  2187  0016E8                     
  2188                           ; BSR set to: 0
  2189                           ;C:\Program Files\Microchip\xc8\v2.36\pic\sources\c99\common\doprnt.c: 323:         dbuf
      +                          [i] = s ? '-' : '+';
  2190  0016E8  5192               	movf	dtoa@s& (0+255),w,b
  2191  0016EA  1193               	iorwf	(dtoa@s+1)& (0+255),w,b
  2192  0016EC  A4D8               	btfss	status,2,c
  2193  0016EE  EF7B  F00B         	goto	u3391
  2194  0016F2  EF7D  F00B         	goto	u3390
  2195  0016F6                     u3391:
  2196  0016F6  EF83  F00B         	goto	l4806
  2197  0016FA                     u3390:
  2198  0016FA                     
  2199                           ; BSR set to: 0
  2200  0016FA  0E00               	movlw	0
  2201  0016FC  6F8D               	movwf	(_dtoa$3416+1)& (0+255),b
  2202  0016FE  0E2B               	movlw	43
  2203  001700  6F8C               	movwf	_dtoa$3416& (0+255),b
  2204  001702  EF87  F00B         	goto	l4808
  2205  001706                     l4806:
  2206                           
  2207                           ; BSR set to: 0
  2208  001706  0E00               	movlw	0
  2209  001708  6F8D               	movwf	(_dtoa$3416+1)& (0+255),b
  2210  00170A  0E2D               	movlw	45
  2211  00170C  6F8C               	movwf	_dtoa$3416& (0+255),b
  2212  00170E                     l4808:
  2213                           
  2214                           ; BSR set to: 0
  2215  00170E  0E00               	movlw	low _dbuf
  2216  001710  259C               	addwf	dtoa@i& (0+255),w,b
  2217  001712  6ED9               	movwf	fsr2l,c
  2218  001714  0E01               	movlw	high _dbuf
  2219  001716  219D               	addwfc	(dtoa@i+1)& (0+255),w,b
  2220  001718  6EDA               	movwf	fsr2h,c
  2221  00171A  0060  F233  FFDF   	movff	_dtoa$3416,indf2
  2222  001720                     l4810:
  2223                           
  2224                           ; BSR set to: 0
  2225                           ;C:\Program Files\Microchip\xc8\v2.36\pic\sources\c99\common\doprnt.c: 327:     return p
      +                          ad(fp, &dbuf[i], w);
  2226  001720  C07A  F070         	movff	dtoa@fp,pad@fp
  2227  001724  C07B  F071         	movff	dtoa@fp+1,pad@fp+1
  2228  001728  0E00               	movlw	low _dbuf
  2229  00172A  259C               	addwf	dtoa@i& (0+255),w,b
  2230  00172C  6F72               	movwf	pad@buf& (0+255),b
  2231  00172E  0E01               	movlw	high _dbuf
  2232  001730  219D               	addwfc	(dtoa@i+1)& (0+255),w,b
  2233  001732  6F73               	movwf	(pad@buf+1)& (0+255),b
  2234  001734  C090  F074         	movff	dtoa@w,pad@p
  2235  001738  C091  F075         	movff	dtoa@w+1,pad@p+1
  2236  00173C  ECE7  F011         	call	_pad	;wreg free
  2237  001740  C070  F07A         	movff	?_pad,?_dtoa
  2238  001744  C071  F07B         	movff	?_pad+1,?_dtoa+1
  2239  001748  0012               	return		;funcret
  2240  00174A                     __end_of_dtoa:
  2241                           	callstack 0
  2242                           
  2243 ;; *************** function _pad *****************
  2244 ;; Defined at:
  2245 ;;		line 72 in file "C:\Program Files\Microchip\xc8\v2.36\pic\sources\c99\common\doprnt.c"
  2246 ;; Parameters:    Size  Location     Type
  2247 ;;  fp              2   16[BANK0 ] PTR struct _IO_FILE
  2248 ;;		 -> NULL(0), 
  2249 ;;  buf             2   18[BANK0 ] PTR unsigned char 
  2250 ;;		 -> dbuf(32), 
  2251 ;;  p               2   20[BANK0 ] int 
  2252 ;; Auto vars:     Size  Location     Type
  2253 ;;  w               2   24[BANK0 ] int 
  2254 ;;  i               2   22[BANK0 ] int 
  2255 ;; Return value:  Size  Location     Type
  2256 ;;                  2   16[BANK0 ] int 
  2257 ;; Registers used:
  2258 ;;		wreg, fsr1l, fsr1h, fsr2l, fsr2h, status,2, status,0, cstack
  2259 ;; Tracked objects:
  2260 ;;		On entry : 0/0
  2261 ;;		On exit  : 0/0
  2262 ;;		Unchanged: 0/0
  2263 ;; Data sizes:     COMRAM   BANK0   BANK1   BANK2   BANK3   BANK4   BANK5   BANK6   BANK7   BANK8   BANK9  BANK10  BANK1
      +1  BANK12  BANK13  BANK14  BANK15
  2264 ;;      Params:         0       6       0       0       0       0       0       0       0       0       0       0       
      +0       0       0       0       0
  2265 ;;      Locals:         0       4       0       0       0       0       0       0       0       0       0       0       
      +0       0       0       0       0
  2266 ;;      Temps:          1       0       0       0       0       0       0       0       0       0       0       0       
      +0       0       0       0       0
  2267 ;;      Totals:         1      10       0       0       0       0       0       0       0       0       0       0       
      +0       0       0       0       0
  2268 ;;Total ram usage:       11 bytes
  2269 ;; Hardware stack levels used: 1
  2270 ;; Hardware stack levels required when called: 12
  2271 ;; This function calls:
  2272 ;;		_fputc
  2273 ;;		_fputs
  2274 ;;		_strlen
  2275 ;; This function is called by:
  2276 ;;		_dtoa
  2277 ;; This function uses a non-reentrant model
  2278 ;;
  2279                           
  2280                           	psect	text7
  2281  0023CE                     __ptext7:
  2282                           	callstack 0
  2283  0023CE                     _pad:
  2284                           	callstack 13
  2285  0023CE                     
  2286                           ;C:\Program Files\Microchip\xc8\v2.36\pic\sources\c99\common\doprnt.c: 72: static int pa
      +                          d(FILE *fp, char *buf, int p);C:\Program Files\Microchip\xc8\v2.36\pic\sources\c99\commo
      +                          n\doprnt.c: 73: {;C:\Program Files\Microchip\xc8\v2.36\pic\sources\c99\common\doprnt.c: 
      +                          74:     int i, w;;C:\Program Files\Microchip\xc8\v2.36\pic\sources\c99\common\doprnt.c: 
      +                          77:     if (flags & (1 << 0)) {
  2287  0023CE  A023               	btfss	_flags^0,0,c
  2288  0023D0  EFEC  F011         	goto	u3201
  2289  0023D4  EFEE  F011         	goto	u3200
  2290  0023D8                     u3201:
  2291  0023D8  EFF8  F011         	goto	l4730
  2292  0023DC                     u3200:
  2293  0023DC                     
  2294                           ;C:\Program Files\Microchip\xc8\v2.36\pic\sources\c99\common\doprnt.c: 78:         fputs
      +                          ((const char *)buf, fp);
  2295  0023DC  C072  F069         	movff	pad@buf,fputs@s
  2296  0023E0  C073  F06A         	movff	pad@buf+1,fputs@s+1
  2297  0023E4  C070  F06B         	movff	pad@fp,fputs@fp
  2298  0023E8  C071  F06C         	movff	pad@fp+1,fputs@fp+1
  2299  0023EC  EC9D  F016         	call	_fputs	;wreg free
  2300  0023F0                     l4730:
  2301                           
  2302                           ;C:\Program Files\Microchip\xc8\v2.36\pic\sources\c99\common\doprnt.c: 82:     w = (p < 
      +                          0) ? 0 : p;
  2303  0023F0  0100               	movlb	0	; () banked
  2304  0023F2  BF75               	btfsc	(pad@p+1)& (0+255),7,b
  2305  0023F4  EFFE  F011         	goto	u3211
  2306  0023F8  EF00  F012         	goto	u3210
  2307  0023FC                     u3211:
  2308  0023FC  EF06  F012         	goto	l4734
  2309  002400                     u3210:
  2310  002400                     
  2311                           ; BSR set to: 0
  2312  002400  C074  F078         	movff	pad@p,pad@w
  2313  002404  C075  F079         	movff	pad@p+1,pad@w+1
  2314  002408  EF0A  F012         	goto	l1976
  2315  00240C                     l4734:
  2316                           
  2317                           ; BSR set to: 0
  2318  00240C  0E00               	movlw	0
  2319  00240E  6F79               	movwf	(pad@w+1)& (0+255),b
  2320  002410  0E00               	movlw	0
  2321  002412  6F78               	movwf	pad@w& (0+255),b
  2322  002414                     l1976:
  2323                           
  2324                           ; BSR set to: 0
  2325                           ;C:\Program Files\Microchip\xc8\v2.36\pic\sources\c99\common\doprnt.c: 83:     i = 0;
  2326  002414  0E00               	movlw	0
  2327  002416  6F77               	movwf	(pad@i+1)& (0+255),b
  2328  002418  0E00               	movlw	0
  2329  00241A  6F76               	movwf	pad@i& (0+255),b
  2330                           
  2331                           ;C:\Program Files\Microchip\xc8\v2.36\pic\sources\c99\common\doprnt.c: 84:     while (i 
      +                          < w) {
  2332  00241C  EF1D  F012         	goto	l4740
  2333  002420                     l4736:
  2334                           
  2335                           ; BSR set to: 0
  2336                           ;C:\Program Files\Microchip\xc8\v2.36\pic\sources\c99\common\doprnt.c: 85:         fputc
      +                          (' ', fp);
  2337  002420  0E00               	movlw	0
  2338  002422  6F61               	movwf	(fputc@c+1)& (0+255),b
  2339  002424  0E20               	movlw	32
  2340  002426  6F60               	movwf	fputc@c& (0+255),b
  2341  002428  C070  F062         	movff	pad@fp,fputc@fp
  2342  00242C  C071  F063         	movff	pad@fp+1,fputc@fp+1
  2343  002430  ECAD  F013         	call	_fputc	;wreg free
  2344  002434                     
  2345                           ;C:\Program Files\Microchip\xc8\v2.36\pic\sources\c99\common\doprnt.c: 86:         ++i;
  2346  002434  0100               	movlb	0	; () banked
  2347  002436  4B76               	infsnz	pad@i& (0+255),f,b
  2348  002438  2B77               	incf	(pad@i+1)& (0+255),f,b
  2349  00243A                     l4740:
  2350                           
  2351                           ; BSR set to: 0
  2352                           ;C:\Program Files\Microchip\xc8\v2.36\pic\sources\c99\common\doprnt.c: 84:     while (i 
      +                          < w) {
  2353  00243A  5178               	movf	pad@w& (0+255),w,b
  2354  00243C  5D76               	subwf	pad@i& (0+255),w,b
  2355  00243E  5177               	movf	(pad@i+1)& (0+255),w,b
  2356  002440  0A80               	xorlw	128
  2357  002442  6E22               	movwf	??_pad^0,c
  2358  002444  5179               	movf	(pad@w+1)& (0+255),w,b
  2359  002446  0A80               	xorlw	128
  2360  002448  5822               	subwfb	??_pad^0,w,c
  2361  00244A  A0D8               	btfss	status,0,c
  2362  00244C  EF2A  F012         	goto	u3221
  2363  002450  EF2C  F012         	goto	u3220
  2364  002454                     u3221:
  2365  002454  EF10  F012         	goto	l4736
  2366  002458                     u3220:
  2367  002458                     
  2368                           ; BSR set to: 0
  2369                           ;C:\Program Files\Microchip\xc8\v2.36\pic\sources\c99\common\doprnt.c: 90:     if (!(fla
      +                          gs & (1 << 0))) {
  2370  002458  B023               	btfsc	_flags^0,0,c
  2371  00245A  EF31  F012         	goto	u3231
  2372  00245E  EF33  F012         	goto	u3230
  2373  002462                     u3231:
  2374  002462  EF3D  F012         	goto	l4744
  2375  002466                     u3230:
  2376  002466                     
  2377                           ; BSR set to: 0
  2378                           ;C:\Program Files\Microchip\xc8\v2.36\pic\sources\c99\common\doprnt.c: 91:         fputs
      +                          ((const char *)buf, fp);
  2379  002466  C072  F069         	movff	pad@buf,fputs@s
  2380  00246A  C073  F06A         	movff	pad@buf+1,fputs@s+1
  2381  00246E  C070  F06B         	movff	pad@fp,fputs@fp
  2382  002472  C071  F06C         	movff	pad@fp+1,fputs@fp+1
  2383  002476  EC9D  F016         	call	_fputs	;wreg free
  2384  00247A                     l4744:
  2385                           
  2386                           ;C:\Program Files\Microchip\xc8\v2.36\pic\sources\c99\common\doprnt.c: 94:     return (i
      +                          nt)(strlen(buf) + (size_t)w);
  2387  00247A  C072  F020         	movff	pad@buf,strlen@s
  2388  00247E  C073  F021         	movff	pad@buf+1,strlen@s+1
  2389  002482  EC26  F017         	call	_strlen	;wreg free
  2390  002486  0100               	movlb	0	; () banked
  2391  002488  5178               	movf	pad@w& (0+255),w,b
  2392  00248A  2420               	addwf	?_strlen^0,w,c
  2393  00248C  6F70               	movwf	?_pad& (0+255),b
  2394  00248E  5179               	movf	(pad@w+1)& (0+255),w,b
  2395  002490  2021               	addwfc	(?_strlen+1)^0,w,c
  2396  002492  6F71               	movwf	(?_pad+1)& (0+255),b
  2397  002494                     
  2398                           ; BSR set to: 0
  2399  002494  0012               	return		;funcret
  2400  002496                     __end_of_pad:
  2401                           	callstack 0
  2402                           
  2403 ;; *************** function _strlen *****************
  2404 ;; Defined at:
  2405 ;;		line 5 in file "C:\Program Files\Microchip\xc8\v2.36\pic\sources\c99\common\strlen.c"
  2406 ;; Parameters:    Size  Location     Type
  2407 ;;  s               2   31[COMRAM] PTR const unsigned char 
  2408 ;;		 -> dbuf(32), 
  2409 ;; Auto vars:     Size  Location     Type
  2410 ;;  a               2    0[BANK0 ] PTR const unsigned char 
  2411 ;;		 -> dbuf(32), 
  2412 ;; Return value:  Size  Location     Type
  2413 ;;                  2   31[COMRAM] unsigned int 
  2414 ;; Registers used:
  2415 ;;		wreg, fsr2l, fsr2h, status,2, status,0
  2416 ;; Tracked objects:
  2417 ;;		On entry : 0/0
  2418 ;;		On exit  : 0/0
  2419 ;;		Unchanged: 0/0
  2420 ;; Data sizes:     COMRAM   BANK0   BANK1   BANK2   BANK3   BANK4   BANK5   BANK6   BANK7   BANK8   BANK9  BANK10  BANK1
      +1  BANK12  BANK13  BANK14  BANK15
  2421 ;;      Params:         2       0       0       0       0       0       0       0       0       0       0       0       
      +0       0       0       0       0
  2422 ;;      Locals:         0       2       0       0       0       0       0       0       0       0       0       0       
      +0       0       0       0       0
  2423 ;;      Temps:          0       0       0       0       0       0       0       0       0       0       0       0       
      +0       0       0       0       0
  2424 ;;      Totals:         2       2       0       0       0       0       0       0       0       0       0       0       
      +0       0       0       0       0
  2425 ;;Total ram usage:        4 bytes
  2426 ;; Hardware stack levels used: 1
  2427 ;; Hardware stack levels required when called: 8
  2428 ;; This function calls:
  2429 ;;		Nothing
  2430 ;; This function is called by:
  2431 ;;		_pad
  2432 ;; This function uses a non-reentrant model
  2433 ;;
  2434                           
  2435                           	psect	text8
  2436  002E4C                     __ptext8:
  2437                           	callstack 0
  2438  002E4C                     _strlen:
  2439                           	callstack 16
  2440  002E4C  C020  F060         	movff	strlen@s,strlen@a
  2441  002E50  C021  F061         	movff	strlen@s+1,strlen@a+1
  2442  002E54  EF2E  F017         	goto	l4640
  2443  002E58                     l4638:
  2444  002E58  4A20               	infsnz	strlen@s^0,f,c
  2445  002E5A  2A21               	incf	(strlen@s+1)^0,f,c
  2446  002E5C                     l4640:
  2447  002E5C  0060  F083  FFD9   	movff	strlen@s,fsr2l
  2448  002E62  0060  F087  FFDA   	movff	strlen@s+1,fsr2h
  2449  002E68  50DF               	movf	indf2,w,c
  2450  002E6A  A4D8               	btfss	status,2,c
  2451  002E6C  EF3A  F017         	goto	u3061
  2452  002E70  EF3C  F017         	goto	u3060
  2453  002E74                     u3061:
  2454  002E74  EF2C  F017         	goto	l4638
  2455  002E78                     u3060:
  2456  002E78  0100               	movlb	0	; () banked
  2457  002E7A  5160               	movf	strlen@a& (0+255),w,b
  2458  002E7C  5C20               	subwf	strlen@s^0,w,c
  2459  002E7E  6E20               	movwf	?_strlen^0,c
  2460  002E80  5161               	movf	(strlen@a+1)& (0+255),w,b
  2461  002E82  5821               	subwfb	(strlen@s+1)^0,w,c
  2462  002E84  6E21               	movwf	(?_strlen+1)^0,c
  2463  002E86                     
  2464                           ; BSR set to: 0
  2465  002E86  0012               	return		;funcret
  2466  002E88                     __end_of_strlen:
  2467                           	callstack 0
  2468                           
  2469 ;; *************** function _fputs *****************
  2470 ;; Defined at:
  2471 ;;		line 8 in file "C:\Program Files\Microchip\xc8\v2.36\pic\sources\c99\common\nf_fputs.c"
  2472 ;; Parameters:    Size  Location     Type
  2473 ;;  s               2    9[BANK0 ] PTR const unsigned char 
  2474 ;;		 -> dbuf(32), 
  2475 ;;  fp              2   11[BANK0 ] PTR struct _IO_FILE
  2476 ;;		 -> NULL(0), 
  2477 ;; Auto vars:     Size  Location     Type
  2478 ;;  i               2   14[BANK0 ] int 
  2479 ;;  c               1   13[BANK0 ] unsigned char 
  2480 ;; Return value:  Size  Location     Type
  2481 ;;                  2    9[BANK0 ] int 
  2482 ;; Registers used:
  2483 ;;		wreg, fsr1l, fsr1h, fsr2l, fsr2h, status,2, status,0, cstack
  2484 ;; Tracked objects:
  2485 ;;		On entry : 0/0
  2486 ;;		On exit  : 0/0
  2487 ;;		Unchanged: 0/0
  2488 ;; Data sizes:     COMRAM   BANK0   BANK1   BANK2   BANK3   BANK4   BANK5   BANK6   BANK7   BANK8   BANK9  BANK10  BANK1
      +1  BANK12  BANK13  BANK14  BANK15
  2489 ;;      Params:         0       4       0       0       0       0       0       0       0       0       0       0       
      +0       0       0       0       0
  2490 ;;      Locals:         0       3       0       0       0       0       0       0       0       0       0       0       
      +0       0       0       0       0
  2491 ;;      Temps:          0       0       0       0       0       0       0       0       0       0       0       0       
      +0       0       0       0       0
  2492 ;;      Totals:         0       7       0       0       0       0       0       0       0       0       0       0       
      +0       0       0       0       0
  2493 ;;Total ram usage:        7 bytes
  2494 ;; Hardware stack levels used: 1
  2495 ;; Hardware stack levels required when called: 11
  2496 ;; This function calls:
  2497 ;;		_fputc
  2498 ;; This function is called by:
  2499 ;;		_pad
  2500 ;; This function uses a non-reentrant model
  2501 ;;
  2502                           
  2503                           	psect	text9
  2504  002D3A                     __ptext9:
  2505                           	callstack 0
  2506  002D3A                     _fputs:
  2507                           	callstack 13
  2508  002D3A  0E00               	movlw	0
  2509  002D3C  0100               	movlb	0	; () banked
  2510  002D3E  6F6F               	movwf	(fputs@i+1)& (0+255),b
  2511  002D40  0E00               	movlw	0
  2512  002D42  6F6E               	movwf	fputs@i& (0+255),b
  2513  002D44  EFB0  F016         	goto	l4634
  2514  002D48                     l4630:
  2515                           
  2516                           ; BSR set to: 0
  2517  002D48  C06D  F060         	movff	fputs@c,fputc@c
  2518  002D4C  6B61               	clrf	(fputc@c+1)& (0+255),b
  2519  002D4E  C06B  F062         	movff	fputs@fp,fputc@fp
  2520  002D52  C06C  F063         	movff	fputs@fp+1,fputc@fp+1
  2521  002D56  ECAD  F013         	call	_fputc	;wreg free
  2522  002D5A  0100               	movlb	0	; () banked
  2523  002D5C  4B6E               	infsnz	fputs@i& (0+255),f,b
  2524  002D5E  2B6F               	incf	(fputs@i+1)& (0+255),f,b
  2525  002D60                     l4634:
  2526                           
  2527                           ; BSR set to: 0
  2528  002D60  516E               	movf	fputs@i& (0+255),w,b
  2529  002D62  2569               	addwf	fputs@s& (0+255),w,b
  2530  002D64  6ED9               	movwf	fsr2l,c
  2531  002D66  516F               	movf	(fputs@i+1)& (0+255),w,b
  2532  002D68  216A               	addwfc	(fputs@s+1)& (0+255),w,b
  2533  002D6A  6EDA               	movwf	fsr2h,c
  2534  002D6C  50DF               	movf	indf2,w,c
  2535  002D6E  6F6D               	movwf	fputs@c& (0+255),b
  2536  002D70  516D               	movf	fputs@c& (0+255),w,b
  2537  002D72  A4D8               	btfss	status,2,c
  2538  002D74  EFBE  F016         	goto	u3051
  2539  002D78  EFC0  F016         	goto	u3050
  2540  002D7C                     u3051:
  2541  002D7C  EFA4  F016         	goto	l4630
  2542  002D80                     u3050:
  2543  002D80                     
  2544                           ; BSR set to: 0
  2545  002D80  0012               	return		;funcret
  2546  002D82                     __end_of_fputs:
  2547                           	callstack 0
  2548                           
  2549 ;; *************** function _fputc *****************
  2550 ;; Defined at:
  2551 ;;		line 8 in file "C:\Program Files\Microchip\xc8\v2.36\pic\sources\c99\common\nf_fputc.c"
  2552 ;; Parameters:    Size  Location     Type
  2553 ;;  c               2    0[BANK0 ] int 
  2554 ;;  fp              2    2[BANK0 ] PTR struct _IO_FILE
  2555 ;;		 -> NULL(0), 
  2556 ;; Auto vars:     Size  Location     Type
  2557 ;;		None
  2558 ;; Return value:  Size  Location     Type
  2559 ;;                  2    0[BANK0 ] int 
  2560 ;; Registers used:
  2561 ;;		wreg, fsr1l, fsr1h, fsr2l, fsr2h, status,2, status,0, cstack
  2562 ;; Tracked objects:
  2563 ;;		On entry : 0/0
  2564 ;;		On exit  : 0/0
  2565 ;;		Unchanged: 0/0
  2566 ;; Data sizes:     COMRAM   BANK0   BANK1   BANK2   BANK3   BANK4   BANK5   BANK6   BANK7   BANK8   BANK9  BANK10  BANK1
      +1  BANK12  BANK13  BANK14  BANK15
  2567 ;;      Params:         0       4       0       0       0       0       0       0       0       0       0       0       
      +0       0       0       0       0
  2568 ;;      Locals:         0       0       0       0       0       0       0       0       0       0       0       0       
      +0       0       0       0       0
  2569 ;;      Temps:          0       5       0       0       0       0       0       0       0       0       0       0       
      +0       0       0       0       0
  2570 ;;      Totals:         0       9       0       0       0       0       0       0       0       0       0       0       
      +0       0       0       0       0
  2571 ;;Total ram usage:        9 bytes
  2572 ;; Hardware stack levels used: 1
  2573 ;; Hardware stack levels required when called: 10
  2574 ;; This function calls:
  2575 ;;		_putch
  2576 ;; This function is called by:
  2577 ;;		_pad
  2578 ;;		_vfpfcnvrt
  2579 ;;		_fputs
  2580 ;; This function uses a non-reentrant model
  2581 ;;
  2582                           
  2583                           	psect	text10
  2584  00275A                     __ptext10:
  2585                           	callstack 0
  2586  00275A                     _fputc:
  2587                           	callstack 16
  2588  00275A  0100               	movlb	0	; () banked
  2589  00275C  5162               	movf	fputc@fp& (0+255),w,b
  2590  00275E  1163               	iorwf	(fputc@fp+1)& (0+255),w,b
  2591  002760  B4D8               	btfsc	status,2,c
  2592  002762  EFB5  F013         	goto	u3011
  2593  002766  EFB7  F013         	goto	u3010
  2594  00276A                     u3011:
  2595  00276A  EFC0  F013         	goto	l4618
  2596  00276E                     u3010:
  2597  00276E                     
  2598                           ; BSR set to: 0
  2599  00276E  5162               	movf	fputc@fp& (0+255),w,b
  2600  002770  1163               	iorwf	(fputc@fp+1)& (0+255),w,b
  2601  002772  A4D8               	btfss	status,2,c
  2602  002774  EFBE  F013         	goto	u3021
  2603  002778  EFC0  F013         	goto	u3020
  2604  00277C                     u3021:
  2605  00277C  EFC5  F013         	goto	l4620
  2606  002780                     u3020:
  2607  002780                     l4618:
  2608                           
  2609                           ; BSR set to: 0
  2610  002780  5160               	movf	fputc@c& (0+255),w,b
  2611  002782  EC5C  F019         	call	_putch
  2612  002786  EFF8  F013         	goto	l2040
  2613  00278A                     l4620:
  2614                           
  2615                           ; BSR set to: 0
  2616  00278A  EE20 F009          	lfsr	2,9
  2617  00278E  5162               	movf	fputc@fp& (0+255),w,b
  2618  002790  26D9               	addwf	fsr2l,f,c
  2619  002792  5163               	movf	(fputc@fp+1)& (0+255),w,b
  2620  002794  22DA               	addwfc	fsr2h,f,c
  2621  002796  50DE               	movf	postinc2,w,c
  2622  002798  10DE               	iorwf	postinc2,w,c
  2623  00279A  B4D8               	btfsc	status,2,c
  2624  00279C  EFD2  F013         	goto	u3031
  2625  0027A0  EFD4  F013         	goto	u3030
  2626  0027A4                     u3031:
  2627  0027A4  EFEF  F013         	goto	l4624
  2628  0027A8                     u3030:
  2629  0027A8                     
  2630                           ; BSR set to: 0
  2631  0027A8  EE20 F009          	lfsr	2,9
  2632  0027AC  5162               	movf	fputc@fp& (0+255),w,b
  2633  0027AE  26D9               	addwf	fsr2l,f,c
  2634  0027B0  5163               	movf	(fputc@fp+1)& (0+255),w,b
  2635  0027B2  22DA               	addwfc	fsr2h,f,c
  2636  0027B4  EE10 F003          	lfsr	1,3
  2637  0027B8  5162               	movf	fputc@fp& (0+255),w,b
  2638  0027BA  26E1               	addwf	fsr1l,f,c
  2639  0027BC  5163               	movf	(fputc@fp+1)& (0+255),w,b
  2640  0027BE  22E2               	addwfc	fsr1h,f,c
  2641  0027C0  50DE               	movf	postinc2,w,c
  2642  0027C2  5CE6               	subwf	postinc1,w,c
  2643  0027C4  50E6               	movf	postinc1,w,c
  2644  0027C6  0A80               	xorlw	128
  2645  0027C8  6F68               	movwf	(??_fputc+4)& (0+255),b
  2646  0027CA  50DE               	movf	postinc2,w,c
  2647  0027CC  0A80               	xorlw	128
  2648  0027CE  5968               	subwfb	(??_fputc+4)& (0+255),w,b
  2649  0027D0  B0D8               	btfsc	status,0,c
  2650  0027D2  EFED  F013         	goto	u3041
  2651  0027D6  EFEF  F013         	goto	u3040
  2652  0027DA                     u3041:
  2653  0027DA  EFF8  F013         	goto	l2040
  2654  0027DE                     u3040:
  2655  0027DE                     l4624:
  2656                           
  2657                           ; BSR set to: 0
  2658  0027DE  EE20 F003          	lfsr	2,3
  2659  0027E2  5162               	movf	fputc@fp& (0+255),w,b
  2660  0027E4  26D9               	addwf	fsr2l,f,c
  2661  0027E6  5163               	movf	(fputc@fp+1)& (0+255),w,b
  2662  0027E8  22DA               	addwfc	fsr2h,f,c
  2663  0027EA  2ADE               	incf	postinc2,f,c
  2664  0027EC  0E00               	movlw	0
  2665  0027EE  22DD               	addwfc	postdec2,f,c
  2666  0027F0                     l2040:
  2667  0027F0  0012               	return		;funcret
  2668  0027F2                     __end_of_fputc:
  2669                           	callstack 0
  2670                           
  2671 ;; *************** function _putch *****************
  2672 ;; Defined at:
  2673 ;;		line 230 in file "mcc_generated_files/uart1.c"
  2674 ;; Parameters:    Size  Location     Type
  2675 ;;  txData          1    wreg     unsigned char 
  2676 ;; Auto vars:     Size  Location     Type
  2677 ;;  txData          1   32[COMRAM] unsigned char 
  2678 ;; Return value:  Size  Location     Type
  2679 ;;                  1    wreg      void 
  2680 ;; Registers used:
  2681 ;;		wreg, fsr2l, fsr2h, status,2, status,0, cstack
  2682 ;; Tracked objects:
  2683 ;;		On entry : 0/0
  2684 ;;		On exit  : 0/0
  2685 ;;		Unchanged: 0/0
  2686 ;; Data sizes:     COMRAM   BANK0   BANK1   BANK2   BANK3   BANK4   BANK5   BANK6   BANK7   BANK8   BANK9  BANK10  BANK1
      +1  BANK12  BANK13  BANK14  BANK15
  2687 ;;      Params:         0       0       0       0       0       0       0       0       0       0       0       0       
      +0       0       0       0       0
  2688 ;;      Locals:         1       0       0       0       0       0       0       0       0       0       0       0       
      +0       0       0       0       0
  2689 ;;      Temps:          0       0       0       0       0       0       0       0       0       0       0       0       
      +0       0       0       0       0
  2690 ;;      Totals:         1       0       0       0       0       0       0       0       0       0       0       0       
      +0       0       0       0       0
  2691 ;;Total ram usage:        1 bytes
  2692 ;; Hardware stack levels used: 1
  2693 ;; Hardware stack levels required when called: 9
  2694 ;; This function calls:
  2695 ;;		_UART1_Write
  2696 ;; This function is called by:
  2697 ;;		_fputc
  2698 ;; This function uses a non-reentrant model
  2699 ;;
  2700                           
  2701                           	psect	text11
  2702  0032B8                     __ptext11:
  2703                           	callstack 0
  2704  0032B8                     _putch:
  2705                           	callstack 16
  2706                           
  2707                           ;incstack = 0
  2708                           ;putch@txData stored from wreg
  2709  0032B8  6E21               	movwf	putch@txData^0,c
  2710  0032BA                     
  2711                           ;mcc_generated_files/uart1.c: 230: void putch(char txData);mcc_generated_files/uart1.c: 
      +                          231: {;mcc_generated_files/uart1.c: 232:     UART1_Write(txData);
  2712  0032BA  5021               	movf	putch@txData^0,w,c
  2713  0032BC  EC96  F014         	call	_UART1_Write
  2714  0032C0  0012               	return		;funcret
  2715  0032C2                     __end_of_putch:
  2716                           	callstack 0
  2717                           
  2718 ;; *************** function _UART1_Write *****************
  2719 ;; Defined at:
  2720 ;;		line 202 in file "mcc_generated_files/uart1.c"
  2721 ;; Parameters:    Size  Location     Type
  2722 ;;  txData          1    wreg     unsigned char 
  2723 ;; Auto vars:     Size  Location     Type
  2724 ;;  txData          1   31[COMRAM] unsigned char 
  2725 ;; Return value:  Size  Location     Type
  2726 ;;                  1    wreg      void 
  2727 ;; Registers used:
  2728 ;;		wreg, fsr2l, fsr2h, status,2, status,0
  2729 ;; Tracked objects:
  2730 ;;		On entry : 0/0
  2731 ;;		On exit  : 0/0
  2732 ;;		Unchanged: 0/0
  2733 ;; Data sizes:     COMRAM   BANK0   BANK1   BANK2   BANK3   BANK4   BANK5   BANK6   BANK7   BANK8   BANK9  BANK10  BANK1
      +1  BANK12  BANK13  BANK14  BANK15
  2734 ;;      Params:         0       0       0       0       0       0       0       0       0       0       0       0       
      +0       0       0       0       0
  2735 ;;      Locals:         1       0       0       0       0       0       0       0       0       0       0       0       
      +0       0       0       0       0
  2736 ;;      Temps:          0       0       0       0       0       0       0       0       0       0       0       0       
      +0       0       0       0       0
  2737 ;;      Totals:         1       0       0       0       0       0       0       0       0       0       0       0       
      +0       0       0       0       0
  2738 ;;Total ram usage:        1 bytes
  2739 ;; Hardware stack levels used: 1
  2740 ;; Hardware stack levels required when called: 8
  2741 ;; This function calls:
  2742 ;;		Nothing
  2743 ;; This function is called by:
  2744 ;;		_putch
  2745 ;; This function uses a non-reentrant model
  2746 ;;
  2747                           
  2748                           	psect	text12
  2749  00292C                     __ptext12:
  2750                           	callstack 0
  2751  00292C                     _UART1_Write:
  2752                           	callstack 16
  2753                           
  2754                           ;incstack = 0
  2755                           ;UART1_Write@txData stored from wreg
  2756  00292C  6E20               	movwf	UART1_Write@txData^0,c
  2757  00292E                     l4596:
  2758                           
  2759                           ;mcc_generated_files/uart1.c: 204:     while(0 == uart1TxBufferRemaining)
  2760  00292E  503F               	movf	_uart1TxBufferRemaining^0,w,c	;volatile
  2761  002930  B4D8               	btfsc	status,2,c
  2762  002932  EF9D  F014         	goto	u2981
  2763  002936  EF9F  F014         	goto	u2980
  2764  00293A                     u2981:
  2765  00293A  EF97  F014         	goto	l4596
  2766  00293E                     u2980:
  2767  00293E                     
  2768                           ;mcc_generated_files/uart1.c: 208:     if(0 == PIE3bits.U1TXIE)
  2769  00293E  0139               	movlb	57	; () banked
  2770  002940  B993               	btfsc	147,4,b	;volatile
  2771  002942  EFA5  F014         	goto	u2991
  2772  002946  EFA7  F014         	goto	u2990
  2773  00294A                     u2991:
  2774  00294A  EFAC  F014         	goto	l309
  2775  00294E                     u2990:
  2776  00294E                     
  2777                           ; BSR set to: 57
  2778                           ;mcc_generated_files/uart1.c: 209:     {;mcc_generated_files/uart1.c: 210:         U1TXB
      +                           = txData;
  2779  00294E  0060  F083  FDEA   	movff	UART1_Write@txData,15850	;volatile
  2780                           
  2781                           ;mcc_generated_files/uart1.c: 211:     }
  2782  002954  EFC2  F014         	goto	l4610
  2783  002958                     l309:
  2784                           
  2785                           ; BSR set to: 57
  2786                           ;mcc_generated_files/uart1.c: 213:     {;mcc_generated_files/uart1.c: 214:         PIE3b
      +                          its.U1TXIE = 0;
  2787  002958  9993               	bcf	147,4,b	;volatile
  2788  00295A                     
  2789                           ; BSR set to: 57
  2790                           ;mcc_generated_files/uart1.c: 215:         uart1TxBuffer[uart1TxHead++] = txData;
  2791  00295A  0EC0               	movlw	low _uart1TxBuffer
  2792  00295C  2438               	addwf	_uart1TxHead^0,w,c	;volatile
  2793  00295E  6ED9               	movwf	fsr2l,c
  2794  002960  6ADA               	clrf	fsr2h,c
  2795  002962  0E00               	movlw	high _uart1TxBuffer
  2796  002964  22DA               	addwfc	fsr2h,f,c
  2797  002966  0060  F083  FFDF   	movff	UART1_Write@txData,indf2
  2798  00296C                     
  2799                           ; BSR set to: 57
  2800  00296C  2A38               	incf	_uart1TxHead^0,f,c	;volatile
  2801  00296E                     
  2802                           ; BSR set to: 57
  2803                           ;mcc_generated_files/uart1.c: 216:         if(sizeof(uart1TxBuffer) <= uart1TxHead)
  2804  00296E  0E07               	movlw	7
  2805  002970  6438               	cpfsgt	_uart1TxHead^0,c	;volatile
  2806  002972  EFBD  F014         	goto	u3001
  2807  002976  EFBF  F014         	goto	u3000
  2808  00297A                     u3001:
  2809  00297A  EFC1  F014         	goto	l4608
  2810  00297E                     u3000:
  2811  00297E                     
  2812                           ; BSR set to: 57
  2813                           ;mcc_generated_files/uart1.c: 217:         {;mcc_generated_files/uart1.c: 218:          
      +                             uart1TxHead = 0;
  2814  00297E  0E00               	movlw	0
  2815  002980  6E38               	movwf	_uart1TxHead^0,c	;volatile
  2816  002982                     l4608:
  2817                           
  2818                           ; BSR set to: 57
  2819                           ;mcc_generated_files/uart1.c: 220:         uart1TxBufferRemaining--;
  2820  002982  063F               	decf	_uart1TxBufferRemaining^0,f,c	;volatile
  2821  002984                     l4610:
  2822                           
  2823                           ; BSR set to: 57
  2824                           ;mcc_generated_files/uart1.c: 222:     PIE3bits.U1TXIE = 1;
  2825  002984  8993               	bsf	147,4,b	;volatile
  2826  002986                     
  2827                           ; BSR set to: 57
  2828  002986  0012               	return		;funcret
  2829  002988                     __end_of_UART1_Write:
  2830                           	callstack 0
  2831                           
  2832 ;; *************** function _abs *****************
  2833 ;; Defined at:
  2834 ;;		line 1 in file "C:\Program Files\Microchip\xc8\v2.36\pic\sources\c99\common\abs.c"
  2835 ;; Parameters:    Size  Location     Type
  2836 ;;  a               2   16[BANK0 ] int 
  2837 ;; Auto vars:     Size  Location     Type
  2838 ;;		None
  2839 ;; Return value:  Size  Location     Type
  2840 ;;                  2   16[BANK0 ] int 
  2841 ;; Registers used:
  2842 ;;		wreg, status,2, status,0
  2843 ;; Tracked objects:
  2844 ;;		On entry : 0/0
  2845 ;;		On exit  : 0/0
  2846 ;;		Unchanged: 0/0
  2847 ;; Data sizes:     COMRAM   BANK0   BANK1   BANK2   BANK3   BANK4   BANK5   BANK6   BANK7   BANK8   BANK9  BANK10  BANK1
      +1  BANK12  BANK13  BANK14  BANK15
  2848 ;;      Params:         0       2       0       0       0       0       0       0       0       0       0       0       
      +0       0       0       0       0
  2849 ;;      Locals:         0       0       0       0       0       0       0       0       0       0       0       0       
      +0       0       0       0       0
  2850 ;;      Temps:          0       2       0       0       0       0       0       0       0       0       0       0       
      +0       0       0       0       0
  2851 ;;      Totals:         0       4       0       0       0       0       0       0       0       0       0       0       
      +0       0       0       0       0
  2852 ;;Total ram usage:        4 bytes
  2853 ;; Hardware stack levels used: 1
  2854 ;; Hardware stack levels required when called: 8
  2855 ;; This function calls:
  2856 ;;		Nothing
  2857 ;; This function is called by:
  2858 ;;		_dtoa
  2859 ;; This function uses a non-reentrant model
  2860 ;;
  2861                           
  2862                           	psect	text13
  2863  002E0A                     __ptext13:
  2864                           	callstack 0
  2865  002E0A                     _abs:
  2866                           	callstack 17
  2867  002E0A  0100               	movlb	0	; () banked
  2868  002E0C  BF71               	btfsc	(abs@a+1)& (0+255),7,b
  2869  002E0E  EF13  F017         	goto	u3240
  2870  002E12  5171               	movf	(abs@a+1)& (0+255),w,b
  2871  002E14  E106               	bnz	u3241
  2872  002E16  0570               	decf	abs@a& (0+255),w,b
  2873  002E18  B0D8               	btfsc	status,0,c
  2874  002E1A  EF11  F017         	goto	u3241
  2875  002E1E  EF13  F017         	goto	u3240
  2876  002E22                     u3241:
  2877  002E22  EF21  F017         	goto	l2025
  2878  002E26                     u3240:
  2879  002E26                     
  2880                           ; BSR set to: 0
  2881  002E26  C070  F072         	movff	abs@a,??_abs
  2882  002E2A  C071  F073         	movff	abs@a+1,??_abs+1
  2883  002E2E  1F72               	comf	??_abs& (0+255),f,b
  2884  002E30  1F73               	comf	(??_abs+1)& (0+255),f,b
  2885  002E32  4B72               	infsnz	??_abs& (0+255),f,b
  2886  002E34  2B73               	incf	(??_abs+1)& (0+255),f,b
  2887  002E36  C072  F070         	movff	??_abs,?_abs
  2888  002E3A  C073  F071         	movff	??_abs+1,?_abs+1
  2889  002E3E  EF25  F017         	goto	l2028
  2890  002E42                     l2025:
  2891                           
  2892                           ; BSR set to: 0
  2893  002E42  C070  F070         	movff	abs@a,?_abs
  2894  002E46  C071  F071         	movff	abs@a+1,?_abs+1
  2895  002E4A                     l2028:
  2896                           
  2897                           ; BSR set to: 0
  2898  002E4A  0012               	return		;funcret
  2899  002E4C                     __end_of_abs:
  2900                           	callstack 0
  2901                           
  2902 ;; *************** function ___aomod *****************
  2903 ;; Defined at:
  2904 ;;		line 9 in file "C:\Program Files\Microchip\xc8\v2.36\pic\sources\c99\common\aomod.c"
  2905 ;; Parameters:    Size  Location     Type
  2906 ;;  dividend        8    0[BANK0 ] long long 
  2907 ;;  divisor         8    8[BANK0 ] long long 
  2908 ;; Auto vars:     Size  Location     Type
  2909 ;;  sign            1   32[COMRAM] unsigned char 
  2910 ;;  counter         1   31[COMRAM] unsigned char 
  2911 ;; Return value:  Size  Location     Type
  2912 ;;                  8    0[BANK0 ] long long 
  2913 ;; Registers used:
  2914 ;;		wreg, status,2, status,0
  2915 ;; Tracked objects:
  2916 ;;		On entry : 0/0
  2917 ;;		On exit  : 0/0
  2918 ;;		Unchanged: 0/0
  2919 ;; Data sizes:     COMRAM   BANK0   BANK1   BANK2   BANK3   BANK4   BANK5   BANK6   BANK7   BANK8   BANK9  BANK10  BANK1
      +1  BANK12  BANK13  BANK14  BANK15
  2920 ;;      Params:         0      16       0       0       0       0       0       0       0       0       0       0       
      +0       0       0       0       0
  2921 ;;      Locals:         2       0       0       0       0       0       0       0       0       0       0       0       
      +0       0       0       0       0
  2922 ;;      Temps:          0       0       0       0       0       0       0       0       0       0       0       0       
      +0       0       0       0       0
  2923 ;;      Totals:         2      16       0       0       0       0       0       0       0       0       0       0       
      +0       0       0       0       0
  2924 ;;Total ram usage:       18 bytes
  2925 ;; Hardware stack levels used: 1
  2926 ;; Hardware stack levels required when called: 8
  2927 ;; This function calls:
  2928 ;;		Nothing
  2929 ;; This function is called by:
  2930 ;;		_dtoa
  2931 ;; This function uses a non-reentrant model
  2932 ;;
  2933                           
  2934                           	psect	text14
  2935  001EA2                     __ptext14:
  2936                           	callstack 0
  2937  001EA2                     ___aomod:
  2938                           	callstack 17
  2939  001EA2  0E00               	movlw	0
  2940  001EA4  6E21               	movwf	___aomod@sign^0,c
  2941  001EA6  0100               	movlb	0	; () banked
  2942  001EA8  BF67               	btfsc	(___aomod@dividend+7)& (0+255),7,b
  2943  001EAA  EF5B  F00F         	goto	u3140
  2944  001EAE  EF59  F00F         	goto	u3141
  2945  001EB2                     u3141:
  2946  001EB2  EF6D  F00F         	goto	l4698
  2947  001EB6                     u3140:
  2948  001EB6                     
  2949                           ; BSR set to: 0
  2950  001EB6  1F67               	comf	(___aomod@dividend+7)& (0+255),f,b
  2951  001EB8  1F66               	comf	(___aomod@dividend+6)& (0+255),f,b
  2952  001EBA  1F65               	comf	(___aomod@dividend+5)& (0+255),f,b
  2953  001EBC  1F64               	comf	(___aomod@dividend+4)& (0+255),f,b
  2954  001EBE  1F63               	comf	(___aomod@dividend+3)& (0+255),f,b
  2955  001EC0  1F62               	comf	(___aomod@dividend+2)& (0+255),f,b
  2956  001EC2  1F61               	comf	(___aomod@dividend+1)& (0+255),f,b
  2957  001EC4  6D60               	negf	___aomod@dividend& (0+255),b
  2958  001EC6  0E00               	movlw	0
  2959  001EC8  2361               	addwfc	(___aomod@dividend+1)& (0+255),f,b
  2960  001ECA  2362               	addwfc	(___aomod@dividend+2)& (0+255),f,b
  2961  001ECC  2363               	addwfc	(___aomod@dividend+3)& (0+255),f,b
  2962  001ECE  2364               	addwfc	(___aomod@dividend+4)& (0+255),f,b
  2963  001ED0  2365               	addwfc	(___aomod@dividend+5)& (0+255),f,b
  2964  001ED2  2366               	addwfc	(___aomod@dividend+6)& (0+255),f,b
  2965  001ED4  2367               	addwfc	(___aomod@dividend+7)& (0+255),f,b
  2966  001ED6                     
  2967                           ; BSR set to: 0
  2968  001ED6  0E01               	movlw	1
  2969  001ED8  6E21               	movwf	___aomod@sign^0,c
  2970  001EDA                     l4698:
  2971                           
  2972                           ; BSR set to: 0
  2973  001EDA  BF6F               	btfsc	(___aomod@divisor+7)& (0+255),7,b
  2974  001EDC  EF74  F00F         	goto	u3150
  2975  001EE0  EF72  F00F         	goto	u3151
  2976  001EE4                     u3151:
  2977  001EE4  EF84  F00F         	goto	l4702
  2978  001EE8                     u3150:
  2979  001EE8                     
  2980                           ; BSR set to: 0
  2981  001EE8  1F6F               	comf	(___aomod@divisor+7)& (0+255),f,b
  2982  001EEA  1F6E               	comf	(___aomod@divisor+6)& (0+255),f,b
  2983  001EEC  1F6D               	comf	(___aomod@divisor+5)& (0+255),f,b
  2984  001EEE  1F6C               	comf	(___aomod@divisor+4)& (0+255),f,b
  2985  001EF0  1F6B               	comf	(___aomod@divisor+3)& (0+255),f,b
  2986  001EF2  1F6A               	comf	(___aomod@divisor+2)& (0+255),f,b
  2987  001EF4  1F69               	comf	(___aomod@divisor+1)& (0+255),f,b
  2988  001EF6  6D68               	negf	___aomod@divisor& (0+255),b
  2989  001EF8  0E00               	movlw	0
  2990  001EFA  2369               	addwfc	(___aomod@divisor+1)& (0+255),f,b
  2991  001EFC  236A               	addwfc	(___aomod@divisor+2)& (0+255),f,b
  2992  001EFE  236B               	addwfc	(___aomod@divisor+3)& (0+255),f,b
  2993  001F00  236C               	addwfc	(___aomod@divisor+4)& (0+255),f,b
  2994  001F02  236D               	addwfc	(___aomod@divisor+5)& (0+255),f,b
  2995  001F04  236E               	addwfc	(___aomod@divisor+6)& (0+255),f,b
  2996  001F06  236F               	addwfc	(___aomod@divisor+7)& (0+255),f,b
  2997  001F08                     l4702:
  2998                           
  2999                           ; BSR set to: 0
  3000  001F08  5168               	movf	___aomod@divisor& (0+255),w,b
  3001  001F0A  1169               	iorwf	(___aomod@divisor+1)& (0+255),w,b
  3002  001F0C  116A               	iorwf	(___aomod@divisor+2)& (0+255),w,b
  3003  001F0E  116B               	iorwf	(___aomod@divisor+3)& (0+255),w,b
  3004  001F10  116C               	iorwf	(___aomod@divisor+4)& (0+255),w,b
  3005  001F12  116D               	iorwf	(___aomod@divisor+5)& (0+255),w,b
  3006  001F14  116E               	iorwf	(___aomod@divisor+6)& (0+255),w,b
  3007  001F16  116F               	iorwf	(___aomod@divisor+7)& (0+255),w,b
  3008  001F18  B4D8               	btfsc	status,2,c
  3009  001F1A  EF91  F00F         	goto	u3161
  3010  001F1E  EF93  F00F         	goto	u3160
  3011  001F22                     u3161:
  3012  001F22  EFDB  F00F         	goto	l4718
  3013  001F26                     u3160:
  3014  001F26                     
  3015                           ; BSR set to: 0
  3016  001F26  0E01               	movlw	1
  3017  001F28  6E20               	movwf	___aomod@counter^0,c
  3018  001F2A  EFA1  F00F         	goto	l4708
  3019  001F2E                     l4706:
  3020                           
  3021                           ; BSR set to: 0
  3022  001F2E  90D8               	bcf	status,0,c
  3023  001F30  3768               	rlcf	___aomod@divisor& (0+255),f,b
  3024  001F32  3769               	rlcf	(___aomod@divisor+1)& (0+255),f,b
  3025  001F34  376A               	rlcf	(___aomod@divisor+2)& (0+255),f,b
  3026  001F36  376B               	rlcf	(___aomod@divisor+3)& (0+255),f,b
  3027  001F38  376C               	rlcf	(___aomod@divisor+4)& (0+255),f,b
  3028  001F3A  376D               	rlcf	(___aomod@divisor+5)& (0+255),f,b
  3029  001F3C  376E               	rlcf	(___aomod@divisor+6)& (0+255),f,b
  3030  001F3E  376F               	rlcf	(___aomod@divisor+7)& (0+255),f,b
  3031  001F40  2A20               	incf	___aomod@counter^0,f,c
  3032  001F42                     l4708:
  3033                           
  3034                           ; BSR set to: 0
  3035  001F42  AF6F               	btfss	(___aomod@divisor+7)& (0+255),7,b
  3036  001F44  EFA6  F00F         	goto	u3171
  3037  001F48  EFA8  F00F         	goto	u3170
  3038  001F4C                     u3171:
  3039  001F4C  EF97  F00F         	goto	l4706
  3040  001F50                     u3170:
  3041  001F50                     l4710:
  3042                           
  3043                           ; BSR set to: 0
  3044  001F50  5168               	movf	___aomod@divisor& (0+255),w,b
  3045  001F52  5D60               	subwf	___aomod@dividend& (0+255),w,b
  3046  001F54  5169               	movf	(___aomod@divisor+1)& (0+255),w,b
  3047  001F56  5961               	subwfb	(___aomod@dividend+1)& (0+255),w,b
  3048  001F58  516A               	movf	(___aomod@divisor+2)& (0+255),w,b
  3049  001F5A  5962               	subwfb	(___aomod@dividend+2)& (0+255),w,b
  3050  001F5C  516B               	movf	(___aomod@divisor+3)& (0+255),w,b
  3051  001F5E  5963               	subwfb	(___aomod@dividend+3)& (0+255),w,b
  3052  001F60  516C               	movf	(___aomod@divisor+4)& (0+255),w,b
  3053  001F62  5964               	subwfb	(___aomod@dividend+4)& (0+255),w,b
  3054  001F64  516D               	movf	(___aomod@divisor+5)& (0+255),w,b
  3055  001F66  5965               	subwfb	(___aomod@dividend+5)& (0+255),w,b
  3056  001F68  516E               	movf	(___aomod@divisor+6)& (0+255),w,b
  3057  001F6A  5966               	subwfb	(___aomod@dividend+6)& (0+255),w,b
  3058  001F6C  516F               	movf	(___aomod@divisor+7)& (0+255),w,b
  3059  001F6E  5967               	subwfb	(___aomod@dividend+7)& (0+255),w,b
  3060  001F70  A0D8               	btfss	status,0,c
  3061  001F72  EFBD  F00F         	goto	u3181
  3062  001F76  EFBF  F00F         	goto	u3180
  3063  001F7A                     u3181:
  3064  001F7A  EFCF  F00F         	goto	l4714
  3065  001F7E                     u3180:
  3066  001F7E                     
  3067                           ; BSR set to: 0
  3068  001F7E  5168               	movf	___aomod@divisor& (0+255),w,b
  3069  001F80  5F60               	subwf	___aomod@dividend& (0+255),f,b
  3070  001F82  5169               	movf	(___aomod@divisor+1)& (0+255),w,b
  3071  001F84  5B61               	subwfb	(___aomod@dividend+1)& (0+255),f,b
  3072  001F86  516A               	movf	(___aomod@divisor+2)& (0+255),w,b
  3073  001F88  5B62               	subwfb	(___aomod@dividend+2)& (0+255),f,b
  3074  001F8A  516B               	movf	(___aomod@divisor+3)& (0+255),w,b
  3075  001F8C  5B63               	subwfb	(___aomod@dividend+3)& (0+255),f,b
  3076  001F8E  516C               	movf	(___aomod@divisor+4)& (0+255),w,b
  3077  001F90  5B64               	subwfb	(___aomod@dividend+4)& (0+255),f,b
  3078  001F92  516D               	movf	(___aomod@divisor+5)& (0+255),w,b
  3079  001F94  5B65               	subwfb	(___aomod@dividend+5)& (0+255),f,b
  3080  001F96  516E               	movf	(___aomod@divisor+6)& (0+255),w,b
  3081  001F98  5B66               	subwfb	(___aomod@dividend+6)& (0+255),f,b
  3082  001F9A  516F               	movf	(___aomod@divisor+7)& (0+255),w,b
  3083  001F9C  5B67               	subwfb	(___aomod@dividend+7)& (0+255),f,b
  3084  001F9E                     l4714:
  3085                           
  3086                           ; BSR set to: 0
  3087  001F9E  90D8               	bcf	status,0,c
  3088  001FA0  336F               	rrcf	(___aomod@divisor+7)& (0+255),f,b
  3089  001FA2  336E               	rrcf	(___aomod@divisor+6)& (0+255),f,b
  3090  001FA4  336D               	rrcf	(___aomod@divisor+5)& (0+255),f,b
  3091  001FA6  336C               	rrcf	(___aomod@divisor+4)& (0+255),f,b
  3092  001FA8  336B               	rrcf	(___aomod@divisor+3)& (0+255),f,b
  3093  001FAA  336A               	rrcf	(___aomod@divisor+2)& (0+255),f,b
  3094  001FAC  3369               	rrcf	(___aomod@divisor+1)& (0+255),f,b
  3095  001FAE  3368               	rrcf	___aomod@divisor& (0+255),f,b
  3096  001FB0                     
  3097                           ; BSR set to: 0
  3098  001FB0  2E20               	decfsz	___aomod@counter^0,f,c
  3099  001FB2  EFA8  F00F         	goto	l4710
  3100  001FB6                     l4718:
  3101                           
  3102                           ; BSR set to: 0
  3103  001FB6  5021               	movf	___aomod@sign^0,w,c
  3104  001FB8  B4D8               	btfsc	status,2,c
  3105  001FBA  EFE1  F00F         	goto	u3191
  3106  001FBE  EFE3  F00F         	goto	u3190
  3107  001FC2                     u3191:
  3108  001FC2  EFF3  F00F         	goto	l4722
  3109  001FC6                     u3190:
  3110  001FC6                     
  3111                           ; BSR set to: 0
  3112  001FC6  1F67               	comf	(___aomod@dividend+7)& (0+255),f,b
  3113  001FC8  1F66               	comf	(___aomod@dividend+6)& (0+255),f,b
  3114  001FCA  1F65               	comf	(___aomod@dividend+5)& (0+255),f,b
  3115  001FCC  1F64               	comf	(___aomod@dividend+4)& (0+255),f,b
  3116  001FCE  1F63               	comf	(___aomod@dividend+3)& (0+255),f,b
  3117  001FD0  1F62               	comf	(___aomod@dividend+2)& (0+255),f,b
  3118  001FD2  1F61               	comf	(___aomod@dividend+1)& (0+255),f,b
  3119  001FD4  6D60               	negf	___aomod@dividend& (0+255),b
  3120  001FD6  0E00               	movlw	0
  3121  001FD8  2361               	addwfc	(___aomod@dividend+1)& (0+255),f,b
  3122  001FDA  2362               	addwfc	(___aomod@dividend+2)& (0+255),f,b
  3123  001FDC  2363               	addwfc	(___aomod@dividend+3)& (0+255),f,b
  3124  001FDE  2364               	addwfc	(___aomod@dividend+4)& (0+255),f,b
  3125  001FE0  2365               	addwfc	(___aomod@dividend+5)& (0+255),f,b
  3126  001FE2  2366               	addwfc	(___aomod@dividend+6)& (0+255),f,b
  3127  001FE4  2367               	addwfc	(___aomod@dividend+7)& (0+255),f,b
  3128  001FE6                     l4722:
  3129                           
  3130                           ; BSR set to: 0
  3131  001FE6  C060  F060         	movff	___aomod@dividend,?___aomod
  3132  001FEA  C061  F061         	movff	___aomod@dividend+1,?___aomod+1
  3133  001FEE  C062  F062         	movff	___aomod@dividend+2,?___aomod+2
  3134  001FF2  C063  F063         	movff	___aomod@dividend+3,?___aomod+3
  3135  001FF6  C064  F064         	movff	___aomod@dividend+4,?___aomod+4
  3136  001FFA  C065  F065         	movff	___aomod@dividend+5,?___aomod+5
  3137  001FFE  C066  F066         	movff	___aomod@dividend+6,?___aomod+6
  3138  002002  C067  F067         	movff	___aomod@dividend+7,?___aomod+7
  3139  002006                     
  3140                           ; BSR set to: 0
  3141  002006  0012               	return		;funcret
  3142  002008                     __end_of___aomod:
  3143                           	callstack 0
  3144                           
  3145 ;; *************** function ___aodiv *****************
  3146 ;; Defined at:
  3147 ;;		line 9 in file "C:\Program Files\Microchip\xc8\v2.36\pic\sources\c99\common\aodiv.c"
  3148 ;; Parameters:    Size  Location     Type
  3149 ;;  dividend        8    0[BANK0 ] long long 
  3150 ;;  divisor         8    8[BANK0 ] long long 
  3151 ;; Auto vars:     Size  Location     Type
  3152 ;;  quotient        8   18[BANK0 ] long long 
  3153 ;;  sign            1   17[BANK0 ] unsigned char 
  3154 ;;  counter         1   16[BANK0 ] unsigned char 
  3155 ;; Return value:  Size  Location     Type
  3156 ;;                  8    0[BANK0 ] long long 
  3157 ;; Registers used:
  3158 ;;		wreg, fsr2l, fsr2h, status,2, status,0
  3159 ;; Tracked objects:
  3160 ;;		On entry : 0/0
  3161 ;;		On exit  : 0/0
  3162 ;;		Unchanged: 0/0
  3163 ;; Data sizes:     COMRAM   BANK0   BANK1   BANK2   BANK3   BANK4   BANK5   BANK6   BANK7   BANK8   BANK9  BANK10  BANK1
      +1  BANK12  BANK13  BANK14  BANK15
  3164 ;;      Params:         0      16       0       0       0       0       0       0       0       0       0       0       
      +0       0       0       0       0
  3165 ;;      Locals:         0      10       0       0       0       0       0       0       0       0       0       0       
      +0       0       0       0       0
  3166 ;;      Temps:          0       0       0       0       0       0       0       0       0       0       0       0       
      +0       0       0       0       0
  3167 ;;      Totals:         0      26       0       0       0       0       0       0       0       0       0       0       
      +0       0       0       0       0
  3168 ;;Total ram usage:       26 bytes
  3169 ;; Hardware stack levels used: 1
  3170 ;; Hardware stack levels required when called: 8
  3171 ;; This function calls:
  3172 ;;		Nothing
  3173 ;; This function is called by:
  3174 ;;		_dtoa
  3175 ;; This function uses a non-reentrant model
  3176 ;;
  3177                           
  3178                           	psect	text15
  3179  001D18                     __ptext15:
  3180                           	callstack 0
  3181  001D18                     ___aodiv:
  3182                           	callstack 17
  3183  001D18  0E00               	movlw	0
  3184  001D1A  0100               	movlb	0	; () banked
  3185  001D1C  6F71               	movwf	___aodiv@sign& (0+255),b
  3186  001D1E                     
  3187                           ; BSR set to: 0
  3188  001D1E  BF6F               	btfsc	(___aodiv@divisor+7)& (0+255),7,b
  3189  001D20  EF96  F00E         	goto	u3070
  3190  001D24  EF94  F00E         	goto	u3071
  3191  001D28                     u3071:
  3192  001D28  EFA8  F00E         	goto	l4654
  3193  001D2C                     u3070:
  3194  001D2C                     
  3195                           ; BSR set to: 0
  3196  001D2C  1F6F               	comf	(___aodiv@divisor+7)& (0+255),f,b
  3197  001D2E  1F6E               	comf	(___aodiv@divisor+6)& (0+255),f,b
  3198  001D30  1F6D               	comf	(___aodiv@divisor+5)& (0+255),f,b
  3199  001D32  1F6C               	comf	(___aodiv@divisor+4)& (0+255),f,b
  3200  001D34  1F6B               	comf	(___aodiv@divisor+3)& (0+255),f,b
  3201  001D36  1F6A               	comf	(___aodiv@divisor+2)& (0+255),f,b
  3202  001D38  1F69               	comf	(___aodiv@divisor+1)& (0+255),f,b
  3203  001D3A  6D68               	negf	___aodiv@divisor& (0+255),b
  3204  001D3C  0E00               	movlw	0
  3205  001D3E  2369               	addwfc	(___aodiv@divisor+1)& (0+255),f,b
  3206  001D40  236A               	addwfc	(___aodiv@divisor+2)& (0+255),f,b
  3207  001D42  236B               	addwfc	(___aodiv@divisor+3)& (0+255),f,b
  3208  001D44  236C               	addwfc	(___aodiv@divisor+4)& (0+255),f,b
  3209  001D46  236D               	addwfc	(___aodiv@divisor+5)& (0+255),f,b
  3210  001D48  236E               	addwfc	(___aodiv@divisor+6)& (0+255),f,b
  3211  001D4A  236F               	addwfc	(___aodiv@divisor+7)& (0+255),f,b
  3212  001D4C                     
  3213                           ; BSR set to: 0
  3214  001D4C  0E01               	movlw	1
  3215  001D4E  6F71               	movwf	___aodiv@sign& (0+255),b
  3216  001D50                     l4654:
  3217                           
  3218                           ; BSR set to: 0
  3219  001D50  BF67               	btfsc	(___aodiv@dividend+7)& (0+255),7,b
  3220  001D52  EFAF  F00E         	goto	u3080
  3221  001D56  EFAD  F00E         	goto	u3081
  3222  001D5A                     u3081:
  3223  001D5A  EFC1  F00E         	goto	l4660
  3224  001D5E                     u3080:
  3225  001D5E                     
  3226                           ; BSR set to: 0
  3227  001D5E  1F67               	comf	(___aodiv@dividend+7)& (0+255),f,b
  3228  001D60  1F66               	comf	(___aodiv@dividend+6)& (0+255),f,b
  3229  001D62  1F65               	comf	(___aodiv@dividend+5)& (0+255),f,b
  3230  001D64  1F64               	comf	(___aodiv@dividend+4)& (0+255),f,b
  3231  001D66  1F63               	comf	(___aodiv@dividend+3)& (0+255),f,b
  3232  001D68  1F62               	comf	(___aodiv@dividend+2)& (0+255),f,b
  3233  001D6A  1F61               	comf	(___aodiv@dividend+1)& (0+255),f,b
  3234  001D6C  6D60               	negf	___aodiv@dividend& (0+255),b
  3235  001D6E  0E00               	movlw	0
  3236  001D70  2361               	addwfc	(___aodiv@dividend+1)& (0+255),f,b
  3237  001D72  2362               	addwfc	(___aodiv@dividend+2)& (0+255),f,b
  3238  001D74  2363               	addwfc	(___aodiv@dividend+3)& (0+255),f,b
  3239  001D76  2364               	addwfc	(___aodiv@dividend+4)& (0+255),f,b
  3240  001D78  2365               	addwfc	(___aodiv@dividend+5)& (0+255),f,b
  3241  001D7A  2366               	addwfc	(___aodiv@dividend+6)& (0+255),f,b
  3242  001D7C  2367               	addwfc	(___aodiv@dividend+7)& (0+255),f,b
  3243  001D7E                     
  3244                           ; BSR set to: 0
  3245  001D7E  0E01               	movlw	1
  3246  001D80  1B71               	xorwf	___aodiv@sign& (0+255),f,b
  3247  001D82                     l4660:
  3248                           
  3249                           ; BSR set to: 0
  3250  001D82  EE20  F072         	lfsr	2,___aodiv@quotient
  3251  001D86  0E07               	movlw	7
  3252  001D88                     u3091:
  3253  001D88  6ADE               	clrf	postinc2,c
  3254  001D8A  06E8               	decf	wreg,f,c
  3255  001D8C  E2FD               	bc	u3091
  3256  001D8E                     
  3257                           ; BSR set to: 0
  3258  001D8E  5168               	movf	___aodiv@divisor& (0+255),w,b
  3259  001D90  1169               	iorwf	(___aodiv@divisor+1)& (0+255),w,b
  3260  001D92  116A               	iorwf	(___aodiv@divisor+2)& (0+255),w,b
  3261  001D94  116B               	iorwf	(___aodiv@divisor+3)& (0+255),w,b
  3262  001D96  116C               	iorwf	(___aodiv@divisor+4)& (0+255),w,b
  3263  001D98  116D               	iorwf	(___aodiv@divisor+5)& (0+255),w,b
  3264  001D9A  116E               	iorwf	(___aodiv@divisor+6)& (0+255),w,b
  3265  001D9C  116F               	iorwf	(___aodiv@divisor+7)& (0+255),w,b
  3266  001D9E  B4D8               	btfsc	status,2,c
  3267  001DA0  EFD4  F00E         	goto	u3101
  3268  001DA4  EFD6  F00E         	goto	u3100
  3269  001DA8                     u3101:
  3270  001DA8  EF28  F00F         	goto	l4682
  3271  001DAC                     u3100:
  3272  001DAC                     
  3273                           ; BSR set to: 0
  3274  001DAC  0E01               	movlw	1
  3275  001DAE  6F70               	movwf	___aodiv@counter& (0+255),b
  3276  001DB0  EFE4  F00E         	goto	l4668
  3277  001DB4                     l4666:
  3278                           
  3279                           ; BSR set to: 0
  3280  001DB4  90D8               	bcf	status,0,c
  3281  001DB6  3768               	rlcf	___aodiv@divisor& (0+255),f,b
  3282  001DB8  3769               	rlcf	(___aodiv@divisor+1)& (0+255),f,b
  3283  001DBA  376A               	rlcf	(___aodiv@divisor+2)& (0+255),f,b
  3284  001DBC  376B               	rlcf	(___aodiv@divisor+3)& (0+255),f,b
  3285  001DBE  376C               	rlcf	(___aodiv@divisor+4)& (0+255),f,b
  3286  001DC0  376D               	rlcf	(___aodiv@divisor+5)& (0+255),f,b
  3287  001DC2  376E               	rlcf	(___aodiv@divisor+6)& (0+255),f,b
  3288  001DC4  376F               	rlcf	(___aodiv@divisor+7)& (0+255),f,b
  3289  001DC6  2B70               	incf	___aodiv@counter& (0+255),f,b
  3290  001DC8                     l4668:
  3291                           
  3292                           ; BSR set to: 0
  3293  001DC8  AF6F               	btfss	(___aodiv@divisor+7)& (0+255),7,b
  3294  001DCA  EFE9  F00E         	goto	u3111
  3295  001DCE  EFEB  F00E         	goto	u3110
  3296  001DD2                     u3111:
  3297  001DD2  EFDA  F00E         	goto	l4666
  3298  001DD6                     u3110:
  3299  001DD6                     l4670:
  3300                           
  3301                           ; BSR set to: 0
  3302  001DD6  90D8               	bcf	status,0,c
  3303  001DD8  3772               	rlcf	___aodiv@quotient& (0+255),f,b
  3304  001DDA  3773               	rlcf	(___aodiv@quotient+1)& (0+255),f,b
  3305  001DDC  3774               	rlcf	(___aodiv@quotient+2)& (0+255),f,b
  3306  001DDE  3775               	rlcf	(___aodiv@quotient+3)& (0+255),f,b
  3307  001DE0  3776               	rlcf	(___aodiv@quotient+4)& (0+255),f,b
  3308  001DE2  3777               	rlcf	(___aodiv@quotient+5)& (0+255),f,b
  3309  001DE4  3778               	rlcf	(___aodiv@quotient+6)& (0+255),f,b
  3310  001DE6  3779               	rlcf	(___aodiv@quotient+7)& (0+255),f,b
  3311  001DE8                     
  3312                           ; BSR set to: 0
  3313  001DE8  5168               	movf	___aodiv@divisor& (0+255),w,b
  3314  001DEA  5D60               	subwf	___aodiv@dividend& (0+255),w,b
  3315  001DEC  5169               	movf	(___aodiv@divisor+1)& (0+255),w,b
  3316  001DEE  5961               	subwfb	(___aodiv@dividend+1)& (0+255),w,b
  3317  001DF0  516A               	movf	(___aodiv@divisor+2)& (0+255),w,b
  3318  001DF2  5962               	subwfb	(___aodiv@dividend+2)& (0+255),w,b
  3319  001DF4  516B               	movf	(___aodiv@divisor+3)& (0+255),w,b
  3320  001DF6  5963               	subwfb	(___aodiv@dividend+3)& (0+255),w,b
  3321  001DF8  516C               	movf	(___aodiv@divisor+4)& (0+255),w,b
  3322  001DFA  5964               	subwfb	(___aodiv@dividend+4)& (0+255),w,b
  3323  001DFC  516D               	movf	(___aodiv@divisor+5)& (0+255),w,b
  3324  001DFE  5965               	subwfb	(___aodiv@dividend+5)& (0+255),w,b
  3325  001E00  516E               	movf	(___aodiv@divisor+6)& (0+255),w,b
  3326  001E02  5966               	subwfb	(___aodiv@dividend+6)& (0+255),w,b
  3327  001E04  516F               	movf	(___aodiv@divisor+7)& (0+255),w,b
  3328  001E06  5967               	subwfb	(___aodiv@dividend+7)& (0+255),w,b
  3329  001E08  A0D8               	btfss	status,0,c
  3330  001E0A  EF09  F00F         	goto	u3121
  3331  001E0E  EF0B  F00F         	goto	u3120
  3332  001E12                     u3121:
  3333  001E12  EF1C  F00F         	goto	l4678
  3334  001E16                     u3120:
  3335  001E16                     
  3336                           ; BSR set to: 0
  3337  001E16  5168               	movf	___aodiv@divisor& (0+255),w,b
  3338  001E18  5F60               	subwf	___aodiv@dividend& (0+255),f,b
  3339  001E1A  5169               	movf	(___aodiv@divisor+1)& (0+255),w,b
  3340  001E1C  5B61               	subwfb	(___aodiv@dividend+1)& (0+255),f,b
  3341  001E1E  516A               	movf	(___aodiv@divisor+2)& (0+255),w,b
  3342  001E20  5B62               	subwfb	(___aodiv@dividend+2)& (0+255),f,b
  3343  001E22  516B               	movf	(___aodiv@divisor+3)& (0+255),w,b
  3344  001E24  5B63               	subwfb	(___aodiv@dividend+3)& (0+255),f,b
  3345  001E26  516C               	movf	(___aodiv@divisor+4)& (0+255),w,b
  3346  001E28  5B64               	subwfb	(___aodiv@dividend+4)& (0+255),f,b
  3347  001E2A  516D               	movf	(___aodiv@divisor+5)& (0+255),w,b
  3348  001E2C  5B65               	subwfb	(___aodiv@dividend+5)& (0+255),f,b
  3349  001E2E  516E               	movf	(___aodiv@divisor+6)& (0+255),w,b
  3350  001E30  5B66               	subwfb	(___aodiv@dividend+6)& (0+255),f,b
  3351  001E32  516F               	movf	(___aodiv@divisor+7)& (0+255),w,b
  3352  001E34  5B67               	subwfb	(___aodiv@dividend+7)& (0+255),f,b
  3353  001E36                     
  3354                           ; BSR set to: 0
  3355  001E36  8172               	bsf	___aodiv@quotient& (0+255),0,b
  3356  001E38                     l4678:
  3357                           
  3358                           ; BSR set to: 0
  3359  001E38  90D8               	bcf	status,0,c
  3360  001E3A  336F               	rrcf	(___aodiv@divisor+7)& (0+255),f,b
  3361  001E3C  336E               	rrcf	(___aodiv@divisor+6)& (0+255),f,b
  3362  001E3E  336D               	rrcf	(___aodiv@divisor+5)& (0+255),f,b
  3363  001E40  336C               	rrcf	(___aodiv@divisor+4)& (0+255),f,b
  3364  001E42  336B               	rrcf	(___aodiv@divisor+3)& (0+255),f,b
  3365  001E44  336A               	rrcf	(___aodiv@divisor+2)& (0+255),f,b
  3366  001E46  3369               	rrcf	(___aodiv@divisor+1)& (0+255),f,b
  3367  001E48  3368               	rrcf	___aodiv@divisor& (0+255),f,b
  3368  001E4A                     
  3369                           ; BSR set to: 0
  3370  001E4A  2F70               	decfsz	___aodiv@counter& (0+255),f,b
  3371  001E4C  EFEB  F00E         	goto	l4670
  3372  001E50                     l4682:
  3373                           
  3374                           ; BSR set to: 0
  3375  001E50  5171               	movf	___aodiv@sign& (0+255),w,b
  3376  001E52  B4D8               	btfsc	status,2,c
  3377  001E54  EF2E  F00F         	goto	u3131
  3378  001E58  EF30  F00F         	goto	u3130
  3379  001E5C                     u3131:
  3380  001E5C  EF40  F00F         	goto	l4686
  3381  001E60                     u3130:
  3382  001E60                     
  3383                           ; BSR set to: 0
  3384  001E60  1F79               	comf	(___aodiv@quotient+7)& (0+255),f,b
  3385  001E62  1F78               	comf	(___aodiv@quotient+6)& (0+255),f,b
  3386  001E64  1F77               	comf	(___aodiv@quotient+5)& (0+255),f,b
  3387  001E66  1F76               	comf	(___aodiv@quotient+4)& (0+255),f,b
  3388  001E68  1F75               	comf	(___aodiv@quotient+3)& (0+255),f,b
  3389  001E6A  1F74               	comf	(___aodiv@quotient+2)& (0+255),f,b
  3390  001E6C  1F73               	comf	(___aodiv@quotient+1)& (0+255),f,b
  3391  001E6E  6D72               	negf	___aodiv@quotient& (0+255),b
  3392  001E70  0E00               	movlw	0
  3393  001E72  2373               	addwfc	(___aodiv@quotient+1)& (0+255),f,b
  3394  001E74  2374               	addwfc	(___aodiv@quotient+2)& (0+255),f,b
  3395  001E76  2375               	addwfc	(___aodiv@quotient+3)& (0+255),f,b
  3396  001E78  2376               	addwfc	(___aodiv@quotient+4)& (0+255),f,b
  3397  001E7A  2377               	addwfc	(___aodiv@quotient+5)& (0+255),f,b
  3398  001E7C  2378               	addwfc	(___aodiv@quotient+6)& (0+255),f,b
  3399  001E7E  2379               	addwfc	(___aodiv@quotient+7)& (0+255),f,b
  3400  001E80                     l4686:
  3401                           
  3402                           ; BSR set to: 0
  3403  001E80  C072  F060         	movff	___aodiv@quotient,?___aodiv
  3404  001E84  C073  F061         	movff	___aodiv@quotient+1,?___aodiv+1
  3405  001E88  C074  F062         	movff	___aodiv@quotient+2,?___aodiv+2
  3406  001E8C  C075  F063         	movff	___aodiv@quotient+3,?___aodiv+3
  3407  001E90  C076  F064         	movff	___aodiv@quotient+4,?___aodiv+4
  3408  001E94  C077  F065         	movff	___aodiv@quotient+5,?___aodiv+5
  3409  001E98  C078  F066         	movff	___aodiv@quotient+6,?___aodiv+6
  3410  001E9C  C079  F067         	movff	___aodiv@quotient+7,?___aodiv+7
  3411  001EA0                     
  3412                           ; BSR set to: 0
  3413  001EA0  0012               	return		;funcret
  3414  001EA2                     __end_of___aodiv:
  3415                           	callstack 0
  3416                           
  3417 ;; *************** function _calcMotorPow *****************
  3418 ;; Defined at:
  3419 ;;		line 222 in file "main.c"
  3420 ;; Parameters:    Size  Location     Type
  3421 ;;		None
  3422 ;; Auto vars:     Size  Location     Type
  3423 ;;  factor          4   57[BANK0 ] float 
  3424 ;;  addMPow         2   63[BANK0 ] short 
  3425 ;;  setSpeedDelt    2   61[BANK0 ] short 
  3426 ;; Return value:  Size  Location     Type
  3427 ;;                  1    wreg      void 
  3428 ;; Registers used:
  3429 ;;		wreg, status,2, status,0, prodl, prodh, cstack
  3430 ;; Tracked objects:
  3431 ;;		On entry : 0/0
  3432 ;;		On exit  : 0/0
  3433 ;;		Unchanged: 0/0
  3434 ;; Data sizes:     COMRAM   BANK0   BANK1   BANK2   BANK3   BANK4   BANK5   BANK6   BANK7   BANK8   BANK9  BANK10  BANK1
      +1  BANK12  BANK13  BANK14  BANK15
  3435 ;;      Params:         0       0       0       0       0       0       0       0       0       0       0       0       
      +0       0       0       0       0
  3436 ;;      Locals:         0       8       0       0       0       0       0       0       0       0       0       0       
      +0       0       0       0       0
  3437 ;;      Temps:          0       2       0       0       0       0       0       0       0       0       0       0       
      +0       0       0       0       0
  3438 ;;      Totals:         0      10       0       0       0       0       0       0       0       0       0       0       
      +0       0       0       0       0
  3439 ;;Total ram usage:       10 bytes
  3440 ;; Hardware stack levels used: 1
  3441 ;; Hardware stack levels required when called: 10
  3442 ;; This function calls:
  3443 ;;		___awdiv
  3444 ;;		___flmul
  3445 ;;		___fltol
  3446 ;;		___xxtofl
  3447 ;;		_actSpeed
  3448 ;;		_setMotor
  3449 ;; This function is called by:
  3450 ;;		_loop
  3451 ;; This function uses a non-reentrant model
  3452 ;;
  3453                           
  3454                           	psect	text16
  3455  001958                     __ptext16:
  3456                           	callstack 0
  3457  001958                     _calcMotorPow:
  3458                           	callstack 19
  3459  001958                     
  3460                           ;main.c: 223:     float factor = 0.5;
  3461  001958  0E00               	movlw	0
  3462  00195A  0100               	movlb	0	; () banked
  3463  00195C  6F99               	movwf	calcMotorPow@factor& (0+255),b
  3464  00195E  0E00               	movlw	0
  3465  001960  6F9A               	movwf	(calcMotorPow@factor+1)& (0+255),b
  3466  001962  0E00               	movlw	0
  3467  001964  6F9B               	movwf	(calcMotorPow@factor+2)& (0+255),b
  3468  001966  0E3F               	movlw	63
  3469  001968  6F9C               	movwf	(calcMotorPow@factor+3)& (0+255),b
  3470  00196A                     
  3471                           ; BSR set to: 0
  3472                           ;main.c: 225:     oldSpeed = currentSpeed;
  3473  00196A  C0DC  F0DA         	movff	_currentSpeed,_oldSpeed
  3474  00196E  C0DD  F0DB         	movff	_currentSpeed+1,_oldSpeed+1
  3475  001972                     
  3476                           ; BSR set to: 0
  3477                           ;main.c: 226:     currentSpeed = actSpeed();
  3478  001972  EC60  F013         	call	_actSpeed	;wreg free
  3479  001976  C020  F0DC         	movff	?_actSpeed,_currentSpeed
  3480  00197A  C021  F0DD         	movff	?_actSpeed+1,_currentSpeed+1
  3481  00197E                     
  3482                           ;main.c: 229:  int16_t setSpeedDelta = setSpeed - currentSpeed;
  3483  00197E  0100               	movlb	0	; () banked
  3484  001980  51DC               	movf	_currentSpeed& (0+255),w,b
  3485  001982  5DDE               	subwf	_setSpeed& (0+255),w,b
  3486  001984  6F9D               	movwf	calcMotorPow@setSpeedDelta& (0+255),b
  3487  001986  51DD               	movf	(_currentSpeed+1)& (0+255),w,b
  3488  001988  59DF               	subwfb	(_setSpeed+1)& (0+255),w,b
  3489  00198A  6F9E               	movwf	(calcMotorPow@setSpeedDelta+1)& (0+255),b
  3490  00198C                     
  3491                           ; BSR set to: 0
  3492                           ;main.c: 232:  addMPow = factor * (setSpeedDelta - (oldSpeedDelta / 2));
  3493  00198C  C099  F07A         	movff	calcMotorPow@factor,___flmul@a
  3494  001990  C09A  F07B         	movff	calcMotorPow@factor+1,___flmul@a+1
  3495  001994  C09B  F07C         	movff	calcMotorPow@factor+2,___flmul@a+2
  3496  001998  C09C  F07D         	movff	calcMotorPow@factor+3,___flmul@a+3
  3497  00199C  0E00               	movlw	0
  3498  00199E  6F63               	movwf	(___awdiv@divisor+1)& (0+255),b
  3499  0019A0  0E02               	movlw	2
  3500  0019A2  6F62               	movwf	___awdiv@divisor& (0+255),b
  3501  0019A4  C0D8  F060         	movff	_oldSpeedDelta,___awdiv@dividend
  3502  0019A8  C0D9  F061         	movff	_oldSpeedDelta+1,___awdiv@dividend+1
  3503  0019AC  EC4B  F012         	call	___awdiv	;wreg free
  3504  0019B0  C09D  F097         	movff	calcMotorPow@setSpeedDelta,??_calcMotorPow
  3505  0019B4  C09E  F098         	movff	calcMotorPow@setSpeedDelta+1,??_calcMotorPow+1
  3506  0019B8  0100               	movlb	0	; () banked
  3507  0019BA  5160               	movf	?___awdiv& (0+255),w,b
  3508  0019BC  5F97               	subwf	??_calcMotorPow& (0+255),f,b
  3509  0019BE  5161               	movf	(?___awdiv+1)& (0+255),w,b
  3510  0019C0  5B98               	subwfb	(??_calcMotorPow+1)& (0+255),f,b
  3511  0019C2  C097  F068         	movff	??_calcMotorPow,___xxtofl@val
  3512  0019C6  C098  F069         	movff	??_calcMotorPow+1,___xxtofl@val+1
  3513  0019CA  0E00               	movlw	0
  3514  0019CC  BF69               	btfsc	(___xxtofl@val+1)& (0+255),7,b
  3515  0019CE  0EFF               	movlw	-1
  3516  0019D0  6F6A               	movwf	(___xxtofl@val+2)& (0+255),b
  3517  0019D2  6F6B               	movwf	(___xxtofl@val+3)& (0+255),b
  3518  0019D4  0E01               	movlw	1
  3519  0019D6  ECB0  F00D         	call	___xxtofl
  3520  0019DA  C068  F076         	movff	?___xxtofl,___flmul@b
  3521  0019DE  C069  F077         	movff	?___xxtofl+1,___flmul@b+1
  3522  0019E2  C06A  F078         	movff	?___xxtofl+2,___flmul@b+2
  3523  0019E6  C06B  F079         	movff	?___xxtofl+3,___flmul@b+3
  3524  0019EA  EC0A  F008         	call	___flmul	;wreg free
  3525  0019EE  C076  F08F         	movff	?___flmul,___fltol@f1
  3526  0019F2  C077  F090         	movff	?___flmul+1,___fltol@f1+1
  3527  0019F6  C078  F091         	movff	?___flmul+2,___fltol@f1+2
  3528  0019FA  C079  F092         	movff	?___flmul+3,___fltol@f1+3
  3529  0019FE  EC8B  F010         	call	___fltol	;wreg free
  3530  001A02  C08F  F09F         	movff	?___fltol,calcMotorPow@addMPow
  3531  001A06  C090  F0A0         	movff	?___fltol+1,calcMotorPow@addMPow+1
  3532  001A0A                     
  3533                           ;main.c: 234:     if(setSpeed > 0){
  3534  001A0A  0100               	movlb	0	; () banked
  3535  001A0C  BFDF               	btfsc	(_setSpeed+1)& (0+255),7,b
  3536  001A0E  EF11  F00D         	goto	u3951
  3537  001A12  51DF               	movf	(_setSpeed+1)& (0+255),w,b
  3538  001A14  E108               	bnz	u3950
  3539  001A16  05DE               	decf	_setSpeed& (0+255),w,b
  3540  001A18  A0D8               	btfss	status,0,c
  3541  001A1A  EF11  F00D         	goto	u3951
  3542  001A1E  EF13  F00D         	goto	u3950
  3543  001A22                     u3951:
  3544  001A22  EF27  F00D         	goto	l5220
  3545  001A26                     u3950:
  3546  001A26                     
  3547                           ; BSR set to: 0
  3548                           ;main.c: 235:   if(actMotorPow < 10){
  3549  001A26  BFD7               	btfsc	(_actMotorPow+1)& (0+255),7,b
  3550  001A28  EF21  F00D         	goto	u3960
  3551  001A2C  51D7               	movf	(_actMotorPow+1)& (0+255),w,b
  3552  001A2E  E107               	bnz	u3961
  3553  001A30  0E0A               	movlw	10
  3554  001A32  5DD6               	subwf	_actMotorPow& (0+255),w,b
  3555  001A34  B0D8               	btfsc	status,0,c
  3556  001A36  EF1F  F00D         	goto	u3961
  3557  001A3A  EF21  F00D         	goto	u3960
  3558  001A3E                     u3961:
  3559  001A3E  EF58  F00D         	goto	l5230
  3560  001A42                     u3960:
  3561  001A42                     
  3562                           ; BSR set to: 0
  3563                           ;main.c: 236:    actMotorPow = defaultMotorPowerForward;
  3564  001A42  0E00               	movlw	0
  3565  001A44  6FD7               	movwf	(_actMotorPow+1)& (0+255),b
  3566  001A46  0E96               	movlw	150
  3567  001A48  6FD6               	movwf	_actMotorPow& (0+255),b
  3568  001A4A  EF58  F00D         	goto	l5230
  3569  001A4E                     l5220:
  3570                           
  3571                           ; BSR set to: 0
  3572  001A4E  BFDF               	btfsc	(_setSpeed+1)& (0+255),7,b
  3573  001A50  EF2E  F00D         	goto	u3970
  3574  001A54  EF2C  F00D         	goto	u3971
  3575  001A58                     u3971:
  3576  001A58  EF50  F00D         	goto	l5228
  3577  001A5C                     u3970:
  3578  001A5C                     
  3579                           ; BSR set to: 0
  3580                           ;main.c: 239:   if(actMotorPow > -10){
  3581  001A5C  AFD7               	btfss	(_actMotorPow+1)& (0+255),7,b
  3582  001A5E  EF3C  F00D         	goto	u3980
  3583  001A62  0EF7               	movlw	247
  3584  001A64  5DD6               	subwf	_actMotorPow& (0+255),w,b
  3585  001A66  0EFF               	movlw	255
  3586  001A68  59D7               	subwfb	(_actMotorPow+1)& (0+255),w,b
  3587  001A6A  A0D8               	btfss	status,0,c
  3588  001A6C  EF3A  F00D         	goto	u3981
  3589  001A70  EF3C  F00D         	goto	u3980
  3590  001A74                     u3981:
  3591  001A74  EF40  F00D         	goto	l5226
  3592  001A78                     u3980:
  3593  001A78                     
  3594                           ; BSR set to: 0
  3595                           ;main.c: 240:    actMotorPow = defaultMotorPowerBackward;
  3596  001A78  0E00               	movlw	0
  3597  001A7A  6FD7               	movwf	(_actMotorPow+1)& (0+255),b
  3598  001A7C  0E64               	movlw	100
  3599  001A7E  6FD6               	movwf	_actMotorPow& (0+255),b
  3600  001A80                     l5226:
  3601                           
  3602                           ; BSR set to: 0
  3603                           ;main.c: 242:   addMPow /= 2;
  3604  001A80  C09F  F060         	movff	calcMotorPow@addMPow,___awdiv@dividend
  3605  001A84  C0A0  F061         	movff	calcMotorPow@addMPow+1,___awdiv@dividend+1
  3606  001A88  0E00               	movlw	0
  3607  001A8A  6F63               	movwf	(___awdiv@divisor+1)& (0+255),b
  3608  001A8C  0E02               	movlw	2
  3609  001A8E  6F62               	movwf	___awdiv@divisor& (0+255),b
  3610  001A90  EC4B  F012         	call	___awdiv	;wreg free
  3611  001A94  C060  F09F         	movff	?___awdiv,calcMotorPow@addMPow
  3612  001A98  C061  F0A0         	movff	?___awdiv+1,calcMotorPow@addMPow+1
  3613                           
  3614                           ;main.c: 243:  }else{
  3615  001A9C  EF58  F00D         	goto	l5230
  3616  001AA0                     l5228:
  3617                           
  3618                           ; BSR set to: 0
  3619                           ;main.c: 244:   actMotorPow = 0;
  3620  001AA0  0E00               	movlw	0
  3621  001AA2  6FD7               	movwf	(_actMotorPow+1)& (0+255),b
  3622  001AA4  0E00               	movlw	0
  3623  001AA6  6FD6               	movwf	_actMotorPow& (0+255),b
  3624                           
  3625                           ;main.c: 245:         addMPow = 0;
  3626  001AA8  0E00               	movlw	0
  3627  001AAA  6FA0               	movwf	(calcMotorPow@addMPow+1)& (0+255),b
  3628  001AAC  0E00               	movlw	0
  3629  001AAE  6F9F               	movwf	calcMotorPow@addMPow& (0+255),b
  3630  001AB0                     l5230:
  3631                           
  3632                           ;main.c: 248:  actMotorPow += addMPow;
  3633  001AB0  0100               	movlb	0	; () banked
  3634  001AB2  519F               	movf	calcMotorPow@addMPow& (0+255),w,b
  3635  001AB4  27D6               	addwf	_actMotorPow& (0+255),f,b
  3636  001AB6  51A0               	movf	(calcMotorPow@addMPow+1)& (0+255),w,b
  3637  001AB8  23D7               	addwfc	(_actMotorPow+1)& (0+255),f,b
  3638  001ABA                     
  3639                           ; BSR set to: 0
  3640                           ;main.c: 250:  if(actMotorPow > maxMPowForward){
  3641  001ABA  BFD7               	btfsc	(_actMotorPow+1)& (0+255),7,b
  3642  001ABC  EF69  F00D         	goto	u3991
  3643  001AC0  0E2D               	movlw	45
  3644  001AC2  5DD6               	subwf	_actMotorPow& (0+255),w,b
  3645  001AC4  0E01               	movlw	1
  3646  001AC6  59D7               	subwfb	(_actMotorPow+1)& (0+255),w,b
  3647  001AC8  A0D8               	btfss	status,0,c
  3648  001ACA  EF69  F00D         	goto	u3991
  3649  001ACE  EF6B  F00D         	goto	u3990
  3650  001AD2                     u3991:
  3651  001AD2  EF71  F00D         	goto	l5236
  3652  001AD6                     u3990:
  3653  001AD6                     
  3654                           ; BSR set to: 0
  3655                           ;main.c: 251:   actMotorPow = maxMPowForward;
  3656  001AD6  0E01               	movlw	1
  3657  001AD8  6FD7               	movwf	(_actMotorPow+1)& (0+255),b
  3658  001ADA  0E2C               	movlw	44
  3659  001ADC  6FD6               	movwf	_actMotorPow& (0+255),b
  3660                           
  3661                           ;main.c: 252:  }else if(actMotorPow < maxMPowBackward){
  3662  001ADE  EFA5  F00D         	goto	l5246
  3663  001AE2                     l5236:
  3664                           
  3665                           ; BSR set to: 0
  3666  001AE2  AFD7               	btfss	(_actMotorPow+1)& (0+255),7,b
  3667  001AE4  EF7D  F00D         	goto	u4001
  3668  001AE8  0E38               	movlw	56
  3669  001AEA  5DD6               	subwf	_actMotorPow& (0+255),w,b
  3670  001AEC  0EFF               	movlw	255
  3671  001AEE  59D7               	subwfb	(_actMotorPow+1)& (0+255),w,b
  3672  001AF0  B0D8               	btfsc	status,0,c
  3673  001AF2  EF7D  F00D         	goto	u4001
  3674  001AF6  EF7F  F00D         	goto	u4000
  3675  001AFA                     u4001:
  3676  001AFA  EF85  F00D         	goto	l5240
  3677  001AFE                     u4000:
  3678  001AFE                     
  3679                           ; BSR set to: 0
  3680                           ;main.c: 253:   actMotorPow = maxMPowBackward;
  3681  001AFE  0EFF               	movlw	255
  3682  001B00  6FD7               	movwf	(_actMotorPow+1)& (0+255),b
  3683  001B02  0E38               	movlw	56
  3684  001B04  6FD6               	movwf	_actMotorPow& (0+255),b
  3685                           
  3686                           ;main.c: 254:  }else if(actMotorPow < 10 && actMotorPow > -10){
  3687  001B06  EFA5  F00D         	goto	l5246
  3688  001B0A                     l5240:
  3689                           
  3690                           ; BSR set to: 0
  3691  001B0A  BFD7               	btfsc	(_actMotorPow+1)& (0+255),7,b
  3692  001B0C  EF93  F00D         	goto	u4010
  3693  001B10  51D7               	movf	(_actMotorPow+1)& (0+255),w,b
  3694  001B12  E107               	bnz	u4011
  3695  001B14  0E0A               	movlw	10
  3696  001B16  5DD6               	subwf	_actMotorPow& (0+255),w,b
  3697  001B18  B0D8               	btfsc	status,0,c
  3698  001B1A  EF91  F00D         	goto	u4011
  3699  001B1E  EF93  F00D         	goto	u4010
  3700  001B22                     u4011:
  3701  001B22  EFA5  F00D         	goto	l5246
  3702  001B26                     u4010:
  3703  001B26                     
  3704                           ; BSR set to: 0
  3705  001B26  AFD7               	btfss	(_actMotorPow+1)& (0+255),7,b
  3706  001B28  EFA1  F00D         	goto	u4020
  3707  001B2C  0EF7               	movlw	247
  3708  001B2E  5DD6               	subwf	_actMotorPow& (0+255),w,b
  3709  001B30  0EFF               	movlw	255
  3710  001B32  59D7               	subwfb	(_actMotorPow+1)& (0+255),w,b
  3711  001B34  A0D8               	btfss	status,0,c
  3712  001B36  EF9F  F00D         	goto	u4021
  3713  001B3A  EFA1  F00D         	goto	u4020
  3714  001B3E                     u4021:
  3715  001B3E  EFA5  F00D         	goto	l5246
  3716  001B42                     u4020:
  3717  001B42                     
  3718                           ; BSR set to: 0
  3719                           ;main.c: 255:   actMotorPow = 0;
  3720  001B42  0E00               	movlw	0
  3721  001B44  6FD7               	movwf	(_actMotorPow+1)& (0+255),b
  3722  001B46  0E00               	movlw	0
  3723  001B48  6FD6               	movwf	_actMotorPow& (0+255),b
  3724  001B4A                     l5246:
  3725                           
  3726                           ; BSR set to: 0
  3727                           ;main.c: 259:     setMotor(actMotorPow);
  3728  001B4A  C0D6  F062         	movff	_actMotorPow,setMotor@MotorPower
  3729  001B4E  C0D7  F063         	movff	_actMotorPow+1,setMotor@MotorPower+1
  3730  001B52  EC0F  F011         	call	_setMotor	;wreg free
  3731  001B56                     
  3732                           ;main.c: 261:     oldSpeedDelta = setSpeedDelta;
  3733  001B56  C09D  F0D8         	movff	calcMotorPow@setSpeedDelta,_oldSpeedDelta
  3734  001B5A  C09E  F0D9         	movff	calcMotorPow@setSpeedDelta+1,_oldSpeedDelta+1
  3735  001B5E  0012               	return		;funcret
  3736  001B60                     __end_of_calcMotorPow:
  3737                           	callstack 0
  3738                           
  3739 ;; *************** function _setMotor *****************
  3740 ;; Defined at:
  3741 ;;		line 264 in file "main.c"
  3742 ;; Parameters:    Size  Location     Type
  3743 ;;  MotorPower      2    2[BANK0 ] short 
  3744 ;; Auto vars:     Size  Location     Type
  3745 ;;  limit           2    0        short 
  3746 ;; Return value:  Size  Location     Type
  3747 ;;                  1    wreg      void 
  3748 ;; Registers used:
  3749 ;;		wreg, status,2, status,0, cstack
  3750 ;; Tracked objects:
  3751 ;;		On entry : 0/0
  3752 ;;		On exit  : 0/0
  3753 ;;		Unchanged: 0/0
  3754 ;; Data sizes:     COMRAM   BANK0   BANK1   BANK2   BANK3   BANK4   BANK5   BANK6   BANK7   BANK8   BANK9  BANK10  BANK1
      +1  BANK12  BANK13  BANK14  BANK15
  3755 ;;      Params:         0       2       0       0       0       0       0       0       0       0       0       0       
      +0       0       0       0       0
  3756 ;;      Locals:         0       0       0       0       0       0       0       0       0       0       0       0       
      +0       0       0       0       0
  3757 ;;      Temps:          0       2       0       0       0       0       0       0       0       0       0       0       
      +0       0       0       0       0
  3758 ;;      Totals:         0       4       0       0       0       0       0       0       0       0       0       0       
      +0       0       0       0       0
  3759 ;;Total ram usage:        4 bytes
  3760 ;; Hardware stack levels used: 1
  3761 ;; Hardware stack levels required when called: 9
  3762 ;; This function calls:
  3763 ;;		_PWM7_LoadDutyValue
  3764 ;;		_PWM8_LoadDutyValue
  3765 ;; This function is called by:
  3766 ;;		_calcMotorPow
  3767 ;; This function uses a non-reentrant model
  3768 ;;
  3769                           
  3770                           	psect	text17
  3771  00221E                     __ptext17:
  3772                           	callstack 0
  3773  00221E                     _setMotor:
  3774                           	callstack 19
  3775  00221E                     
  3776                           ;main.c: 266:     if(MotorPower > 8){
  3777  00221E  0100               	movlb	0	; () banked
  3778  002220  BF63               	btfsc	(setMotor@MotorPower+1)& (0+255),7,b
  3779  002222  EF1C  F011         	goto	u3551
  3780  002226  5163               	movf	(setMotor@MotorPower+1)& (0+255),w,b
  3781  002228  E109               	bnz	u3550
  3782  00222A  0E09               	movlw	9
  3783  00222C  5D62               	subwf	setMotor@MotorPower& (0+255),w,b
  3784  00222E  A0D8               	btfss	status,0,c
  3785  002230  EF1C  F011         	goto	u3551
  3786  002234  EF1E  F011         	goto	u3550
  3787  002238                     u3551:
  3788  002238  EF3E  F011         	goto	l4942
  3789  00223C                     u3550:
  3790  00223C                     
  3791                           ; BSR set to: 0
  3792                           ;main.c: 267:        if(MotorPower > limit){
  3793  00223C  BF63               	btfsc	(setMotor@MotorPower+1)& (0+255),7,b
  3794  00223E  EF2A  F011         	goto	u3561
  3795  002242  5163               	movf	(setMotor@MotorPower+1)& (0+255),w,b
  3796  002244  E109               	bnz	u3560
  3797  002246  0E65               	movlw	101
  3798  002248  5D62               	subwf	setMotor@MotorPower& (0+255),w,b
  3799  00224A  A0D8               	btfss	status,0,c
  3800  00224C  EF2A  F011         	goto	u3561
  3801  002250  EF2C  F011         	goto	u3560
  3802  002254                     u3561:
  3803  002254  EF30  F011         	goto	l4940
  3804  002258                     u3560:
  3805  002258                     
  3806                           ; BSR set to: 0
  3807                           ;main.c: 268:             MotorPower = limit;
  3808  002258  0E00               	movlw	0
  3809  00225A  6F63               	movwf	(setMotor@MotorPower+1)& (0+255),b
  3810  00225C  0E64               	movlw	100
  3811  00225E  6F62               	movwf	setMotor@MotorPower& (0+255),b
  3812  002260                     l4940:
  3813                           
  3814                           ; BSR set to: 0
  3815                           ;main.c: 270:         PWM7_LoadDutyValue(MotorPower);
  3816  002260  C062  F020         	movff	setMotor@MotorPower,PWM7_LoadDutyValue@dutyValue
  3817  002264  C063  F021         	movff	setMotor@MotorPower+1,PWM7_LoadDutyValue@dutyValue+1
  3818  002268  EC99  F017         	call	_PWM7_LoadDutyValue	;wreg free
  3819                           
  3820                           ;main.c: 271:         PWM8_LoadDutyValue(0);
  3821  00226C  0E00               	movlw	0
  3822  00226E  6E21               	movwf	(PWM8_LoadDutyValue@dutyValue+1)^0,c
  3823  002270  0E00               	movlw	0
  3824  002272  6E20               	movwf	PWM8_LoadDutyValue@dutyValue^0,c
  3825  002274  EC7E  F017         	call	_PWM8_LoadDutyValue	;wreg free
  3826                           
  3827                           ;main.c: 272:     } else if(MotorPower < -8){
  3828  002278  EF81  F011         	goto	l1268
  3829  00227C                     l4942:
  3830                           
  3831                           ; BSR set to: 0
  3832  00227C  AF63               	btfss	(setMotor@MotorPower+1)& (0+255),7,b
  3833  00227E  EF4A  F011         	goto	u3571
  3834  002282  0EF8               	movlw	248
  3835  002284  5D62               	subwf	setMotor@MotorPower& (0+255),w,b
  3836  002286  0EFF               	movlw	255
  3837  002288  5963               	subwfb	(setMotor@MotorPower+1)& (0+255),w,b
  3838  00228A  B0D8               	btfsc	status,0,c
  3839  00228C  EF4A  F011         	goto	u3571
  3840  002290  EF4C  F011         	goto	u3570
  3841  002294                     u3571:
  3842  002294  EF75  F011         	goto	l4950
  3843  002298                     u3570:
  3844  002298                     
  3845                           ; BSR set to: 0
  3846                           ;main.c: 273:         if(MotorPower < -limit){
  3847  002298  AF63               	btfss	(setMotor@MotorPower+1)& (0+255),7,b
  3848  00229A  EF58  F011         	goto	u3581
  3849  00229E  0E9C               	movlw	156
  3850  0022A0  5D62               	subwf	setMotor@MotorPower& (0+255),w,b
  3851  0022A2  0EFF               	movlw	255
  3852  0022A4  5963               	subwfb	(setMotor@MotorPower+1)& (0+255),w,b
  3853  0022A6  B0D8               	btfsc	status,0,c
  3854  0022A8  EF58  F011         	goto	u3581
  3855  0022AC  EF5A  F011         	goto	u3580
  3856  0022B0                     u3581:
  3857  0022B0  EF5E  F011         	goto	l4948
  3858  0022B4                     u3580:
  3859  0022B4                     
  3860                           ; BSR set to: 0
  3861                           ;main.c: 274:             MotorPower = -limit;
  3862  0022B4  0EFF               	movlw	255
  3863  0022B6  6F63               	movwf	(setMotor@MotorPower+1)& (0+255),b
  3864  0022B8  0E9C               	movlw	156
  3865  0022BA  6F62               	movwf	setMotor@MotorPower& (0+255),b
  3866  0022BC                     l4948:
  3867                           
  3868                           ; BSR set to: 0
  3869                           ;main.c: 276:         PWM7_LoadDutyValue(0);
  3870  0022BC  0E00               	movlw	0
  3871  0022BE  6E21               	movwf	(PWM7_LoadDutyValue@dutyValue+1)^0,c
  3872  0022C0  0E00               	movlw	0
  3873  0022C2  6E20               	movwf	PWM7_LoadDutyValue@dutyValue^0,c
  3874  0022C4  EC99  F017         	call	_PWM7_LoadDutyValue	;wreg free
  3875                           
  3876                           ;main.c: 277:         PWM8_LoadDutyValue(-MotorPower);
  3877  0022C8  C062  F064         	movff	setMotor@MotorPower,??_setMotor
  3878  0022CC  C063  F065         	movff	setMotor@MotorPower+1,??_setMotor+1
  3879  0022D0  0100               	movlb	0	; () banked
  3880  0022D2  1F64               	comf	??_setMotor& (0+255),f,b
  3881  0022D4  1F65               	comf	(??_setMotor+1)& (0+255),f,b
  3882  0022D6  4B64               	infsnz	??_setMotor& (0+255),f,b
  3883  0022D8  2B65               	incf	(??_setMotor+1)& (0+255),f,b
  3884  0022DA  C064  F020         	movff	??_setMotor,PWM8_LoadDutyValue@dutyValue
  3885  0022DE  C065  F021         	movff	??_setMotor+1,PWM8_LoadDutyValue@dutyValue+1
  3886  0022E2  EC7E  F017         	call	_PWM8_LoadDutyValue	;wreg free
  3887                           
  3888                           ;main.c: 278:     } else {
  3889  0022E6  EF81  F011         	goto	l1268
  3890  0022EA                     l4950:
  3891                           
  3892                           ; BSR set to: 0
  3893                           ;main.c: 279:         PWM7_LoadDutyValue(0);
  3894  0022EA  0E00               	movlw	0
  3895  0022EC  6E21               	movwf	(PWM7_LoadDutyValue@dutyValue+1)^0,c
  3896  0022EE  0E00               	movlw	0
  3897  0022F0  6E20               	movwf	PWM7_LoadDutyValue@dutyValue^0,c
  3898  0022F2  EC99  F017         	call	_PWM7_LoadDutyValue	;wreg free
  3899                           
  3900                           ;main.c: 280:         PWM8_LoadDutyValue(0);
  3901  0022F6  0E00               	movlw	0
  3902  0022F8  6E21               	movwf	(PWM8_LoadDutyValue@dutyValue+1)^0,c
  3903  0022FA  0E00               	movlw	0
  3904  0022FC  6E20               	movwf	PWM8_LoadDutyValue@dutyValue^0,c
  3905  0022FE  EC7E  F017         	call	_PWM8_LoadDutyValue	;wreg free
  3906  002302                     l1268:
  3907  002302  0012               	return		;funcret
  3908  002304                     __end_of_setMotor:
  3909                           	callstack 0
  3910                           
  3911 ;; *************** function _PWM8_LoadDutyValue *****************
  3912 ;; Defined at:
  3913 ;;		line 74 in file "mcc_generated_files/pwm8.c"
  3914 ;; Parameters:    Size  Location     Type
  3915 ;;  dutyValue       2   31[COMRAM] unsigned short 
  3916 ;; Auto vars:     Size  Location     Type
  3917 ;;		None
  3918 ;; Return value:  Size  Location     Type
  3919 ;;                  1    wreg      void 
  3920 ;; Registers used:
  3921 ;;		wreg, status,2, status,0
  3922 ;; Tracked objects:
  3923 ;;		On entry : 0/0
  3924 ;;		On exit  : 0/0
  3925 ;;		Unchanged: 0/0
  3926 ;; Data sizes:     COMRAM   BANK0   BANK1   BANK2   BANK3   BANK4   BANK5   BANK6   BANK7   BANK8   BANK9  BANK10  BANK1
      +1  BANK12  BANK13  BANK14  BANK15
  3927 ;;      Params:         2       0       0       0       0       0       0       0       0       0       0       0       
      +0       0       0       0       0
  3928 ;;      Locals:         0       0       0       0       0       0       0       0       0       0       0       0       
      +0       0       0       0       0
  3929 ;;      Temps:          0       2       0       0       0       0       0       0       0       0       0       0       
      +0       0       0       0       0
  3930 ;;      Totals:         2       2       0       0       0       0       0       0       0       0       0       0       
      +0       0       0       0       0
  3931 ;;Total ram usage:        4 bytes
  3932 ;; Hardware stack levels used: 1
  3933 ;; Hardware stack levels required when called: 8
  3934 ;; This function calls:
  3935 ;;		Nothing
  3936 ;; This function is called by:
  3937 ;;		_setMotor
  3938 ;; This function uses a non-reentrant model
  3939 ;;
  3940                           
  3941                           	psect	text18
  3942  002EFC                     __ptext18:
  3943                           	callstack 0
  3944  002EFC                     _PWM8_LoadDutyValue:
  3945                           	callstack 19
  3946  002EFC                     
  3947                           ;mcc_generated_files/pwm8.c: 74:  void PWM8_LoadDutyValue(uint16_t dutyValue);mcc_genera
      +                          ted_files/pwm8.c: 75:  {;mcc_generated_files/pwm8.c: 77:      PWM8DCH = (dutyValue & 0x0
      +                          3FC)>>2;
  3948  002EFC  C020  F060         	movff	PWM8_LoadDutyValue@dutyValue,??_PWM8_LoadDutyValue
  3949  002F00  C021  F061         	movff	PWM8_LoadDutyValue@dutyValue+1,??_PWM8_LoadDutyValue+1
  3950  002F04  0100               	movlb	0	; () banked
  3951  002F06  90D8               	bcf	status,0,c
  3952  002F08  3361               	rrcf	(??_PWM8_LoadDutyValue+1)& (0+255),f,b
  3953  002F0A  3360               	rrcf	??_PWM8_LoadDutyValue& (0+255),f,b
  3954  002F0C  90D8               	bcf	status,0,c
  3955  002F0E  3361               	rrcf	(??_PWM8_LoadDutyValue+1)& (0+255),f,b
  3956  002F10  3360               	rrcf	??_PWM8_LoadDutyValue& (0+255),f,b
  3957  002F12  5160               	movf	??_PWM8_LoadDutyValue& (0+255),w,b
  3958  002F14  6E61               	movwf	97,c	;volatile
  3959                           
  3960                           ;mcc_generated_files/pwm8.c: 80:      PWM8DCL = (dutyValue & 0x0003)<<6;
  3961  002F16  C020  F060         	movff	PWM8_LoadDutyValue@dutyValue,??_PWM8_LoadDutyValue
  3962  002F1A  0E03               	movlw	3
  3963  002F1C  1760               	andwf	??_PWM8_LoadDutyValue& (0+255),f,b
  3964  002F1E  0E06               	movlw	6
  3965  002F20  6F61               	movwf	(??_PWM8_LoadDutyValue+1)& (0+255),b
  3966  002F22                     u3455:
  3967  002F22  90D8               	bcf	status,0,c
  3968  002F24  3760               	rlcf	??_PWM8_LoadDutyValue& (0+255),f,b
  3969  002F26  2F61               	decfsz	(??_PWM8_LoadDutyValue+1)& (0+255),f,b
  3970  002F28  EF91  F017         	goto	u3455
  3971  002F2C  5160               	movf	??_PWM8_LoadDutyValue& (0+255),w,b
  3972  002F2E  6E60               	movwf	96,c	;volatile
  3973  002F30                     
  3974                           ; BSR set to: 0
  3975  002F30  0012               	return		;funcret
  3976  002F32                     __end_of_PWM8_LoadDutyValue:
  3977                           	callstack 0
  3978                           
  3979 ;; *************** function _PWM7_LoadDutyValue *****************
  3980 ;; Defined at:
  3981 ;;		line 74 in file "mcc_generated_files/pwm7.c"
  3982 ;; Parameters:    Size  Location     Type
  3983 ;;  dutyValue       2   31[COMRAM] unsigned short 
  3984 ;; Auto vars:     Size  Location     Type
  3985 ;;		None
  3986 ;; Return value:  Size  Location     Type
  3987 ;;                  1    wreg      void 
  3988 ;; Registers used:
  3989 ;;		wreg, status,2, status,0
  3990 ;; Tracked objects:
  3991 ;;		On entry : 0/0
  3992 ;;		On exit  : 0/0
  3993 ;;		Unchanged: 0/0
  3994 ;; Data sizes:     COMRAM   BANK0   BANK1   BANK2   BANK3   BANK4   BANK5   BANK6   BANK7   BANK8   BANK9  BANK10  BANK1
      +1  BANK12  BANK13  BANK14  BANK15
  3995 ;;      Params:         2       0       0       0       0       0       0       0       0       0       0       0       
      +0       0       0       0       0
  3996 ;;      Locals:         0       0       0       0       0       0       0       0       0       0       0       0       
      +0       0       0       0       0
  3997 ;;      Temps:          0       2       0       0       0       0       0       0       0       0       0       0       
      +0       0       0       0       0
  3998 ;;      Totals:         2       2       0       0       0       0       0       0       0       0       0       0       
      +0       0       0       0       0
  3999 ;;Total ram usage:        4 bytes
  4000 ;; Hardware stack levels used: 1
  4001 ;; Hardware stack levels required when called: 8
  4002 ;; This function calls:
  4003 ;;		Nothing
  4004 ;; This function is called by:
  4005 ;;		_setMotor
  4006 ;; This function uses a non-reentrant model
  4007 ;;
  4008                           
  4009                           	psect	text19
  4010  002F32                     __ptext19:
  4011                           	callstack 0
  4012  002F32                     _PWM7_LoadDutyValue:
  4013                           	callstack 19
  4014  002F32                     
  4015                           ;mcc_generated_files/pwm7.c: 74:  void PWM7_LoadDutyValue(uint16_t dutyValue);mcc_genera
      +                          ted_files/pwm7.c: 75:  {;mcc_generated_files/pwm7.c: 77:      PWM7DCH = (dutyValue & 0x0
      +                          3FC)>>2;
  4016  002F32  C020  F060         	movff	PWM7_LoadDutyValue@dutyValue,??_PWM7_LoadDutyValue
  4017  002F36  C021  F061         	movff	PWM7_LoadDutyValue@dutyValue+1,??_PWM7_LoadDutyValue+1
  4018  002F3A  0100               	movlb	0	; () banked
  4019  002F3C  90D8               	bcf	status,0,c
  4020  002F3E  3361               	rrcf	(??_PWM7_LoadDutyValue+1)& (0+255),f,b
  4021  002F40  3360               	rrcf	??_PWM7_LoadDutyValue& (0+255),f,b
  4022  002F42  90D8               	bcf	status,0,c
  4023  002F44  3361               	rrcf	(??_PWM7_LoadDutyValue+1)& (0+255),f,b
  4024  002F46  3360               	rrcf	??_PWM7_LoadDutyValue& (0+255),f,b
  4025  002F48  5160               	movf	??_PWM7_LoadDutyValue& (0+255),w,b
  4026  002F4A  6E65               	movwf	101,c	;volatile
  4027                           
  4028                           ;mcc_generated_files/pwm7.c: 80:      PWM7DCL = (dutyValue & 0x0003)<<6;
  4029  002F4C  C020  F060         	movff	PWM7_LoadDutyValue@dutyValue,??_PWM7_LoadDutyValue
  4030  002F50  0E03               	movlw	3
  4031  002F52  1760               	andwf	??_PWM7_LoadDutyValue& (0+255),f,b
  4032  002F54  0E06               	movlw	6
  4033  002F56  6F61               	movwf	(??_PWM7_LoadDutyValue+1)& (0+255),b
  4034  002F58                     u3445:
  4035  002F58  90D8               	bcf	status,0,c
  4036  002F5A  3760               	rlcf	??_PWM7_LoadDutyValue& (0+255),f,b
  4037  002F5C  2F61               	decfsz	(??_PWM7_LoadDutyValue+1)& (0+255),f,b
  4038  002F5E  EFAC  F017         	goto	u3445
  4039  002F62  5160               	movf	??_PWM7_LoadDutyValue& (0+255),w,b
  4040  002F64  6E64               	movwf	100,c	;volatile
  4041  002F66                     
  4042                           ; BSR set to: 0
  4043  002F66  0012               	return		;funcret
  4044  002F68                     __end_of_PWM7_LoadDutyValue:
  4045                           	callstack 0
  4046                           
  4047 ;; *************** function _actSpeed *****************
  4048 ;; Defined at:
  4049 ;;		line 122 in file "main.c"
  4050 ;; Parameters:    Size  Location     Type
  4051 ;;		None
  4052 ;; Auto vars:     Size  Location     Type
  4053 ;;  speed           2   14[BANK0 ] short 
  4054 ;; Return value:  Size  Location     Type
  4055 ;;                  2   31[COMRAM] short 
  4056 ;; Registers used:
  4057 ;;		wreg, status,2, status,0, cstack
  4058 ;; Tracked objects:
  4059 ;;		On entry : 0/0
  4060 ;;		On exit  : 0/0
  4061 ;;		Unchanged: 0/0
  4062 ;; Data sizes:     COMRAM   BANK0   BANK1   BANK2   BANK3   BANK4   BANK5   BANK6   BANK7   BANK8   BANK9  BANK10  BANK1
      +1  BANK12  BANK13  BANK14  BANK15
  4063 ;;      Params:         2       0       0       0       0       0       0       0       0       0       0       0       
      +0       0       0       0       0
  4064 ;;      Locals:         0       2       0       0       0       0       0       0       0       0       0       0       
      +0       0       0       0       0
  4065 ;;      Temps:          0       0       0       0       0       0       0       0       0       0       0       0       
      +0       0       0       0       0
  4066 ;;      Totals:         2       2       0       0       0       0       0       0       0       0       0       0       
      +0       0       0       0       0
  4067 ;;Total ram usage:        4 bytes
  4068 ;; Hardware stack levels used: 1
  4069 ;; Hardware stack levels required when called: 9
  4070 ;; This function calls:
  4071 ;;		___aldiv
  4072 ;; This function is called by:
  4073 ;;		_calcMotorPow
  4074 ;; This function uses a non-reentrant model
  4075 ;;
  4076                           
  4077                           	psect	text20
  4078  0026C0                     __ptext20:
  4079                           	callstack 0
  4080  0026C0                     _actSpeed:
  4081                           	callstack 19
  4082  0026C0                     
  4083                           ;main.c: 123:     int16_t speed = 0;
  4084  0026C0  0E00               	movlw	0
  4085  0026C2  0100               	movlb	0	; () banked
  4086  0026C4  6F6F               	movwf	(actSpeed@speed+1)& (0+255),b
  4087  0026C6  0E00               	movlw	0
  4088  0026C8  6F6E               	movwf	actSpeed@speed& (0+255),b
  4089  0026CA                     
  4090                           ; BSR set to: 0
  4091                           ;main.c: 124:     if(smtPeriod){
  4092  0026CA  5039               	movf	_smtPeriod^0,w,c	;volatile
  4093  0026CC  103A               	iorwf	(_smtPeriod+1)^0,w,c	;volatile
  4094  0026CE  103B               	iorwf	(_smtPeriod+2)^0,w,c	;volatile
  4095  0026D0  103C               	iorwf	(_smtPeriod+3)^0,w,c	;volatile
  4096  0026D2  B4D8               	btfsc	status,2,c
  4097  0026D4  EF6E  F013         	goto	u3531
  4098  0026D8  EF70  F013         	goto	u3530
  4099  0026DC                     u3531:
  4100  0026DC  EFA8  F013         	goto	l4928
  4101  0026E0                     u3530:
  4102  0026E0                     
  4103                           ; BSR set to: 0
  4104                           ;main.c: 125:         if(CLC3CONbits.LC3OUT){
  4105  0026E0  013C               	movlb	60	; () banked
  4106  0026E2  AB60               	btfss	96,5,b	;volatile
  4107  0026E4  EF76  F013         	goto	u3541
  4108  0026E8  EF78  F013         	goto	u3540
  4109  0026EC                     u3541:
  4110  0026EC  EF91  F013         	goto	l4926
  4111  0026F0                     u3540:
  4112  0026F0                     
  4113                           ; BSR set to: 60
  4114                           ;main.c: 126:             speed = ((int32_t)(500000 / (int32_t)smtPeriod));
  4115  0026F0  0E20               	movlw	32
  4116  0026F2  0100               	movlb	0	; () banked
  4117  0026F4  6F60               	movwf	___aldiv@dividend& (0+255),b
  4118  0026F6  0EA1               	movlw	161
  4119  0026F8  6F61               	movwf	(___aldiv@dividend+1)& (0+255),b
  4120  0026FA  0E07               	movlw	7
  4121  0026FC  6F62               	movwf	(___aldiv@dividend+2)& (0+255),b
  4122  0026FE  0E00               	movlw	0
  4123  002700  6F63               	movwf	(___aldiv@dividend+3)& (0+255),b
  4124  002702  C039  F064         	movff	_smtPeriod,___aldiv@divisor	;volatile
  4125  002706  C03A  F065         	movff	_smtPeriod+1,___aldiv@divisor+1	;volatile
  4126  00270A  C03B  F066         	movff	_smtPeriod+2,___aldiv@divisor+2	;volatile
  4127  00270E  C03C  F067         	movff	_smtPeriod+3,___aldiv@divisor+3	;volatile
  4128  002712  EC04  F010         	call	___aldiv	;wreg free
  4129  002716  C060  F06E         	movff	?___aldiv,actSpeed@speed
  4130  00271A  C061  F06F         	movff	?___aldiv+1,actSpeed@speed+1
  4131                           
  4132                           ;main.c: 127:         } else {
  4133  00271E  EFA8  F013         	goto	l4928
  4134  002722                     l4926:
  4135                           
  4136                           ; BSR set to: 60
  4137                           ;main.c: 128:             speed = ((int32_t)(-500000 / (int32_t)smtPeriod));
  4138  002722  0EE0               	movlw	224
  4139  002724  0100               	movlb	0	; () banked
  4140  002726  6F60               	movwf	___aldiv@dividend& (0+255),b
  4141  002728  0E5E               	movlw	94
  4142  00272A  6F61               	movwf	(___aldiv@dividend+1)& (0+255),b
  4143  00272C  0EF8               	movlw	248
  4144  00272E  6F62               	movwf	(___aldiv@dividend+2)& (0+255),b
  4145  002730  0EFF               	movlw	255
  4146  002732  6F63               	movwf	(___aldiv@dividend+3)& (0+255),b
  4147  002734  C039  F064         	movff	_smtPeriod,___aldiv@divisor	;volatile
  4148  002738  C03A  F065         	movff	_smtPeriod+1,___aldiv@divisor+1	;volatile
  4149  00273C  C03B  F066         	movff	_smtPeriod+2,___aldiv@divisor+2	;volatile
  4150  002740  C03C  F067         	movff	_smtPeriod+3,___aldiv@divisor+3	;volatile
  4151  002744  EC04  F010         	call	___aldiv	;wreg free
  4152  002748  C060  F06E         	movff	?___aldiv,actSpeed@speed
  4153  00274C  C061  F06F         	movff	?___aldiv+1,actSpeed@speed+1
  4154  002750                     l4928:
  4155                           
  4156                           ;main.c: 131:     return speed;
  4157  002750  C06E  F020         	movff	actSpeed@speed,?_actSpeed
  4158  002754  C06F  F021         	movff	actSpeed@speed+1,?_actSpeed+1
  4159  002758  0012               	return		;funcret
  4160  00275A                     __end_of_actSpeed:
  4161                           	callstack 0
  4162                           
  4163 ;; *************** function ___aldiv *****************
  4164 ;; Defined at:
  4165 ;;		line 7 in file "C:\Program Files\Microchip\xc8\v2.36\pic\sources\c99\common\aldiv.c"
  4166 ;; Parameters:    Size  Location     Type
  4167 ;;  dividend        4    0[BANK0 ] long 
  4168 ;;  divisor         4    4[BANK0 ] long 
  4169 ;; Auto vars:     Size  Location     Type
  4170 ;;  quotient        4   10[BANK0 ] long 
  4171 ;;  sign            1    9[BANK0 ] unsigned char 
  4172 ;;  counter         1    8[BANK0 ] unsigned char 
  4173 ;; Return value:  Size  Location     Type
  4174 ;;                  4    0[BANK0 ] long 
  4175 ;; Registers used:
  4176 ;;		wreg, status,2, status,0
  4177 ;; Tracked objects:
  4178 ;;		On entry : 0/0
  4179 ;;		On exit  : 0/0
  4180 ;;		Unchanged: 0/0
  4181 ;; Data sizes:     COMRAM   BANK0   BANK1   BANK2   BANK3   BANK4   BANK5   BANK6   BANK7   BANK8   BANK9  BANK10  BANK1
      +1  BANK12  BANK13  BANK14  BANK15
  4182 ;;      Params:         0       8       0       0       0       0       0       0       0       0       0       0       
      +0       0       0       0       0
  4183 ;;      Locals:         0       6       0       0       0       0       0       0       0       0       0       0       
      +0       0       0       0       0
  4184 ;;      Temps:          0       0       0       0       0       0       0       0       0       0       0       0       
      +0       0       0       0       0
  4185 ;;      Totals:         0      14       0       0       0       0       0       0       0       0       0       0       
      +0       0       0       0       0
  4186 ;;Total ram usage:       14 bytes
  4187 ;; Hardware stack levels used: 1
  4188 ;; Hardware stack levels required when called: 8
  4189 ;; This function calls:
  4190 ;;		Nothing
  4191 ;; This function is called by:
  4192 ;;		_actSpeed
  4193 ;; This function uses a non-reentrant model
  4194 ;;
  4195                           
  4196                           	psect	text21
  4197  002008                     __ptext21:
  4198                           	callstack 0
  4199  002008                     ___aldiv:
  4200                           	callstack 19
  4201  002008  0E00               	movlw	0
  4202  00200A  0100               	movlb	0	; () banked
  4203  00200C  6F69               	movwf	___aldiv@sign& (0+255),b
  4204  00200E                     
  4205                           ; BSR set to: 0
  4206  00200E  BF67               	btfsc	(___aldiv@divisor+3)& (0+255),7,b
  4207  002010  EF0E  F010         	goto	u3460
  4208  002014  EF0C  F010         	goto	u3461
  4209  002018                     u3461:
  4210  002018  EF18  F010         	goto	l4868
  4211  00201C                     u3460:
  4212  00201C                     
  4213                           ; BSR set to: 0
  4214  00201C  1F67               	comf	(___aldiv@divisor+3)& (0+255),f,b
  4215  00201E  1F66               	comf	(___aldiv@divisor+2)& (0+255),f,b
  4216  002020  1F65               	comf	(___aldiv@divisor+1)& (0+255),f,b
  4217  002022  6D64               	negf	___aldiv@divisor& (0+255),b
  4218  002024  0E00               	movlw	0
  4219  002026  2365               	addwfc	(___aldiv@divisor+1)& (0+255),f,b
  4220  002028  2366               	addwfc	(___aldiv@divisor+2)& (0+255),f,b
  4221  00202A  2367               	addwfc	(___aldiv@divisor+3)& (0+255),f,b
  4222  00202C                     
  4223                           ; BSR set to: 0
  4224  00202C  0E01               	movlw	1
  4225  00202E  6F69               	movwf	___aldiv@sign& (0+255),b
  4226  002030                     l4868:
  4227                           
  4228                           ; BSR set to: 0
  4229  002030  BF63               	btfsc	(___aldiv@dividend+3)& (0+255),7,b
  4230  002032  EF1F  F010         	goto	u3470
  4231  002036  EF1D  F010         	goto	u3471
  4232  00203A                     u3471:
  4233  00203A  EF29  F010         	goto	l4874
  4234  00203E                     u3470:
  4235  00203E                     
  4236                           ; BSR set to: 0
  4237  00203E  1F63               	comf	(___aldiv@dividend+3)& (0+255),f,b
  4238  002040  1F62               	comf	(___aldiv@dividend+2)& (0+255),f,b
  4239  002042  1F61               	comf	(___aldiv@dividend+1)& (0+255),f,b
  4240  002044  6D60               	negf	___aldiv@dividend& (0+255),b
  4241  002046  0E00               	movlw	0
  4242  002048  2361               	addwfc	(___aldiv@dividend+1)& (0+255),f,b
  4243  00204A  2362               	addwfc	(___aldiv@dividend+2)& (0+255),f,b
  4244  00204C  2363               	addwfc	(___aldiv@dividend+3)& (0+255),f,b
  4245  00204E                     
  4246                           ; BSR set to: 0
  4247  00204E  0E01               	movlw	1
  4248  002050  1B69               	xorwf	___aldiv@sign& (0+255),f,b
  4249  002052                     l4874:
  4250                           
  4251                           ; BSR set to: 0
  4252  002052  0E00               	movlw	0
  4253  002054  6F6A               	movwf	___aldiv@quotient& (0+255),b
  4254  002056  0E00               	movlw	0
  4255  002058  6F6B               	movwf	(___aldiv@quotient+1)& (0+255),b
  4256  00205A  0E00               	movlw	0
  4257  00205C  6F6C               	movwf	(___aldiv@quotient+2)& (0+255),b
  4258  00205E  0E00               	movlw	0
  4259  002060  6F6D               	movwf	(___aldiv@quotient+3)& (0+255),b
  4260  002062                     
  4261                           ; BSR set to: 0
  4262  002062  5164               	movf	___aldiv@divisor& (0+255),w,b
  4263  002064  1165               	iorwf	(___aldiv@divisor+1)& (0+255),w,b
  4264  002066  1166               	iorwf	(___aldiv@divisor+2)& (0+255),w,b
  4265  002068  1167               	iorwf	(___aldiv@divisor+3)& (0+255),w,b
  4266  00206A  B4D8               	btfsc	status,2,c
  4267  00206C  EF3A  F010         	goto	u3481
  4268  002070  EF3C  F010         	goto	u3480
  4269  002074                     u3481:
  4270  002074  EF72  F010         	goto	l4896
  4271  002078                     u3480:
  4272  002078                     
  4273                           ; BSR set to: 0
  4274  002078  0E01               	movlw	1
  4275  00207A  6F68               	movwf	___aldiv@counter& (0+255),b
  4276  00207C  EF46  F010         	goto	l4882
  4277  002080                     l4880:
  4278                           
  4279                           ; BSR set to: 0
  4280  002080  90D8               	bcf	status,0,c
  4281  002082  3764               	rlcf	___aldiv@divisor& (0+255),f,b
  4282  002084  3765               	rlcf	(___aldiv@divisor+1)& (0+255),f,b
  4283  002086  3766               	rlcf	(___aldiv@divisor+2)& (0+255),f,b
  4284  002088  3767               	rlcf	(___aldiv@divisor+3)& (0+255),f,b
  4285  00208A  2B68               	incf	___aldiv@counter& (0+255),f,b
  4286  00208C                     l4882:
  4287                           
  4288                           ; BSR set to: 0
  4289  00208C  AF67               	btfss	(___aldiv@divisor+3)& (0+255),7,b
  4290  00208E  EF4B  F010         	goto	u3491
  4291  002092  EF4D  F010         	goto	u3490
  4292  002096                     u3491:
  4293  002096  EF40  F010         	goto	l4880
  4294  00209A                     u3490:
  4295  00209A                     l4884:
  4296                           
  4297                           ; BSR set to: 0
  4298  00209A  90D8               	bcf	status,0,c
  4299  00209C  376A               	rlcf	___aldiv@quotient& (0+255),f,b
  4300  00209E  376B               	rlcf	(___aldiv@quotient+1)& (0+255),f,b
  4301  0020A0  376C               	rlcf	(___aldiv@quotient+2)& (0+255),f,b
  4302  0020A2  376D               	rlcf	(___aldiv@quotient+3)& (0+255),f,b
  4303  0020A4                     
  4304                           ; BSR set to: 0
  4305  0020A4  5164               	movf	___aldiv@divisor& (0+255),w,b
  4306  0020A6  5D60               	subwf	___aldiv@dividend& (0+255),w,b
  4307  0020A8  5165               	movf	(___aldiv@divisor+1)& (0+255),w,b
  4308  0020AA  5961               	subwfb	(___aldiv@dividend+1)& (0+255),w,b
  4309  0020AC  5166               	movf	(___aldiv@divisor+2)& (0+255),w,b
  4310  0020AE  5962               	subwfb	(___aldiv@dividend+2)& (0+255),w,b
  4311  0020B0  5167               	movf	(___aldiv@divisor+3)& (0+255),w,b
  4312  0020B2  5963               	subwfb	(___aldiv@dividend+3)& (0+255),w,b
  4313  0020B4  A0D8               	btfss	status,0,c
  4314  0020B6  EF5F  F010         	goto	u3501
  4315  0020BA  EF61  F010         	goto	u3500
  4316  0020BE                     u3501:
  4317  0020BE  EF6A  F010         	goto	l4892
  4318  0020C2                     u3500:
  4319  0020C2                     
  4320                           ; BSR set to: 0
  4321  0020C2  5164               	movf	___aldiv@divisor& (0+255),w,b
  4322  0020C4  5F60               	subwf	___aldiv@dividend& (0+255),f,b
  4323  0020C6  5165               	movf	(___aldiv@divisor+1)& (0+255),w,b
  4324  0020C8  5B61               	subwfb	(___aldiv@dividend+1)& (0+255),f,b
  4325  0020CA  5166               	movf	(___aldiv@divisor+2)& (0+255),w,b
  4326  0020CC  5B62               	subwfb	(___aldiv@dividend+2)& (0+255),f,b
  4327  0020CE  5167               	movf	(___aldiv@divisor+3)& (0+255),w,b
  4328  0020D0  5B63               	subwfb	(___aldiv@dividend+3)& (0+255),f,b
  4329  0020D2                     
  4330                           ; BSR set to: 0
  4331  0020D2  816A               	bsf	___aldiv@quotient& (0+255),0,b
  4332  0020D4                     l4892:
  4333                           
  4334                           ; BSR set to: 0
  4335  0020D4  90D8               	bcf	status,0,c
  4336  0020D6  3367               	rrcf	(___aldiv@divisor+3)& (0+255),f,b
  4337  0020D8  3366               	rrcf	(___aldiv@divisor+2)& (0+255),f,b
  4338  0020DA  3365               	rrcf	(___aldiv@divisor+1)& (0+255),f,b
  4339  0020DC  3364               	rrcf	___aldiv@divisor& (0+255),f,b
  4340  0020DE                     
  4341                           ; BSR set to: 0
  4342  0020DE  2F68               	decfsz	___aldiv@counter& (0+255),f,b
  4343  0020E0  EF4D  F010         	goto	l4884
  4344  0020E4                     l4896:
  4345                           
  4346                           ; BSR set to: 0
  4347  0020E4  5169               	movf	___aldiv@sign& (0+255),w,b
  4348  0020E6  B4D8               	btfsc	status,2,c
  4349  0020E8  EF78  F010         	goto	u3511
  4350  0020EC  EF7A  F010         	goto	u3510
  4351  0020F0                     u3511:
  4352  0020F0  EF82  F010         	goto	l4900
  4353  0020F4                     u3510:
  4354  0020F4                     
  4355                           ; BSR set to: 0
  4356  0020F4  1F6D               	comf	(___aldiv@quotient+3)& (0+255),f,b
  4357  0020F6  1F6C               	comf	(___aldiv@quotient+2)& (0+255),f,b
  4358  0020F8  1F6B               	comf	(___aldiv@quotient+1)& (0+255),f,b
  4359  0020FA  6D6A               	negf	___aldiv@quotient& (0+255),b
  4360  0020FC  0E00               	movlw	0
  4361  0020FE  236B               	addwfc	(___aldiv@quotient+1)& (0+255),f,b
  4362  002100  236C               	addwfc	(___aldiv@quotient+2)& (0+255),f,b
  4363  002102  236D               	addwfc	(___aldiv@quotient+3)& (0+255),f,b
  4364  002104                     l4900:
  4365                           
  4366                           ; BSR set to: 0
  4367  002104  C06A  F060         	movff	___aldiv@quotient,?___aldiv
  4368  002108  C06B  F061         	movff	___aldiv@quotient+1,?___aldiv+1
  4369  00210C  C06C  F062         	movff	___aldiv@quotient+2,?___aldiv+2
  4370  002110  C06D  F063         	movff	___aldiv@quotient+3,?___aldiv+3
  4371  002114                     
  4372                           ; BSR set to: 0
  4373  002114  0012               	return		;funcret
  4374  002116                     __end_of___aldiv:
  4375                           	callstack 0
  4376                           
  4377 ;; *************** function ___xxtofl *****************
  4378 ;; Defined at:
  4379 ;;		line 10 in file "C:\Program Files\Microchip\xc8\v2.36\pic\sources\c99\common\xxtofl.c"
  4380 ;; Parameters:    Size  Location     Type
  4381 ;;  sign            1    wreg     unsigned char 
  4382 ;;  val             4    8[BANK0 ] long 
  4383 ;; Auto vars:     Size  Location     Type
  4384 ;;  sign            1   16[BANK0 ] unsigned char 
  4385 ;;  arg             4   18[BANK0 ] unsigned long 
  4386 ;;  exp             1   17[BANK0 ] unsigned char 
  4387 ;; Return value:  Size  Location     Type
  4388 ;;                  4    8[BANK0 ] unsigned char 
  4389 ;; Registers used:
  4390 ;;		wreg, status,2, status,0
  4391 ;; Tracked objects:
  4392 ;;		On entry : 0/0
  4393 ;;		On exit  : 0/0
  4394 ;;		Unchanged: 0/0
  4395 ;; Data sizes:     COMRAM   BANK0   BANK1   BANK2   BANK3   BANK4   BANK5   BANK6   BANK7   BANK8   BANK9  BANK10  BANK1
      +1  BANK12  BANK13  BANK14  BANK15
  4396 ;;      Params:         0       4       0       0       0       0       0       0       0       0       0       0       
      +0       0       0       0       0
  4397 ;;      Locals:         0       6       0       0       0       0       0       0       0       0       0       0       
      +0       0       0       0       0
  4398 ;;      Temps:          0       4       0       0       0       0       0       0       0       0       0       0       
      +0       0       0       0       0
  4399 ;;      Totals:         0      14       0       0       0       0       0       0       0       0       0       0       
      +0       0       0       0       0
  4400 ;;Total ram usage:       14 bytes
  4401 ;; Hardware stack levels used: 1
  4402 ;; Hardware stack levels required when called: 8
  4403 ;; This function calls:
  4404 ;;		Nothing
  4405 ;; This function is called by:
  4406 ;;		_calcMotorPow
  4407 ;; This function uses a non-reentrant model
  4408 ;;
  4409                           
  4410                           	psect	text22
  4411  001B60                     __ptext22:
  4412                           	callstack 0
  4413  001B60                     ___xxtofl:
  4414                           	callstack 20
  4415                           
  4416                           ; BSR set to: 0
  4417                           ;incstack = 0
  4418                           ;___xxtofl@sign stored from wreg
  4419  001B60  0100               	movlb	0	; () banked
  4420  001B62  6F70               	movwf	___xxtofl@sign& (0+255),b
  4421  001B64  0100               	movlb	0	; () banked
  4422  001B66  5170               	movf	___xxtofl@sign& (0+255),w,b
  4423  001B68  B4D8               	btfsc	status,2,c
  4424  001B6A  EFB9  F00D         	goto	u3841
  4425  001B6E  EFBB  F00D         	goto	u3840
  4426  001B72                     u3841:
  4427  001B72  EFDD  F00D         	goto	l1926
  4428  001B76                     u3840:
  4429  001B76                     
  4430                           ; BSR set to: 0
  4431  001B76  BF6B               	btfsc	(___xxtofl@val+3)& (0+255),7,b
  4432  001B78  EFC2  F00D         	goto	u3850
  4433  001B7C  EFC0  F00D         	goto	u3851
  4434  001B80                     u3851:
  4435  001B80  EFDD  F00D         	goto	l1926
  4436  001B84                     u3850:
  4437  001B84                     
  4438                           ; BSR set to: 0
  4439  001B84  C068  F06C         	movff	___xxtofl@val,??___xxtofl
  4440  001B88  C069  F06D         	movff	___xxtofl@val+1,??___xxtofl+1
  4441  001B8C  C06A  F06E         	movff	___xxtofl@val+2,??___xxtofl+2
  4442  001B90  C06B  F06F         	movff	___xxtofl@val+3,??___xxtofl+3
  4443  001B94  1F6C               	comf	??___xxtofl& (0+255),f,b
  4444  001B96  1F6D               	comf	(??___xxtofl+1)& (0+255),f,b
  4445  001B98  1F6E               	comf	(??___xxtofl+2)& (0+255),f,b
  4446  001B9A  1F6F               	comf	(??___xxtofl+3)& (0+255),f,b
  4447  001B9C  2B6C               	incf	??___xxtofl& (0+255),f,b
  4448  001B9E  0E00               	movlw	0
  4449  001BA0  236D               	addwfc	(??___xxtofl+1)& (0+255),f,b
  4450  001BA2  236E               	addwfc	(??___xxtofl+2)& (0+255),f,b
  4451  001BA4  236F               	addwfc	(??___xxtofl+3)& (0+255),f,b
  4452  001BA6  C06C  F072         	movff	??___xxtofl,___xxtofl@arg
  4453  001BAA  C06D  F073         	movff	??___xxtofl+1,___xxtofl@arg+1
  4454  001BAE  C06E  F074         	movff	??___xxtofl+2,___xxtofl@arg+2
  4455  001BB2  C06F  F075         	movff	??___xxtofl+3,___xxtofl@arg+3
  4456  001BB6  EFE5  F00D         	goto	l5132
  4457  001BBA                     l1926:
  4458                           
  4459                           ; BSR set to: 0
  4460  001BBA  C068  F072         	movff	___xxtofl@val,___xxtofl@arg
  4461  001BBE  C069  F073         	movff	___xxtofl@val+1,___xxtofl@arg+1
  4462  001BC2  C06A  F074         	movff	___xxtofl@val+2,___xxtofl@arg+2
  4463  001BC6  C06B  F075         	movff	___xxtofl@val+3,___xxtofl@arg+3
  4464  001BCA                     l5132:
  4465                           
  4466                           ; BSR set to: 0
  4467  001BCA  5168               	movf	___xxtofl@val& (0+255),w,b
  4468  001BCC  1169               	iorwf	(___xxtofl@val+1)& (0+255),w,b
  4469  001BCE  116A               	iorwf	(___xxtofl@val+2)& (0+255),w,b
  4470  001BD0  116B               	iorwf	(___xxtofl@val+3)& (0+255),w,b
  4471  001BD2  A4D8               	btfss	status,2,c
  4472  001BD4  EFEE  F00D         	goto	u3861
  4473  001BD8  EFF0  F00D         	goto	u3860
  4474  001BDC                     u3861:
  4475  001BDC  EFFA  F00D         	goto	l5138
  4476  001BE0                     u3860:
  4477  001BE0                     
  4478                           ; BSR set to: 0
  4479  001BE0  0E00               	movlw	0
  4480  001BE2  6F68               	movwf	?___xxtofl& (0+255),b
  4481  001BE4  0E00               	movlw	0
  4482  001BE6  6F69               	movwf	(?___xxtofl+1)& (0+255),b
  4483  001BE8  0E00               	movlw	0
  4484  001BEA  6F6A               	movwf	(?___xxtofl+2)& (0+255),b
  4485  001BEC  0E00               	movlw	0
  4486  001BEE  6F6B               	movwf	(?___xxtofl+3)& (0+255),b
  4487  001BF0  EF8B  F00E         	goto	l1929
  4488  001BF4                     l5138:
  4489                           
  4490                           ; BSR set to: 0
  4491  001BF4  0E96               	movlw	150
  4492  001BF6  6F71               	movwf	___xxtofl@exp& (0+255),b
  4493  001BF8  EF04  F00E         	goto	l5142
  4494  001BFC                     l5140:
  4495                           
  4496                           ; BSR set to: 0
  4497  001BFC  2B71               	incf	___xxtofl@exp& (0+255),f,b
  4498  001BFE  90D8               	bcf	status,0,c
  4499  001C00  3375               	rrcf	(___xxtofl@arg+3)& (0+255),f,b
  4500  001C02  3374               	rrcf	(___xxtofl@arg+2)& (0+255),f,b
  4501  001C04  3373               	rrcf	(___xxtofl@arg+1)& (0+255),f,b
  4502  001C06  3372               	rrcf	___xxtofl@arg& (0+255),f,b
  4503  001C08                     l5142:
  4504                           
  4505                           ; BSR set to: 0
  4506  001C08  0E00               	movlw	0
  4507  001C0A  1572               	andwf	___xxtofl@arg& (0+255),w,b
  4508  001C0C  6F6C               	movwf	??___xxtofl& (0+255),b
  4509  001C0E  0E00               	movlw	0
  4510  001C10  1573               	andwf	(___xxtofl@arg+1)& (0+255),w,b
  4511  001C12  6F6D               	movwf	(??___xxtofl+1)& (0+255),b
  4512  001C14  0E00               	movlw	0
  4513  001C16  1574               	andwf	(___xxtofl@arg+2)& (0+255),w,b
  4514  001C18  6F6E               	movwf	(??___xxtofl+2)& (0+255),b
  4515  001C1A  0EFE               	movlw	254
  4516  001C1C  1575               	andwf	(___xxtofl@arg+3)& (0+255),w,b
  4517  001C1E  6F6F               	movwf	(??___xxtofl+3)& (0+255),b
  4518  001C20  516C               	movf	??___xxtofl& (0+255),w,b
  4519  001C22  116D               	iorwf	(??___xxtofl+1)& (0+255),w,b
  4520  001C24  116E               	iorwf	(??___xxtofl+2)& (0+255),w,b
  4521  001C26  116F               	iorwf	(??___xxtofl+3)& (0+255),w,b
  4522  001C28  A4D8               	btfss	status,2,c
  4523  001C2A  EF19  F00E         	goto	u3871
  4524  001C2E  EF1B  F00E         	goto	u3870
  4525  001C32                     u3871:
  4526  001C32  EFFE  F00D         	goto	l5140
  4527  001C36                     u3870:
  4528  001C36  EF29  F00E         	goto	l1933
  4529  001C3A                     l5144:
  4530                           
  4531                           ; BSR set to: 0
  4532  001C3A  2B71               	incf	___xxtofl@exp& (0+255),f,b
  4533  001C3C                     
  4534                           ; BSR set to: 0
  4535  001C3C  0E01               	movlw	1
  4536  001C3E  2772               	addwf	___xxtofl@arg& (0+255),f,b
  4537  001C40  0E00               	movlw	0
  4538  001C42  2373               	addwfc	(___xxtofl@arg+1)& (0+255),f,b
  4539  001C44  2374               	addwfc	(___xxtofl@arg+2)& (0+255),f,b
  4540  001C46  2375               	addwfc	(___xxtofl@arg+3)& (0+255),f,b
  4541  001C48                     
  4542                           ; BSR set to: 0
  4543  001C48  90D8               	bcf	status,0,c
  4544  001C4A  3375               	rrcf	(___xxtofl@arg+3)& (0+255),f,b
  4545  001C4C  3374               	rrcf	(___xxtofl@arg+2)& (0+255),f,b
  4546  001C4E  3373               	rrcf	(___xxtofl@arg+1)& (0+255),f,b
  4547  001C50  3372               	rrcf	___xxtofl@arg& (0+255),f,b
  4548  001C52                     l1933:
  4549                           
  4550                           ; BSR set to: 0
  4551  001C52  0E00               	movlw	0
  4552  001C54  1572               	andwf	___xxtofl@arg& (0+255),w,b
  4553  001C56  6F6C               	movwf	??___xxtofl& (0+255),b
  4554  001C58  0E00               	movlw	0
  4555  001C5A  1573               	andwf	(___xxtofl@arg+1)& (0+255),w,b
  4556  001C5C  6F6D               	movwf	(??___xxtofl+1)& (0+255),b
  4557  001C5E  0E00               	movlw	0
  4558  001C60  1574               	andwf	(___xxtofl@arg+2)& (0+255),w,b
  4559  001C62  6F6E               	movwf	(??___xxtofl+2)& (0+255),b
  4560  001C64  0EFF               	movlw	255
  4561  001C66  1575               	andwf	(___xxtofl@arg+3)& (0+255),w,b
  4562  001C68  6F6F               	movwf	(??___xxtofl+3)& (0+255),b
  4563  001C6A  516C               	movf	??___xxtofl& (0+255),w,b
  4564  001C6C  116D               	iorwf	(??___xxtofl+1)& (0+255),w,b
  4565  001C6E  116E               	iorwf	(??___xxtofl+2)& (0+255),w,b
  4566  001C70  116F               	iorwf	(??___xxtofl+3)& (0+255),w,b
  4567  001C72  A4D8               	btfss	status,2,c
  4568  001C74  EF3E  F00E         	goto	u3881
  4569  001C78  EF40  F00E         	goto	u3880
  4570  001C7C                     u3881:
  4571  001C7C  EF1D  F00E         	goto	l5144
  4572  001C80                     u3880:
  4573  001C80  EF48  F00E         	goto	l5152
  4574  001C84                     l5150:
  4575                           
  4576                           ; BSR set to: 0
  4577  001C84  0771               	decf	___xxtofl@exp& (0+255),f,b
  4578  001C86  90D8               	bcf	status,0,c
  4579  001C88  3772               	rlcf	___xxtofl@arg& (0+255),f,b
  4580  001C8A  3773               	rlcf	(___xxtofl@arg+1)& (0+255),f,b
  4581  001C8C  3774               	rlcf	(___xxtofl@arg+2)& (0+255),f,b
  4582  001C8E  3775               	rlcf	(___xxtofl@arg+3)& (0+255),f,b
  4583  001C90                     l5152:
  4584                           
  4585                           ; BSR set to: 0
  4586  001C90  BF74               	btfsc	(___xxtofl@arg+2)& (0+255),7,b
  4587  001C92  EF4D  F00E         	goto	u3891
  4588  001C96  EF4F  F00E         	goto	u3890
  4589  001C9A                     u3891:
  4590  001C9A  EF57  F00E         	goto	l1940
  4591  001C9E                     u3890:
  4592  001C9E                     
  4593                           ; BSR set to: 0
  4594  001C9E  0E02               	movlw	2
  4595  001CA0  6171               	cpfslt	___xxtofl@exp& (0+255),b
  4596  001CA2  EF55  F00E         	goto	u3901
  4597  001CA6  EF57  F00E         	goto	u3900
  4598  001CAA                     u3901:
  4599  001CAA  EF42  F00E         	goto	l5150
  4600  001CAE                     u3900:
  4601  001CAE                     l1940:
  4602                           
  4603                           ; BSR set to: 0
  4604  001CAE  B171               	btfsc	___xxtofl@exp& (0+255),0,b
  4605  001CB0  EF5C  F00E         	goto	u3911
  4606  001CB4  EF5E  F00E         	goto	u3910
  4607  001CB8                     u3911:
  4608  001CB8  EF5F  F00E         	goto	l5158
  4609  001CBC                     u3910:
  4610  001CBC                     
  4611                           ; BSR set to: 0
  4612  001CBC  9F74               	bcf	(___xxtofl@arg+2)& (0+255),7,b
  4613  001CBE                     l5158:
  4614                           
  4615                           ; BSR set to: 0
  4616  001CBE  90D8               	bcf	status,0,c
  4617  001CC0  3371               	rrcf	___xxtofl@exp& (0+255),f,b
  4618  001CC2                     
  4619                           ; BSR set to: 0
  4620  001CC2  C071  F06C         	movff	___xxtofl@exp,??___xxtofl
  4621  001CC6  6B6D               	clrf	(??___xxtofl+1)& (0+255),b
  4622  001CC8  6B6E               	clrf	(??___xxtofl+2)& (0+255),b
  4623  001CCA  6B6F               	clrf	(??___xxtofl+3)& (0+255),b
  4624  001CCC  C06C  F06F         	movff	??___xxtofl,??___xxtofl+3
  4625  001CD0  6B6E               	clrf	(??___xxtofl+2)& (0+255),b
  4626  001CD2  6B6D               	clrf	(??___xxtofl+1)& (0+255),b
  4627  001CD4  6B6C               	clrf	??___xxtofl& (0+255),b
  4628  001CD6  516C               	movf	??___xxtofl& (0+255),w,b
  4629  001CD8  1372               	iorwf	___xxtofl@arg& (0+255),f,b
  4630  001CDA  516D               	movf	(??___xxtofl+1)& (0+255),w,b
  4631  001CDC  1373               	iorwf	(___xxtofl@arg+1)& (0+255),f,b
  4632  001CDE  516E               	movf	(??___xxtofl+2)& (0+255),w,b
  4633  001CE0  1374               	iorwf	(___xxtofl@arg+2)& (0+255),f,b
  4634  001CE2  516F               	movf	(??___xxtofl+3)& (0+255),w,b
  4635  001CE4  1375               	iorwf	(___xxtofl@arg+3)& (0+255),f,b
  4636  001CE6                     
  4637                           ; BSR set to: 0
  4638  001CE6  5170               	movf	___xxtofl@sign& (0+255),w,b
  4639  001CE8  B4D8               	btfsc	status,2,c
  4640  001CEA  EF79  F00E         	goto	u3921
  4641  001CEE  EF7B  F00E         	goto	u3920
  4642  001CF2                     u3921:
  4643  001CF2  EF83  F00E         	goto	l5168
  4644  001CF6                     u3920:
  4645  001CF6                     
  4646                           ; BSR set to: 0
  4647  001CF6  BF6B               	btfsc	(___xxtofl@val+3)& (0+255),7,b
  4648  001CF8  EF82  F00E         	goto	u3930
  4649  001CFC  EF80  F00E         	goto	u3931
  4650  001D00                     u3931:
  4651  001D00  EF83  F00E         	goto	l5168
  4652  001D04                     u3930:
  4653  001D04                     
  4654                           ; BSR set to: 0
  4655  001D04  8F75               	bsf	(___xxtofl@arg+3)& (0+255),7,b
  4656  001D06                     l5168:
  4657                           
  4658                           ; BSR set to: 0
  4659  001D06  C072  F068         	movff	___xxtofl@arg,?___xxtofl
  4660  001D0A  C073  F069         	movff	___xxtofl@arg+1,?___xxtofl+1
  4661  001D0E  C074  F06A         	movff	___xxtofl@arg+2,?___xxtofl+2
  4662  001D12  C075  F06B         	movff	___xxtofl@arg+3,?___xxtofl+3
  4663  001D16                     l1929:
  4664                           
  4665                           ; BSR set to: 0
  4666  001D16  0012               	return		;funcret
  4667  001D18                     __end_of___xxtofl:
  4668                           	callstack 0
  4669                           
  4670 ;; *************** function ___fltol *****************
  4671 ;; Defined at:
  4672 ;;		line 43 in file "C:\Program Files\Microchip\xc8\v2.36\pic\sources\c99\common\fltol.c"
  4673 ;; Parameters:    Size  Location     Type
  4674 ;;  f1              4   47[BANK0 ] unsigned char 
  4675 ;; Auto vars:     Size  Location     Type
  4676 ;;  exp1            1   32[COMRAM] unsigned char 
  4677 ;;  sign1           1   31[COMRAM] unsigned char 
  4678 ;; Return value:  Size  Location     Type
  4679 ;;                  4   47[BANK0 ] long 
  4680 ;; Registers used:
  4681 ;;		wreg, status,2, status,0
  4682 ;; Tracked objects:
  4683 ;;		On entry : 0/0
  4684 ;;		On exit  : 0/0
  4685 ;;		Unchanged: 0/0
  4686 ;; Data sizes:     COMRAM   BANK0   BANK1   BANK2   BANK3   BANK4   BANK5   BANK6   BANK7   BANK8   BANK9  BANK10  BANK1
      +1  BANK12  BANK13  BANK14  BANK15
  4687 ;;      Params:         0       4       0       0       0       0       0       0       0       0       0       0       
      +0       0       0       0       0
  4688 ;;      Locals:         2       0       0       0       0       0       0       0       0       0       0       0       
      +0       0       0       0       0
  4689 ;;      Temps:          0       4       0       0       0       0       0       0       0       0       0       0       
      +0       0       0       0       0
  4690 ;;      Totals:         2       8       0       0       0       0       0       0       0       0       0       0       
      +0       0       0       0       0
  4691 ;;Total ram usage:       10 bytes
  4692 ;; Hardware stack levels used: 1
  4693 ;; Hardware stack levels required when called: 8
  4694 ;; This function calls:
  4695 ;;		Nothing
  4696 ;; This function is called by:
  4697 ;;		_calcMotorPow
  4698 ;; This function uses a non-reentrant model
  4699 ;;
  4700                           
  4701                           	psect	text23
  4702  002116                     __ptext23:
  4703                           	callstack 0
  4704  002116                     ___fltol:
  4705                           	callstack 20
  4706  002116  0100               	movlb	0	; () banked
  4707  002118  3591               	rlcf	(___fltol@f1+2)& (0+255),w,b
  4708  00211A  3592               	rlcf	(___fltol@f1+3)& (0+255),w,b
  4709  00211C  6E21               	movwf	___fltol@exp1^0,c
  4710  00211E  5021               	movf	___fltol@exp1^0,w,c
  4711  002120  A4D8               	btfss	status,2,c
  4712  002122  EF95  F010         	goto	u2401
  4713  002126  EF97  F010         	goto	u2400
  4714  00212A                     u2401:
  4715  00212A  EFA1  F010         	goto	l4070
  4716  00212E                     u2400:
  4717  00212E                     l4066:
  4718                           
  4719                           ; BSR set to: 0
  4720  00212E  0E00               	movlw	0
  4721  002130  6F8F               	movwf	?___fltol& (0+255),b
  4722  002132  0E00               	movlw	0
  4723  002134  6F90               	movwf	(?___fltol+1)& (0+255),b
  4724  002136  0E00               	movlw	0
  4725  002138  6F91               	movwf	(?___fltol+2)& (0+255),b
  4726  00213A  0E00               	movlw	0
  4727  00213C  6F92               	movwf	(?___fltol+3)& (0+255),b
  4728  00213E  EF0E  F011         	goto	l1568
  4729  002142                     l4070:
  4730                           
  4731                           ; BSR set to: 0
  4732  002142  C08F  F093         	movff	___fltol@f1,??___fltol
  4733  002146  C090  F094         	movff	___fltol@f1+1,??___fltol+1
  4734  00214A  C091  F095         	movff	___fltol@f1+2,??___fltol+2
  4735  00214E  C092  F096         	movff	___fltol@f1+3,??___fltol+3
  4736  002152  0E20               	movlw	32
  4737  002154  EFB1  F010         	goto	u2410
  4738  002158                     u2415:
  4739  002158  90D8               	bcf	status,0,c
  4740  00215A  3396               	rrcf	(??___fltol+3)& (0+255),f,b
  4741  00215C  3395               	rrcf	(??___fltol+2)& (0+255),f,b
  4742  00215E  3394               	rrcf	(??___fltol+1)& (0+255),f,b
  4743  002160  3393               	rrcf	??___fltol& (0+255),f,b
  4744  002162                     u2410:
  4745  002162  2EE8               	decfsz	wreg,f,c
  4746  002164  EFAC  F010         	goto	u2415
  4747  002168  5193               	movf	??___fltol& (0+255),w,b
  4748  00216A  6E20               	movwf	___fltol@sign1^0,c
  4749  00216C                     
  4750                           ; BSR set to: 0
  4751  00216C  8F91               	bsf	(___fltol@f1+2)& (0+255),7,b
  4752  00216E                     
  4753                           ; BSR set to: 0
  4754  00216E  0EFF               	movlw	255
  4755  002170  178F               	andwf	___fltol@f1& (0+255),f,b
  4756  002172  0EFF               	movlw	255
  4757  002174  1790               	andwf	(___fltol@f1+1)& (0+255),f,b
  4758  002176  0EFF               	movlw	255
  4759  002178  1791               	andwf	(___fltol@f1+2)& (0+255),f,b
  4760  00217A  0E00               	movlw	0
  4761  00217C  1792               	andwf	(___fltol@f1+3)& (0+255),f,b
  4762  00217E                     
  4763                           ; BSR set to: 0
  4764  00217E  0E96               	movlw	150
  4765  002180  5E21               	subwf	___fltol@exp1^0,f,c
  4766  002182                     
  4767                           ; BSR set to: 0
  4768  002182  BE21               	btfsc	___fltol@exp1^0,7,c
  4769  002184  EFC8  F010         	goto	u2420
  4770  002188  EFC6  F010         	goto	u2421
  4771  00218C                     u2421:
  4772  00218C  EFDE  F010         	goto	l4090
  4773  002190                     u2420:
  4774  002190                     
  4775                           ; BSR set to: 0
  4776  002190  5021               	movf	___fltol@exp1^0,w,c
  4777  002192  0A80               	xorlw	128
  4778  002194  0F97               	addlw	151
  4779  002196  B0D8               	btfsc	status,0,c
  4780  002198  EFD0  F010         	goto	u2431
  4781  00219C  EFD2  F010         	goto	u2430
  4782  0021A0                     u2431:
  4783  0021A0  EFD4  F010         	goto	l4086
  4784  0021A4                     u2430:
  4785  0021A4  EF97  F010         	goto	l4066
  4786  0021A8                     l4086:
  4787                           
  4788                           ; BSR set to: 0
  4789  0021A8  90D8               	bcf	status,0,c
  4790  0021AA  3392               	rrcf	(___fltol@f1+3)& (0+255),f,b
  4791  0021AC  3391               	rrcf	(___fltol@f1+2)& (0+255),f,b
  4792  0021AE  3390               	rrcf	(___fltol@f1+1)& (0+255),f,b
  4793  0021B0  338F               	rrcf	___fltol@f1& (0+255),f,b
  4794  0021B2                     
  4795                           ; BSR set to: 0
  4796  0021B2  3E21               	incfsz	___fltol@exp1^0,f,c
  4797  0021B4  EFD4  F010         	goto	l4086
  4798  0021B8  EFF6  F010         	goto	l4100
  4799  0021BC                     l4090:
  4800                           
  4801                           ; BSR set to: 0
  4802  0021BC  0E1F               	movlw	31
  4803  0021BE  6421               	cpfsgt	___fltol@exp1^0,c
  4804  0021C0  EFE4  F010         	goto	u2441
  4805  0021C4  EFE6  F010         	goto	u2440
  4806  0021C8                     u2441:
  4807  0021C8  EFEE  F010         	goto	l4098
  4808  0021CC                     u2440:
  4809  0021CC  EF97  F010         	goto	l4066
  4810  0021D0                     l4096:
  4811                           
  4812                           ; BSR set to: 0
  4813  0021D0  90D8               	bcf	status,0,c
  4814  0021D2  378F               	rlcf	___fltol@f1& (0+255),f,b
  4815  0021D4  3790               	rlcf	(___fltol@f1+1)& (0+255),f,b
  4816  0021D6  3791               	rlcf	(___fltol@f1+2)& (0+255),f,b
  4817  0021D8  3792               	rlcf	(___fltol@f1+3)& (0+255),f,b
  4818  0021DA  0621               	decf	___fltol@exp1^0,f,c
  4819  0021DC                     l4098:
  4820                           
  4821                           ; BSR set to: 0
  4822  0021DC  5021               	movf	___fltol@exp1^0,w,c
  4823  0021DE  A4D8               	btfss	status,2,c
  4824  0021E0  EFF4  F010         	goto	u2451
  4825  0021E4  EFF6  F010         	goto	u2450
  4826  0021E8                     u2451:
  4827  0021E8  EFE8  F010         	goto	l4096
  4828  0021EC                     u2450:
  4829  0021EC                     l4100:
  4830                           
  4831                           ; BSR set to: 0
  4832  0021EC  5020               	movf	___fltol@sign1^0,w,c
  4833  0021EE  B4D8               	btfsc	status,2,c
  4834  0021F0  EFFC  F010         	goto	u2461
  4835  0021F4  EFFE  F010         	goto	u2460
  4836  0021F8                     u2461:
  4837  0021F8  EF06  F011         	goto	l4104
  4838  0021FC                     u2460:
  4839  0021FC                     
  4840                           ; BSR set to: 0
  4841  0021FC  1F92               	comf	(___fltol@f1+3)& (0+255),f,b
  4842  0021FE  1F91               	comf	(___fltol@f1+2)& (0+255),f,b
  4843  002200  1F90               	comf	(___fltol@f1+1)& (0+255),f,b
  4844  002202  6D8F               	negf	___fltol@f1& (0+255),b
  4845  002204  0E00               	movlw	0
  4846  002206  2390               	addwfc	(___fltol@f1+1)& (0+255),f,b
  4847  002208  2391               	addwfc	(___fltol@f1+2)& (0+255),f,b
  4848  00220A  2392               	addwfc	(___fltol@f1+3)& (0+255),f,b
  4849  00220C                     l4104:
  4850                           
  4851                           ; BSR set to: 0
  4852  00220C  C08F  F08F         	movff	___fltol@f1,?___fltol
  4853  002210  C090  F090         	movff	___fltol@f1+1,?___fltol+1
  4854  002214  C091  F091         	movff	___fltol@f1+2,?___fltol+2
  4855  002218  C092  F092         	movff	___fltol@f1+3,?___fltol+3
  4856  00221C                     l1568:
  4857                           
  4858                           ; BSR set to: 0
  4859  00221C  0012               	return		;funcret
  4860  00221E                     __end_of___fltol:
  4861                           	callstack 0
  4862                           
  4863 ;; *************** function ___flmul *****************
  4864 ;; Defined at:
  4865 ;;		line 8 in file "C:\Program Files\Microchip\xc8\v2.36\pic\sources\c99\common\sprcmul.c"
  4866 ;; Parameters:    Size  Location     Type
  4867 ;;  b               4   22[BANK0 ] long 
  4868 ;;  a               4   26[BANK0 ] long 
  4869 ;; Auto vars:     Size  Location     Type
  4870 ;;  prod            4   41[BANK0 ] struct .
  4871 ;;  grs             4   36[BANK0 ] unsigned long 
  4872 ;;  temp            2   45[BANK0 ] struct .
  4873 ;;  bexp            1   40[BANK0 ] unsigned char 
  4874 ;;  aexp            1   35[BANK0 ] unsigned char 
  4875 ;;  sign            1   34[BANK0 ] unsigned char 
  4876 ;; Return value:  Size  Location     Type
  4877 ;;                  4   22[BANK0 ] unsigned char 
  4878 ;; Registers used:
  4879 ;;		wreg, status,2, status,0, prodl, prodh
  4880 ;; Tracked objects:
  4881 ;;		On entry : 0/0
  4882 ;;		On exit  : 0/0
  4883 ;;		Unchanged: 0/0
  4884 ;; Data sizes:     COMRAM   BANK0   BANK1   BANK2   BANK3   BANK4   BANK5   BANK6   BANK7   BANK8   BANK9  BANK10  BANK1
      +1  BANK12  BANK13  BANK14  BANK15
  4885 ;;      Params:         0       8       0       0       0       0       0       0       0       0       0       0       
      +0       0       0       0       0
  4886 ;;      Locals:         0      13       0       0       0       0       0       0       0       0       0       0       
      +0       0       0       0       0
  4887 ;;      Temps:          0       4       0       0       0       0       0       0       0       0       0       0       
      +0       0       0       0       0
  4888 ;;      Totals:         0      25       0       0       0       0       0       0       0       0       0       0       
      +0       0       0       0       0
  4889 ;;Total ram usage:       25 bytes
  4890 ;; Hardware stack levels used: 1
  4891 ;; Hardware stack levels required when called: 8
  4892 ;; This function calls:
  4893 ;;		Nothing
  4894 ;; This function is called by:
  4895 ;;		_calcMotorPow
  4896 ;; This function uses a non-reentrant model
  4897 ;;
  4898                           
  4899                           	psect	text24
  4900  001014                     __ptext24:
  4901                           	callstack 0
  4902  001014                     ___flmul:
  4903                           	callstack 20
  4904  001014  0100               	movlb	0	; () banked
  4905  001016  5179               	movf	(___flmul@b+3)& (0+255),w,b
  4906  001018  0B80               	andlw	128
  4907  00101A  6F82               	movwf	___flmul@sign& (0+255),b
  4908  00101C  5179               	movf	(___flmul@b+3)& (0+255),w,b
  4909  00101E  2579               	addwf	(___flmul@b+3)& (0+255),w,b
  4910  001020  6F88               	movwf	___flmul@bexp& (0+255),b
  4911  001022                     
  4912                           ; BSR set to: 0
  4913  001022  AF78               	btfss	(___flmul@b+2)& (0+255),7,b
  4914  001024  EF16  F008         	goto	u3591
  4915  001028  EF18  F008         	goto	u3590
  4916  00102C                     u3591:
  4917  00102C  EF19  F008         	goto	l4958
  4918  001030                     u3590:
  4919  001030                     
  4920                           ; BSR set to: 0
  4921  001030  8188               	bsf	___flmul@bexp& (0+255),0,b
  4922  001032                     l4958:
  4923                           
  4924                           ; BSR set to: 0
  4925  001032  5188               	movf	___flmul@bexp& (0+255),w,b
  4926  001034  B4D8               	btfsc	status,2,c
  4927  001036  EF1F  F008         	goto	u3601
  4928  00103A  EF21  F008         	goto	u3600
  4929  00103E                     u3601:
  4930  00103E  EF34  F008         	goto	l4966
  4931  001042                     u3600:
  4932  001042                     
  4933                           ; BSR set to: 0
  4934  001042  2988               	incf	___flmul@bexp& (0+255),w,b
  4935  001044  A4D8               	btfss	status,2,c
  4936  001046  EF27  F008         	goto	u3611
  4937  00104A  EF29  F008         	goto	u3610
  4938  00104E                     u3611:
  4939  00104E  EF31  F008         	goto	l4964
  4940  001052                     u3610:
  4941  001052                     
  4942                           ; BSR set to: 0
  4943  001052  0E00               	movlw	0
  4944  001054  6F76               	movwf	___flmul@b& (0+255),b
  4945  001056  0E00               	movlw	0
  4946  001058  6F77               	movwf	(___flmul@b+1)& (0+255),b
  4947  00105A  0E00               	movlw	0
  4948  00105C  6F78               	movwf	(___flmul@b+2)& (0+255),b
  4949  00105E  0E00               	movlw	0
  4950  001060  6F79               	movwf	(___flmul@b+3)& (0+255),b
  4951  001062                     l4964:
  4952                           
  4953                           ; BSR set to: 0
  4954  001062  8F78               	bsf	(___flmul@b+2)& (0+255),7,b
  4955  001064  EF3C  F008         	goto	l4968
  4956  001068                     l4966:
  4957                           
  4958                           ; BSR set to: 0
  4959  001068  0E00               	movlw	0
  4960  00106A  6F76               	movwf	___flmul@b& (0+255),b
  4961  00106C  0E00               	movlw	0
  4962  00106E  6F77               	movwf	(___flmul@b+1)& (0+255),b
  4963  001070  0E00               	movlw	0
  4964  001072  6F78               	movwf	(___flmul@b+2)& (0+255),b
  4965  001074  0E00               	movlw	0
  4966  001076  6F79               	movwf	(___flmul@b+3)& (0+255),b
  4967  001078                     l4968:
  4968                           
  4969                           ; BSR set to: 0
  4970  001078  517D               	movf	(___flmul@a+3)& (0+255),w,b
  4971  00107A  0B80               	andlw	128
  4972  00107C  1B82               	xorwf	___flmul@sign& (0+255),f,b
  4973  00107E                     
  4974                           ; BSR set to: 0
  4975  00107E  517D               	movf	(___flmul@a+3)& (0+255),w,b
  4976  001080  257D               	addwf	(___flmul@a+3)& (0+255),w,b
  4977  001082  6F83               	movwf	___flmul@aexp& (0+255),b
  4978  001084                     
  4979                           ; BSR set to: 0
  4980  001084  AF7C               	btfss	(___flmul@a+2)& (0+255),7,b
  4981  001086  EF47  F008         	goto	u3621
  4982  00108A  EF49  F008         	goto	u3620
  4983  00108E                     u3621:
  4984  00108E  EF4A  F008         	goto	l4976
  4985  001092                     u3620:
  4986  001092                     
  4987                           ; BSR set to: 0
  4988  001092  8183               	bsf	___flmul@aexp& (0+255),0,b
  4989  001094                     l4976:
  4990                           
  4991                           ; BSR set to: 0
  4992  001094  5183               	movf	___flmul@aexp& (0+255),w,b
  4993  001096  B4D8               	btfsc	status,2,c
  4994  001098  EF50  F008         	goto	u3631
  4995  00109C  EF52  F008         	goto	u3630
  4996  0010A0                     u3631:
  4997  0010A0  EF65  F008         	goto	l4984
  4998  0010A4                     u3630:
  4999  0010A4                     
  5000                           ; BSR set to: 0
  5001  0010A4  2983               	incf	___flmul@aexp& (0+255),w,b
  5002  0010A6  A4D8               	btfss	status,2,c
  5003  0010A8  EF58  F008         	goto	u3641
  5004  0010AC  EF5A  F008         	goto	u3640
  5005  0010B0                     u3641:
  5006  0010B0  EF62  F008         	goto	l4982
  5007  0010B4                     u3640:
  5008  0010B4                     
  5009                           ; BSR set to: 0
  5010  0010B4  0E00               	movlw	0
  5011  0010B6  6F7A               	movwf	___flmul@a& (0+255),b
  5012  0010B8  0E00               	movlw	0
  5013  0010BA  6F7B               	movwf	(___flmul@a+1)& (0+255),b
  5014  0010BC  0E00               	movlw	0
  5015  0010BE  6F7C               	movwf	(___flmul@a+2)& (0+255),b
  5016  0010C0  0E00               	movlw	0
  5017  0010C2  6F7D               	movwf	(___flmul@a+3)& (0+255),b
  5018  0010C4                     l4982:
  5019                           
  5020                           ; BSR set to: 0
  5021  0010C4  8F7C               	bsf	(___flmul@a+2)& (0+255),7,b
  5022  0010C6  EF6D  F008         	goto	l1885
  5023  0010CA                     l4984:
  5024                           
  5025                           ; BSR set to: 0
  5026  0010CA  0E00               	movlw	0
  5027  0010CC  6F7A               	movwf	___flmul@a& (0+255),b
  5028  0010CE  0E00               	movlw	0
  5029  0010D0  6F7B               	movwf	(___flmul@a+1)& (0+255),b
  5030  0010D2  0E00               	movlw	0
  5031  0010D4  6F7C               	movwf	(___flmul@a+2)& (0+255),b
  5032  0010D6  0E00               	movlw	0
  5033  0010D8  6F7D               	movwf	(___flmul@a+3)& (0+255),b
  5034  0010DA                     l1885:
  5035                           
  5036                           ; BSR set to: 0
  5037  0010DA  5183               	movf	___flmul@aexp& (0+255),w,b
  5038  0010DC  B4D8               	btfsc	status,2,c
  5039  0010DE  EF73  F008         	goto	u3651
  5040  0010E2  EF75  F008         	goto	u3650
  5041  0010E6                     u3651:
  5042  0010E6  EF7D  F008         	goto	l4988
  5043  0010EA                     u3650:
  5044  0010EA                     
  5045                           ; BSR set to: 0
  5046  0010EA  5188               	movf	___flmul@bexp& (0+255),w,b
  5047  0010EC  A4D8               	btfss	status,2,c
  5048  0010EE  EF7B  F008         	goto	u3661
  5049  0010F2  EF7D  F008         	goto	u3660
  5050  0010F6                     u3661:
  5051  0010F6  EF87  F008         	goto	l4992
  5052  0010FA                     u3660:
  5053  0010FA                     l4988:
  5054                           
  5055                           ; BSR set to: 0
  5056  0010FA  0E00               	movlw	0
  5057  0010FC  6F76               	movwf	?___flmul& (0+255),b
  5058  0010FE  0E00               	movlw	0
  5059  001100  6F77               	movwf	(?___flmul+1)& (0+255),b
  5060  001102  0E00               	movlw	0
  5061  001104  6F78               	movwf	(?___flmul+2)& (0+255),b
  5062  001106  0E00               	movlw	0
  5063  001108  6F79               	movwf	(?___flmul+3)& (0+255),b
  5064  00110A  EF31  F00A         	goto	l1889
  5065  00110E                     l4992:
  5066                           
  5067                           ; BSR set to: 0
  5068  00110E  517C               	movf	(___flmul@a+2)& (0+255),w,b
  5069  001110  0376               	mulwf	___flmul@b& (0+255),b
  5070  001112  006F FFCC  F08D    	movff	prodl,___flmul@temp
  5071  001118  006F FFD0  F08E    	movff	prodh,___flmul@temp+1
  5072  00111E                     
  5073                           ; BSR set to: 0
  5074  00111E  518D               	movf	___flmul@temp& (0+255),w,b
  5075  001120  6F84               	movwf	___flmul@grs& (0+255),b
  5076  001122  6B85               	clrf	(___flmul@grs+1)& (0+255),b
  5077  001124  6B86               	clrf	(___flmul@grs+2)& (0+255),b
  5078  001126  6B87               	clrf	(___flmul@grs+3)& (0+255),b
  5079  001128                     
  5080                           ; BSR set to: 0
  5081  001128  518E               	movf	(___flmul@temp+1)& (0+255),w,b
  5082  00112A  6F89               	movwf	___flmul@prod& (0+255),b
  5083  00112C  6B8A               	clrf	(___flmul@prod+1)& (0+255),b
  5084  00112E  6B8B               	clrf	(___flmul@prod+2)& (0+255),b
  5085  001130  6B8C               	clrf	(___flmul@prod+3)& (0+255),b
  5086  001132  517B               	movf	(___flmul@a+1)& (0+255),w,b
  5087  001134  0377               	mulwf	(___flmul@b+1)& (0+255),b
  5088  001136  006F FFCC  F08D    	movff	prodl,___flmul@temp
  5089  00113C  006F FFD0  F08E    	movff	prodh,___flmul@temp+1
  5090  001142                     
  5091                           ; BSR set to: 0
  5092  001142  518D               	movf	___flmul@temp& (0+255),w,b
  5093  001144  2784               	addwf	___flmul@grs& (0+255),f,b
  5094  001146  0E00               	movlw	0
  5095  001148  2385               	addwfc	(___flmul@grs+1)& (0+255),f,b
  5096  00114A  2386               	addwfc	(___flmul@grs+2)& (0+255),f,b
  5097  00114C  2387               	addwfc	(___flmul@grs+3)& (0+255),f,b
  5098  00114E                     
  5099                           ; BSR set to: 0
  5100  00114E  518E               	movf	(___flmul@temp+1)& (0+255),w,b
  5101  001150  2789               	addwf	___flmul@prod& (0+255),f,b
  5102  001152  0E00               	movlw	0
  5103  001154  238A               	addwfc	(___flmul@prod+1)& (0+255),f,b
  5104  001156  238B               	addwfc	(___flmul@prod+2)& (0+255),f,b
  5105  001158  238C               	addwfc	(___flmul@prod+3)& (0+255),f,b
  5106  00115A  517A               	movf	___flmul@a& (0+255),w,b
  5107  00115C  0378               	mulwf	(___flmul@b+2)& (0+255),b
  5108  00115E  006F FFCC  F08D    	movff	prodl,___flmul@temp
  5109  001164  006F FFD0  F08E    	movff	prodh,___flmul@temp+1
  5110  00116A                     
  5111                           ; BSR set to: 0
  5112  00116A  518D               	movf	___flmul@temp& (0+255),w,b
  5113  00116C  2784               	addwf	___flmul@grs& (0+255),f,b
  5114  00116E  0E00               	movlw	0
  5115  001170  2385               	addwfc	(___flmul@grs+1)& (0+255),f,b
  5116  001172  2386               	addwfc	(___flmul@grs+2)& (0+255),f,b
  5117  001174  2387               	addwfc	(___flmul@grs+3)& (0+255),f,b
  5118  001176                     
  5119                           ; BSR set to: 0
  5120  001176  518E               	movf	(___flmul@temp+1)& (0+255),w,b
  5121  001178  2789               	addwf	___flmul@prod& (0+255),f,b
  5122  00117A  0E00               	movlw	0
  5123  00117C  238A               	addwfc	(___flmul@prod+1)& (0+255),f,b
  5124  00117E  238B               	addwfc	(___flmul@prod+2)& (0+255),f,b
  5125  001180  238C               	addwfc	(___flmul@prod+3)& (0+255),f,b
  5126  001182                     
  5127                           ; BSR set to: 0
  5128  001182  C086  F087         	movff	___flmul@grs+2,___flmul@grs+3
  5129  001186  C085  F086         	movff	___flmul@grs+1,___flmul@grs+2
  5130  00118A  C084  F085         	movff	___flmul@grs,___flmul@grs+1
  5131  00118E  6B84               	clrf	___flmul@grs& (0+255),b
  5132  001190                     
  5133                           ; BSR set to: 0
  5134  001190  517A               	movf	___flmul@a& (0+255),w,b
  5135  001192  0377               	mulwf	(___flmul@b+1)& (0+255),b
  5136  001194  006F FFCC  F08D    	movff	prodl,___flmul@temp
  5137  00119A  006F FFD0  F08E    	movff	prodh,___flmul@temp+1
  5138  0011A0                     
  5139                           ; BSR set to: 0
  5140  0011A0  518D               	movf	___flmul@temp& (0+255),w,b
  5141  0011A2  2784               	addwf	___flmul@grs& (0+255),f,b
  5142  0011A4  518E               	movf	(___flmul@temp+1)& (0+255),w,b
  5143  0011A6  2385               	addwfc	(___flmul@grs+1)& (0+255),f,b
  5144  0011A8  0E00               	movlw	0
  5145  0011AA  2386               	addwfc	(___flmul@grs+2)& (0+255),f,b
  5146  0011AC  0E00               	movlw	0
  5147  0011AE  2387               	addwfc	(___flmul@grs+3)& (0+255),f,b
  5148  0011B0                     
  5149                           ; BSR set to: 0
  5150  0011B0  517B               	movf	(___flmul@a+1)& (0+255),w,b
  5151  0011B2  0376               	mulwf	___flmul@b& (0+255),b
  5152  0011B4  006F FFCC  F08D    	movff	prodl,___flmul@temp
  5153  0011BA  006F FFD0  F08E    	movff	prodh,___flmul@temp+1
  5154  0011C0                     
  5155                           ; BSR set to: 0
  5156  0011C0  518D               	movf	___flmul@temp& (0+255),w,b
  5157  0011C2  2784               	addwf	___flmul@grs& (0+255),f,b
  5158  0011C4  518E               	movf	(___flmul@temp+1)& (0+255),w,b
  5159  0011C6  2385               	addwfc	(___flmul@grs+1)& (0+255),f,b
  5160  0011C8  0E00               	movlw	0
  5161  0011CA  2386               	addwfc	(___flmul@grs+2)& (0+255),f,b
  5162  0011CC  0E00               	movlw	0
  5163  0011CE  2387               	addwfc	(___flmul@grs+3)& (0+255),f,b
  5164  0011D0                     
  5165                           ; BSR set to: 0
  5166  0011D0  C086  F087         	movff	___flmul@grs+2,___flmul@grs+3
  5167  0011D4  C085  F086         	movff	___flmul@grs+1,___flmul@grs+2
  5168  0011D8  C084  F085         	movff	___flmul@grs,___flmul@grs+1
  5169  0011DC  6B84               	clrf	___flmul@grs& (0+255),b
  5170  0011DE  517A               	movf	___flmul@a& (0+255),w,b
  5171  0011E0  0376               	mulwf	___flmul@b& (0+255),b
  5172  0011E2  006F FFCC  F08D    	movff	prodl,___flmul@temp
  5173  0011E8  006F FFD0  F08E    	movff	prodh,___flmul@temp+1
  5174  0011EE                     
  5175                           ; BSR set to: 0
  5176  0011EE  518D               	movf	___flmul@temp& (0+255),w,b
  5177  0011F0  2784               	addwf	___flmul@grs& (0+255),f,b
  5178  0011F2  518E               	movf	(___flmul@temp+1)& (0+255),w,b
  5179  0011F4  2385               	addwfc	(___flmul@grs+1)& (0+255),f,b
  5180  0011F6  0E00               	movlw	0
  5181  0011F8  2386               	addwfc	(___flmul@grs+2)& (0+255),f,b
  5182  0011FA  0E00               	movlw	0
  5183  0011FC  2387               	addwfc	(___flmul@grs+3)& (0+255),f,b
  5184  0011FE                     
  5185                           ; BSR set to: 0
  5186  0011FE  517C               	movf	(___flmul@a+2)& (0+255),w,b
  5187  001200  0377               	mulwf	(___flmul@b+1)& (0+255),b
  5188  001202  006F FFCC  F08D    	movff	prodl,___flmul@temp
  5189  001208  006F FFD0  F08E    	movff	prodh,___flmul@temp+1
  5190  00120E  518D               	movf	___flmul@temp& (0+255),w,b
  5191  001210  2789               	addwf	___flmul@prod& (0+255),f,b
  5192  001212  518E               	movf	(___flmul@temp+1)& (0+255),w,b
  5193  001214  238A               	addwfc	(___flmul@prod+1)& (0+255),f,b
  5194  001216  0E00               	movlw	0
  5195  001218  238B               	addwfc	(___flmul@prod+2)& (0+255),f,b
  5196  00121A  0E00               	movlw	0
  5197  00121C  238C               	addwfc	(___flmul@prod+3)& (0+255),f,b
  5198  00121E                     
  5199                           ; BSR set to: 0
  5200  00121E  517B               	movf	(___flmul@a+1)& (0+255),w,b
  5201  001220  0378               	mulwf	(___flmul@b+2)& (0+255),b
  5202  001222  006F FFCC  F08D    	movff	prodl,___flmul@temp
  5203  001228  006F FFD0  F08E    	movff	prodh,___flmul@temp+1
  5204  00122E                     
  5205                           ; BSR set to: 0
  5206  00122E  518D               	movf	___flmul@temp& (0+255),w,b
  5207  001230  2789               	addwf	___flmul@prod& (0+255),f,b
  5208  001232  518E               	movf	(___flmul@temp+1)& (0+255),w,b
  5209  001234  238A               	addwfc	(___flmul@prod+1)& (0+255),f,b
  5210  001236  0E00               	movlw	0
  5211  001238  238B               	addwfc	(___flmul@prod+2)& (0+255),f,b
  5212  00123A  0E00               	movlw	0
  5213  00123C  238C               	addwfc	(___flmul@prod+3)& (0+255),f,b
  5214  00123E  517C               	movf	(___flmul@a+2)& (0+255),w,b
  5215  001240  0378               	mulwf	(___flmul@b+2)& (0+255),b
  5216  001242  006F FFCC  F08D    	movff	prodl,___flmul@temp
  5217  001248  006F FFD0  F08E    	movff	prodh,___flmul@temp+1
  5218  00124E                     
  5219                           ; BSR set to: 0
  5220  00124E  518D               	movf	___flmul@temp& (0+255),w,b
  5221  001250  6F7E               	movwf	??___flmul& (0+255),b
  5222  001252  518E               	movf	(___flmul@temp+1)& (0+255),w,b
  5223  001254  6F7F               	movwf	(??___flmul+1)& (0+255),b
  5224  001256  6B80               	clrf	(??___flmul+2)& (0+255),b
  5225  001258  6B81               	clrf	(??___flmul+3)& (0+255),b
  5226  00125A  C080  F081         	movff	??___flmul+2,??___flmul+3
  5227  00125E  C07F  F080         	movff	??___flmul+1,??___flmul+2
  5228  001262  C07E  F07F         	movff	??___flmul,??___flmul+1
  5229  001266  6B7E               	clrf	??___flmul& (0+255),b
  5230  001268  517E               	movf	??___flmul& (0+255),w,b
  5231  00126A  2789               	addwf	___flmul@prod& (0+255),f,b
  5232  00126C  517F               	movf	(??___flmul+1)& (0+255),w,b
  5233  00126E  238A               	addwfc	(___flmul@prod+1)& (0+255),f,b
  5234  001270  5180               	movf	(??___flmul+2)& (0+255),w,b
  5235  001272  238B               	addwfc	(___flmul@prod+2)& (0+255),f,b
  5236  001274  5181               	movf	(??___flmul+3)& (0+255),w,b
  5237  001276  238C               	addwfc	(___flmul@prod+3)& (0+255),f,b
  5238  001278                     
  5239                           ; BSR set to: 0
  5240  001278  C084  F07E         	movff	___flmul@grs,??___flmul
  5241  00127C  C085  F07F         	movff	___flmul@grs+1,??___flmul+1
  5242  001280  C086  F080         	movff	___flmul@grs+2,??___flmul+2
  5243  001284  C087  F081         	movff	___flmul@grs+3,??___flmul+3
  5244  001288  0E19               	movlw	25
  5245  00128A  EF4C  F009         	goto	u3670
  5246  00128E                     u3675:
  5247  00128E  90D8               	bcf	status,0,c
  5248  001290  3381               	rrcf	(??___flmul+3)& (0+255),f,b
  5249  001292  3380               	rrcf	(??___flmul+2)& (0+255),f,b
  5250  001294  337F               	rrcf	(??___flmul+1)& (0+255),f,b
  5251  001296  337E               	rrcf	??___flmul& (0+255),f,b
  5252  001298                     u3670:
  5253  001298  2EE8               	decfsz	wreg,f,c
  5254  00129A  EF47  F009         	goto	u3675
  5255  00129E  517E               	movf	??___flmul& (0+255),w,b
  5256  0012A0  2789               	addwf	___flmul@prod& (0+255),f,b
  5257  0012A2  517F               	movf	(??___flmul+1)& (0+255),w,b
  5258  0012A4  238A               	addwfc	(___flmul@prod+1)& (0+255),f,b
  5259  0012A6  5180               	movf	(??___flmul+2)& (0+255),w,b
  5260  0012A8  238B               	addwfc	(___flmul@prod+2)& (0+255),f,b
  5261  0012AA  5181               	movf	(??___flmul+3)& (0+255),w,b
  5262  0012AC  238C               	addwfc	(___flmul@prod+3)& (0+255),f,b
  5263  0012AE                     
  5264                           ; BSR set to: 0
  5265  0012AE  C086  F087         	movff	___flmul@grs+2,___flmul@grs+3
  5266  0012B2  C085  F086         	movff	___flmul@grs+1,___flmul@grs+2
  5267  0012B6  C084  F085         	movff	___flmul@grs,___flmul@grs+1
  5268  0012BA  6B84               	clrf	___flmul@grs& (0+255),b
  5269  0012BC                     
  5270                           ; BSR set to: 0
  5271  0012BC  5183               	movf	___flmul@aexp& (0+255),w,b
  5272  0012BE  C088  F07E         	movff	___flmul@bexp,??___flmul
  5273  0012C2  6B7F               	clrf	(??___flmul+1)& (0+255),b
  5274  0012C4  277E               	addwf	??___flmul& (0+255),f,b
  5275  0012C6  0E00               	movlw	0
  5276  0012C8  237F               	addwfc	(??___flmul+1)& (0+255),f,b
  5277  0012CA  0E82               	movlw	130
  5278  0012CC  257E               	addwf	??___flmul& (0+255),w,b
  5279  0012CE  6F8D               	movwf	___flmul@temp& (0+255),b
  5280  0012D0  0EFF               	movlw	255
  5281  0012D2  217F               	addwfc	(??___flmul+1)& (0+255),w,b
  5282  0012D4  6F8E               	movwf	(___flmul@temp+1)& (0+255),b
  5283  0012D6  EF82  F009         	goto	l5040
  5284  0012DA                     l5034:
  5285                           
  5286                           ; BSR set to: 0
  5287  0012DA  90D8               	bcf	status,0,c
  5288  0012DC  3789               	rlcf	___flmul@prod& (0+255),f,b
  5289  0012DE  378A               	rlcf	(___flmul@prod+1)& (0+255),f,b
  5290  0012E0  378B               	rlcf	(___flmul@prod+2)& (0+255),f,b
  5291  0012E2  378C               	rlcf	(___flmul@prod+3)& (0+255),f,b
  5292  0012E4                     
  5293                           ; BSR set to: 0
  5294  0012E4  AF87               	btfss	(___flmul@grs+3)& (0+255),7,b
  5295  0012E6  EF77  F009         	goto	u3681
  5296  0012EA  EF79  F009         	goto	u3680
  5297  0012EE                     u3681:
  5298  0012EE  EF7A  F009         	goto	l1892
  5299  0012F2                     u3680:
  5300  0012F2                     
  5301                           ; BSR set to: 0
  5302  0012F2  8189               	bsf	___flmul@prod& (0+255),0,b
  5303  0012F4                     l1892:
  5304                           
  5305                           ; BSR set to: 0
  5306  0012F4  90D8               	bcf	status,0,c
  5307  0012F6  3784               	rlcf	___flmul@grs& (0+255),f,b
  5308  0012F8  3785               	rlcf	(___flmul@grs+1)& (0+255),f,b
  5309  0012FA  3786               	rlcf	(___flmul@grs+2)& (0+255),f,b
  5310  0012FC  3787               	rlcf	(___flmul@grs+3)& (0+255),f,b
  5311  0012FE  078D               	decf	___flmul@temp& (0+255),f,b
  5312  001300  A0D8               	btfss	status,0,c
  5313  001302  078E               	decf	(___flmul@temp+1)& (0+255),f,b
  5314  001304                     l5040:
  5315                           
  5316                           ; BSR set to: 0
  5317  001304  AF8B               	btfss	(___flmul@prod+2)& (0+255),7,b
  5318  001306  EF87  F009         	goto	u3691
  5319  00130A  EF89  F009         	goto	u3690
  5320  00130E                     u3691:
  5321  00130E  EF6D  F009         	goto	l5034
  5322  001312                     u3690:
  5323  001312                     
  5324                           ; BSR set to: 0
  5325  001312  0E00               	movlw	0
  5326  001314  6F83               	movwf	___flmul@aexp& (0+255),b
  5327  001316                     
  5328                           ; BSR set to: 0
  5329  001316  AF87               	btfss	(___flmul@grs+3)& (0+255),7,b
  5330  001318  EF90  F009         	goto	u3701
  5331  00131C  EF92  F009         	goto	u3700
  5332  001320                     u3701:
  5333  001320  EFB6  F009         	goto	l1894
  5334  001324                     u3700:
  5335  001324                     
  5336                           ; BSR set to: 0
  5337  001324  0EFF               	movlw	255
  5338  001326  1584               	andwf	___flmul@grs& (0+255),w,b
  5339  001328  6F7E               	movwf	??___flmul& (0+255),b
  5340  00132A  0EFF               	movlw	255
  5341  00132C  1585               	andwf	(___flmul@grs+1)& (0+255),w,b
  5342  00132E  6F7F               	movwf	(??___flmul+1)& (0+255),b
  5343  001330  0EFF               	movlw	255
  5344  001332  1586               	andwf	(___flmul@grs+2)& (0+255),w,b
  5345  001334  6F80               	movwf	(??___flmul+2)& (0+255),b
  5346  001336  0E7F               	movlw	127
  5347  001338  1587               	andwf	(___flmul@grs+3)& (0+255),w,b
  5348  00133A  6F81               	movwf	(??___flmul+3)& (0+255),b
  5349  00133C  517E               	movf	??___flmul& (0+255),w,b
  5350  00133E  117F               	iorwf	(??___flmul+1)& (0+255),w,b
  5351  001340  1180               	iorwf	(??___flmul+2)& (0+255),w,b
  5352  001342  1181               	iorwf	(??___flmul+3)& (0+255),w,b
  5353  001344  B4D8               	btfsc	status,2,c
  5354  001346  EFA7  F009         	goto	u3711
  5355  00134A  EFA9  F009         	goto	u3710
  5356  00134E                     u3711:
  5357  00134E  EFAD  F009         	goto	l1895
  5358  001352                     u3710:
  5359  001352                     l5048:
  5360                           
  5361                           ; BSR set to: 0
  5362  001352  0E01               	movlw	1
  5363  001354  6F83               	movwf	___flmul@aexp& (0+255),b
  5364  001356  EFB6  F009         	goto	l1894
  5365  00135A                     l1895:
  5366                           
  5367                           ; BSR set to: 0
  5368  00135A  A189               	btfss	___flmul@prod& (0+255),0,b
  5369  00135C  EFB2  F009         	goto	u3721
  5370  001360  EFB4  F009         	goto	u3720
  5371  001364                     u3721:
  5372  001364  EFB6  F009         	goto	l1894
  5373  001368                     u3720:
  5374  001368  EFA9  F009         	goto	l5048
  5375  00136C                     l1894:
  5376                           
  5377                           ; BSR set to: 0
  5378  00136C  5183               	movf	___flmul@aexp& (0+255),w,b
  5379  00136E  B4D8               	btfsc	status,2,c
  5380  001370  EFBC  F009         	goto	u3731
  5381  001374  EFBE  F009         	goto	u3730
  5382  001378                     u3731:
  5383  001378  EFE2  F009         	goto	l5060
  5384  00137C                     u3730:
  5385  00137C                     
  5386                           ; BSR set to: 0
  5387  00137C  0E01               	movlw	1
  5388  00137E  2789               	addwf	___flmul@prod& (0+255),f,b
  5389  001380  0E00               	movlw	0
  5390  001382  238A               	addwfc	(___flmul@prod+1)& (0+255),f,b
  5391  001384  238B               	addwfc	(___flmul@prod+2)& (0+255),f,b
  5392  001386  238C               	addwfc	(___flmul@prod+3)& (0+255),f,b
  5393  001388                     
  5394                           ; BSR set to: 0
  5395  001388  A18C               	btfss	(___flmul@prod+3)& (0+255),0,b
  5396  00138A  EFC9  F009         	goto	u3741
  5397  00138E  EFCB  F009         	goto	u3740
  5398  001392                     u3741:
  5399  001392  EFE2  F009         	goto	l5060
  5400  001396                     u3740:
  5401  001396                     
  5402                           ; BSR set to: 0
  5403  001396  C089  F07E         	movff	___flmul@prod,??___flmul
  5404  00139A  C08A  F07F         	movff	___flmul@prod+1,??___flmul+1
  5405  00139E  C08B  F080         	movff	___flmul@prod+2,??___flmul+2
  5406  0013A2  C08C  F081         	movff	___flmul@prod+3,??___flmul+3
  5407  0013A6  3581               	rlcf	(??___flmul+3)& (0+255),w,b
  5408  0013A8  3381               	rrcf	(??___flmul+3)& (0+255),f,b
  5409  0013AA  3380               	rrcf	(??___flmul+2)& (0+255),f,b
  5410  0013AC  337F               	rrcf	(??___flmul+1)& (0+255),f,b
  5411  0013AE  337E               	rrcf	??___flmul& (0+255),f,b
  5412  0013B0  C07E  F089         	movff	??___flmul,___flmul@prod
  5413  0013B4  C07F  F08A         	movff	??___flmul+1,___flmul@prod+1
  5414  0013B8  C080  F08B         	movff	??___flmul+2,___flmul@prod+2
  5415  0013BC  C081  F08C         	movff	??___flmul+3,___flmul@prod+3
  5416  0013C0                     
  5417                           ; BSR set to: 0
  5418  0013C0  4B8D               	infsnz	___flmul@temp& (0+255),f,b
  5419  0013C2  2B8E               	incf	(___flmul@temp+1)& (0+255),f,b
  5420  0013C4                     l5060:
  5421                           
  5422                           ; BSR set to: 0
  5423  0013C4  BF8E               	btfsc	(___flmul@temp+1)& (0+255),7,b
  5424  0013C6  EFED  F009         	goto	u3751
  5425  0013CA  518E               	movf	(___flmul@temp+1)& (0+255),w,b
  5426  0013CC  E108               	bnz	u3750
  5427  0013CE  298D               	incf	___flmul@temp& (0+255),w,b
  5428  0013D0  A0D8               	btfss	status,0,c
  5429  0013D2  EFED  F009         	goto	u3751
  5430  0013D6  EFEF  F009         	goto	u3750
  5431  0013DA                     u3751:
  5432  0013DA  EFF9  F009         	goto	l5064
  5433  0013DE                     u3750:
  5434  0013DE                     
  5435                           ; BSR set to: 0
  5436  0013DE  0E00               	movlw	0
  5437  0013E0  6F89               	movwf	___flmul@prod& (0+255),b
  5438  0013E2  0E00               	movlw	0
  5439  0013E4  6F8A               	movwf	(___flmul@prod+1)& (0+255),b
  5440  0013E6  0E80               	movlw	128
  5441  0013E8  6F8B               	movwf	(___flmul@prod+2)& (0+255),b
  5442  0013EA  0E7F               	movlw	127
  5443  0013EC  6F8C               	movwf	(___flmul@prod+3)& (0+255),b
  5444  0013EE  EF27  F00A         	goto	l5076
  5445  0013F2                     l5064:
  5446                           
  5447                           ; BSR set to: 0
  5448  0013F2  BF8E               	btfsc	(___flmul@temp+1)& (0+255),7,b
  5449  0013F4  EF06  F00A         	goto	u3760
  5450  0013F8  518E               	movf	(___flmul@temp+1)& (0+255),w,b
  5451  0013FA  E106               	bnz	u3761
  5452  0013FC  058D               	decf	___flmul@temp& (0+255),w,b
  5453  0013FE  B0D8               	btfsc	status,0,c
  5454  001400  EF04  F00A         	goto	u3761
  5455  001404  EF06  F00A         	goto	u3760
  5456  001408                     u3761:
  5457  001408  EF12  F00A         	goto	l1902
  5458  00140C                     u3760:
  5459  00140C                     
  5460                           ; BSR set to: 0
  5461  00140C  0E00               	movlw	0
  5462  00140E  6F89               	movwf	___flmul@prod& (0+255),b
  5463  001410  0E00               	movlw	0
  5464  001412  6F8A               	movwf	(___flmul@prod+1)& (0+255),b
  5465  001414  0E00               	movlw	0
  5466  001416  6F8B               	movwf	(___flmul@prod+2)& (0+255),b
  5467  001418  0E00               	movlw	0
  5468  00141A  6F8C               	movwf	(___flmul@prod+3)& (0+255),b
  5469  00141C  0E00               	movlw	0
  5470  00141E  6F82               	movwf	___flmul@sign& (0+255),b
  5471  001420  EF27  F00A         	goto	l5076
  5472  001424                     l1902:
  5473                           
  5474                           ; BSR set to: 0
  5475  001424  C08D  F088         	movff	___flmul@temp,___flmul@bexp
  5476  001428                     
  5477                           ; BSR set to: 0
  5478  001428  0EFF               	movlw	255
  5479  00142A  1789               	andwf	___flmul@prod& (0+255),f,b
  5480  00142C  0EFF               	movlw	255
  5481  00142E  178A               	andwf	(___flmul@prod+1)& (0+255),f,b
  5482  001430  0E7F               	movlw	127
  5483  001432  178B               	andwf	(___flmul@prod+2)& (0+255),f,b
  5484  001434  0E00               	movlw	0
  5485  001436  178C               	andwf	(___flmul@prod+3)& (0+255),f,b
  5486  001438                     
  5487                           ; BSR set to: 0
  5488  001438  A188               	btfss	___flmul@bexp& (0+255),0,b
  5489  00143A  EF21  F00A         	goto	u3771
  5490  00143E  EF23  F00A         	goto	u3770
  5491  001442                     u3771:
  5492  001442  EF24  F00A         	goto	l5074
  5493  001446                     u3770:
  5494  001446                     
  5495                           ; BSR set to: 0
  5496  001446  8F8B               	bsf	(___flmul@prod+2)& (0+255),7,b
  5497  001448                     l5074:
  5498                           
  5499                           ; BSR set to: 0
  5500  001448  90D8               	bcf	status,0,c
  5501  00144A  3188               	rrcf	___flmul@bexp& (0+255),w,b
  5502  00144C  6F8C               	movwf	(___flmul@prod+3)& (0+255),b
  5503  00144E                     l5076:
  5504                           
  5505                           ; BSR set to: 0
  5506  00144E  5182               	movf	___flmul@sign& (0+255),w,b
  5507  001450  138C               	iorwf	(___flmul@prod+3)& (0+255),f,b
  5508  001452                     
  5509                           ; BSR set to: 0
  5510  001452  C089  F076         	movff	___flmul@prod,?___flmul
  5511  001456  C08A  F077         	movff	___flmul@prod+1,?___flmul+1
  5512  00145A  C08B  F078         	movff	___flmul@prod+2,?___flmul+2
  5513  00145E  C08C  F079         	movff	___flmul@prod+3,?___flmul+3
  5514  001462                     l1889:
  5515                           
  5516                           ; BSR set to: 0
  5517  001462  0012               	return		;funcret
  5518  001464                     __end_of___flmul:
  5519                           	callstack 0
  5520                           
  5521 ;; *************** function ___awdiv *****************
  5522 ;; Defined at:
  5523 ;;		line 7 in file "C:\Program Files\Microchip\xc8\v2.36\pic\sources\c99\common\awdiv.c"
  5524 ;; Parameters:    Size  Location     Type
  5525 ;;  dividend        2    0[BANK0 ] int 
  5526 ;;  divisor         2    2[BANK0 ] int 
  5527 ;; Auto vars:     Size  Location     Type
  5528 ;;  quotient        2    6[BANK0 ] int 
  5529 ;;  sign            1    5[BANK0 ] unsigned char 
  5530 ;;  counter         1    4[BANK0 ] unsigned char 
  5531 ;; Return value:  Size  Location     Type
  5532 ;;                  2    0[BANK0 ] int 
  5533 ;; Registers used:
  5534 ;;		wreg, status,2, status,0
  5535 ;; Tracked objects:
  5536 ;;		On entry : 0/0
  5537 ;;		On exit  : 0/0
  5538 ;;		Unchanged: 0/0
  5539 ;; Data sizes:     COMRAM   BANK0   BANK1   BANK2   BANK3   BANK4   BANK5   BANK6   BANK7   BANK8   BANK9  BANK10  BANK1
      +1  BANK12  BANK13  BANK14  BANK15
  5540 ;;      Params:         0       4       0       0       0       0       0       0       0       0       0       0       
      +0       0       0       0       0
  5541 ;;      Locals:         0       4       0       0       0       0       0       0       0       0       0       0       
      +0       0       0       0       0
  5542 ;;      Temps:          0       0       0       0       0       0       0       0       0       0       0       0       
      +0       0       0       0       0
  5543 ;;      Totals:         0       8       0       0       0       0       0       0       0       0       0       0       
      +0       0       0       0       0
  5544 ;;Total ram usage:        8 bytes
  5545 ;; Hardware stack levels used: 1
  5546 ;; Hardware stack levels required when called: 8
  5547 ;; This function calls:
  5548 ;;		Nothing
  5549 ;; This function is called by:
  5550 ;;		_calcMotorPow
  5551 ;;		_setLenkung
  5552 ;; This function uses a non-reentrant model
  5553 ;;
  5554                           
  5555                           	psect	text25
  5556  002496                     __ptext25:
  5557                           	callstack 0
  5558  002496                     ___awdiv:
  5559                           	callstack 20
  5560  002496  0E00               	movlw	0
  5561  002498  0100               	movlb	0	; () banked
  5562  00249A  6F65               	movwf	___awdiv@sign& (0+255),b
  5563  00249C                     
  5564                           ; BSR set to: 0
  5565  00249C  BF63               	btfsc	(___awdiv@divisor+1)& (0+255),7,b
  5566  00249E  EF55  F012         	goto	u3780
  5567  0024A2  EF53  F012         	goto	u3781
  5568  0024A6                     u3781:
  5569  0024A6  EF5B  F012         	goto	l5090
  5570  0024AA                     u3780:
  5571  0024AA                     
  5572                           ; BSR set to: 0
  5573  0024AA  6D62               	negf	___awdiv@divisor& (0+255),b
  5574  0024AC  1F63               	comf	(___awdiv@divisor+1)& (0+255),f,b
  5575  0024AE  B0D8               	btfsc	status,0,c
  5576  0024B0  2B63               	incf	(___awdiv@divisor+1)& (0+255),f,b
  5577  0024B2                     
  5578                           ; BSR set to: 0
  5579  0024B2  0E01               	movlw	1
  5580  0024B4  6F65               	movwf	___awdiv@sign& (0+255),b
  5581  0024B6                     l5090:
  5582                           
  5583                           ; BSR set to: 0
  5584  0024B6  BF61               	btfsc	(___awdiv@dividend+1)& (0+255),7,b
  5585  0024B8  EF62  F012         	goto	u3790
  5586  0024BC  EF60  F012         	goto	u3791
  5587  0024C0                     u3791:
  5588  0024C0  EF68  F012         	goto	l5096
  5589  0024C4                     u3790:
  5590  0024C4                     
  5591                           ; BSR set to: 0
  5592  0024C4  6D60               	negf	___awdiv@dividend& (0+255),b
  5593  0024C6  1F61               	comf	(___awdiv@dividend+1)& (0+255),f,b
  5594  0024C8  B0D8               	btfsc	status,0,c
  5595  0024CA  2B61               	incf	(___awdiv@dividend+1)& (0+255),f,b
  5596  0024CC                     
  5597                           ; BSR set to: 0
  5598  0024CC  0E01               	movlw	1
  5599  0024CE  1B65               	xorwf	___awdiv@sign& (0+255),f,b
  5600  0024D0                     l5096:
  5601                           
  5602                           ; BSR set to: 0
  5603  0024D0  0E00               	movlw	0
  5604  0024D2  6F67               	movwf	(___awdiv@quotient+1)& (0+255),b
  5605  0024D4  0E00               	movlw	0
  5606  0024D6  6F66               	movwf	___awdiv@quotient& (0+255),b
  5607  0024D8                     
  5608                           ; BSR set to: 0
  5609  0024D8  5162               	movf	___awdiv@divisor& (0+255),w,b
  5610  0024DA  1163               	iorwf	(___awdiv@divisor+1)& (0+255),w,b
  5611  0024DC  B4D8               	btfsc	status,2,c
  5612  0024DE  EF73  F012         	goto	u3801
  5613  0024E2  EF75  F012         	goto	u3800
  5614  0024E6                     u3801:
  5615  0024E6  EF9D  F012         	goto	l5118
  5616  0024EA                     u3800:
  5617  0024EA                     
  5618                           ; BSR set to: 0
  5619  0024EA  0E01               	movlw	1
  5620  0024EC  6F64               	movwf	___awdiv@counter& (0+255),b
  5621  0024EE  EF7D  F012         	goto	l5104
  5622  0024F2                     l5102:
  5623                           
  5624                           ; BSR set to: 0
  5625  0024F2  90D8               	bcf	status,0,c
  5626  0024F4  3762               	rlcf	___awdiv@divisor& (0+255),f,b
  5627  0024F6  3763               	rlcf	(___awdiv@divisor+1)& (0+255),f,b
  5628  0024F8  2B64               	incf	___awdiv@counter& (0+255),f,b
  5629  0024FA                     l5104:
  5630                           
  5631                           ; BSR set to: 0
  5632  0024FA  AF63               	btfss	(___awdiv@divisor+1)& (0+255),7,b
  5633  0024FC  EF82  F012         	goto	u3811
  5634  002500  EF84  F012         	goto	u3810
  5635  002504                     u3811:
  5636  002504  EF79  F012         	goto	l5102
  5637  002508                     u3810:
  5638  002508                     l5106:
  5639                           
  5640                           ; BSR set to: 0
  5641  002508  90D8               	bcf	status,0,c
  5642  00250A  3766               	rlcf	___awdiv@quotient& (0+255),f,b
  5643  00250C  3767               	rlcf	(___awdiv@quotient+1)& (0+255),f,b
  5644  00250E                     
  5645                           ; BSR set to: 0
  5646  00250E  5162               	movf	___awdiv@divisor& (0+255),w,b
  5647  002510  5D60               	subwf	___awdiv@dividend& (0+255),w,b
  5648  002512  5163               	movf	(___awdiv@divisor+1)& (0+255),w,b
  5649  002514  5961               	subwfb	(___awdiv@dividend+1)& (0+255),w,b
  5650  002516  A0D8               	btfss	status,0,c
  5651  002518  EF90  F012         	goto	u3821
  5652  00251C  EF92  F012         	goto	u3820
  5653  002520                     u3821:
  5654  002520  EF97  F012         	goto	l5114
  5655  002524                     u3820:
  5656  002524                     
  5657                           ; BSR set to: 0
  5658  002524  5162               	movf	___awdiv@divisor& (0+255),w,b
  5659  002526  5F60               	subwf	___awdiv@dividend& (0+255),f,b
  5660  002528  5163               	movf	(___awdiv@divisor+1)& (0+255),w,b
  5661  00252A  5B61               	subwfb	(___awdiv@dividend+1)& (0+255),f,b
  5662  00252C                     
  5663                           ; BSR set to: 0
  5664  00252C  8166               	bsf	___awdiv@quotient& (0+255),0,b
  5665  00252E                     l5114:
  5666                           
  5667                           ; BSR set to: 0
  5668  00252E  90D8               	bcf	status,0,c
  5669  002530  3363               	rrcf	(___awdiv@divisor+1)& (0+255),f,b
  5670  002532  3362               	rrcf	___awdiv@divisor& (0+255),f,b
  5671  002534                     
  5672                           ; BSR set to: 0
  5673  002534  2F64               	decfsz	___awdiv@counter& (0+255),f,b
  5674  002536  EF84  F012         	goto	l5106
  5675  00253A                     l5118:
  5676                           
  5677                           ; BSR set to: 0
  5678  00253A  5165               	movf	___awdiv@sign& (0+255),w,b
  5679  00253C  B4D8               	btfsc	status,2,c
  5680  00253E  EFA3  F012         	goto	u3831
  5681  002542  EFA5  F012         	goto	u3830
  5682  002546                     u3831:
  5683  002546  EFA9  F012         	goto	l5122
  5684  00254A                     u3830:
  5685  00254A                     
  5686                           ; BSR set to: 0
  5687  00254A  6D66               	negf	___awdiv@quotient& (0+255),b
  5688  00254C  1F67               	comf	(___awdiv@quotient+1)& (0+255),f,b
  5689  00254E  B0D8               	btfsc	status,0,c
  5690  002550  2B67               	incf	(___awdiv@quotient+1)& (0+255),f,b
  5691  002552                     l5122:
  5692                           
  5693                           ; BSR set to: 0
  5694  002552  C066  F060         	movff	___awdiv@quotient,?___awdiv
  5695  002556  C067  F061         	movff	___awdiv@quotient+1,?___awdiv+1
  5696  00255A                     
  5697                           ; BSR set to: 0
  5698  00255A  0012               	return		;funcret
  5699  00255C                     __end_of___awdiv:
  5700                           	callstack 0
  5701                           
  5702 ;; *************** function _calcLenkung *****************
  5703 ;; Defined at:
  5704 ;;		line 140 in file "main.c"
  5705 ;; Parameters:    Size  Location     Type
  5706 ;;		None
  5707 ;; Auto vars:     Size  Location     Type
  5708 ;;  ratio           4    0        float 
  5709 ;; Return value:  Size  Location     Type
  5710 ;;                  1    wreg      void 
  5711 ;; Registers used:
  5712 ;;		wreg, status,2, status,0
  5713 ;; Tracked objects:
  5714 ;;		On entry : 0/0
  5715 ;;		On exit  : 0/0
  5716 ;;		Unchanged: 0/0
  5717 ;; Data sizes:     COMRAM   BANK0   BANK1   BANK2   BANK3   BANK4   BANK5   BANK6   BANK7   BANK8   BANK9  BANK10  BANK1
      +1  BANK12  BANK13  BANK14  BANK15
  5718 ;;      Params:         0       0       0       0       0       0       0       0       0       0       0       0       
      +0       0       0       0       0
  5719 ;;      Locals:         0       0       0       0       0       0       0       0       0       0       0       0       
      +0       0       0       0       0
  5720 ;;      Temps:          2       0       0       0       0       0       0       0       0       0       0       0       
      +0       0       0       0       0
  5721 ;;      Totals:         2       0       0       0       0       0       0       0       0       0       0       0       
      +0       0       0       0       0
  5722 ;;Total ram usage:        2 bytes
  5723 ;; Hardware stack levels used: 1
  5724 ;; Hardware stack levels required when called: 8
  5725 ;; This function calls:
  5726 ;;		Nothing
  5727 ;; This function is called by:
  5728 ;;		_loop
  5729 ;; This function uses a non-reentrant model
  5730 ;;
  5731                           
  5732                           	psect	text26
  5733  002D82                     __ptext26:
  5734                           	callstack 0
  5735  002D82                     _calcLenkung:
  5736                           	callstack 21
  5737  002D82  5040               	movf	_fahrModus^0,w,c
  5738  002D84  6E20               	movwf	??_calcLenkung^0,c
  5739  002D86  6A21               	clrf	(??_calcLenkung+1)^0,c
  5740                           
  5741                           ; Switch on 2 bytes has been partitioned into a top level switch of size 1, and 1 sub-sw
      +                          itches
  5742                           ; Switch size 1, requested type "simple"
  5743                           ; Number of cases is 1, Range of values is 0 to 0
  5744                           ; switch strategies available:
  5745                           ; Name         Instructions Cycles
  5746                           ; simple_byte            4     3 (average)
  5747                           ;	Chosen strategy is simple_byte
  5748  002D88  5021               	movf	(??_calcLenkung+1)^0,w,c
  5749  002D8A  0A00               	xorlw	0	; case 0
  5750  002D8C  B4D8               	btfsc	status,2,c
  5751  002D8E  EFCB  F016         	goto	l5350
  5752  002D92  EFE2  F016         	goto	l1225
  5753  002D96                     l5350:
  5754                           
  5755                           ; Switch size 1, requested type "simple"
  5756                           ; Number of cases is 5, Range of values is 0 to 4
  5757                           ; switch strategies available:
  5758                           ; Name         Instructions Cycles
  5759                           ; simple_byte           16     9 (average)
  5760                           ;	Chosen strategy is simple_byte
  5761  002D96  5020               	movf	??_calcLenkung^0,w,c
  5762  002D98  0A00               	xorlw	0	; case 0
  5763  002D9A  B4D8               	btfsc	status,2,c
  5764  002D9C  EFE2  F016         	goto	l1225
  5765  002DA0  0A01               	xorlw	1	; case 1
  5766  002DA2  B4D8               	btfsc	status,2,c
  5767  002DA4  EFE2  F016         	goto	l1225
  5768  002DA8  0A03               	xorlw	3	; case 2
  5769  002DAA  B4D8               	btfsc	status,2,c
  5770  002DAC  EFE2  F016         	goto	l1225
  5771  002DB0  0A01               	xorlw	1	; case 3
  5772  002DB2  B4D8               	btfsc	status,2,c
  5773  002DB4  EFE2  F016         	goto	l1225
  5774  002DB8  0A07               	xorlw	7	; case 4
  5775  002DBA  B4D8               	btfsc	status,2,c
  5776  002DBC  EFE2  F016         	goto	l1225
  5777  002DC0  EFE2  F016         	goto	l1225
  5778  002DC4                     l1225:
  5779  002DC4  0012               	return		;funcret
  5780  002DC6                     __end_of_calcLenkung:
  5781                           	callstack 0
  5782                           
  5783 ;; *************** function _ADCC_GetSingleConversion *****************
  5784 ;; Defined at:
  5785 ;;		line 137 in file "mcc_generated_files/adcc.c"
  5786 ;; Parameters:    Size  Location     Type
  5787 ;;  channel         1    wreg     enum E16067
  5788 ;; Auto vars:     Size  Location     Type
  5789 ;;  channel         1   33[COMRAM] enum E16067
  5790 ;; Return value:  Size  Location     Type
  5791 ;;                  2   31[COMRAM] unsigned short 
  5792 ;; Registers used:
  5793 ;;		wreg, status,2, status,0
  5794 ;; Tracked objects:
  5795 ;;		On entry : 0/0
  5796 ;;		On exit  : 0/0
  5797 ;;		Unchanged: 0/0
  5798 ;; Data sizes:     COMRAM   BANK0   BANK1   BANK2   BANK3   BANK4   BANK5   BANK6   BANK7   BANK8   BANK9  BANK10  BANK1
      +1  BANK12  BANK13  BANK14  BANK15
  5799 ;;      Params:         2       0       0       0       0       0       0       0       0       0       0       0       
      +0       0       0       0       0
  5800 ;;      Locals:         1       0       0       0       0       0       0       0       0       0       0       0       
      +0       0       0       0       0
  5801 ;;      Temps:          0       2       0       0       0       0       0       0       0       0       0       0       
      +0       0       0       0       0
  5802 ;;      Totals:         3       2       0       0       0       0       0       0       0       0       0       0       
      +0       0       0       0       0
  5803 ;;Total ram usage:        5 bytes
  5804 ;; Hardware stack levels used: 1
  5805 ;; Hardware stack levels required when called: 8
  5806 ;; This function calls:
  5807 ;;		Nothing
  5808 ;; This function is called by:
  5809 ;;		_loop
  5810 ;; This function uses a non-reentrant model
  5811 ;;
  5812                           
  5813                           	psect	text27
  5814  002E88                     __ptext27:
  5815                           	callstack 0
  5816  002E88                     _ADCC_GetSingleConversion:
  5817                           	callstack 21
  5818                           
  5819                           ;incstack = 0
  5820                           ;ADCC_GetSingleConversion@channel stored from wreg
  5821  002E88  6E22               	movwf	ADCC_GetSingleConversion@channel^0,c
  5822  002E8A                     
  5823                           ;mcc_generated_files/adcc.c: 137: adc_result_t ADCC_GetSingleConversion(adcc_channel_t c
      +                          hannel);mcc_generated_files/adcc.c: 138: {;mcc_generated_files/adcc.c: 140:     ADPCH = 
      +                          channel;
  5824  002E8A  0060  F08B  FEF1   	movff	ADCC_GetSingleConversion@channel,16113	;volatile
  5825  002E90                     
  5826                           ;mcc_generated_files/adcc.c: 143:     ADCON0bits.ADON = 1;
  5827  002E90  013E               	movlb	62	; () banked
  5828  002E92  8FF8               	bsf	248,7,b	;volatile
  5829  002E94                     
  5830                           ; BSR set to: 62
  5831                           ;mcc_generated_files/adcc.c: 146:     ADCON0bits.ADCONT = 0;
  5832  002E94  9DF8               	bcf	248,6,b	;volatile
  5833  002E96                     
  5834                           ; BSR set to: 62
  5835                           ;mcc_generated_files/adcc.c: 149:     ADCON0bits.ADGO = 1;
  5836  002E96  81F8               	bsf	248,0,b	;volatile
  5837  002E98                     l1054:
  5838                           
  5839                           ; BSR set to: 62
  5840                           ;mcc_generated_files/adcc.c: 153:     while (ADCON0bits.ADGO)
  5841  002E98  B1F8               	btfsc	248,0,b	;volatile
  5842  002E9A  EF51  F017         	goto	u3941
  5843  002E9E  EF53  F017         	goto	u3940
  5844  002EA2                     u3941:
  5845  002EA2  EF4C  F017         	goto	l1054
  5846  002EA6                     u3940:
  5847  002EA6                     
  5848                           ; BSR set to: 62
  5849                           ;mcc_generated_files/adcc.c: 159:     return ((adc_result_t)((ADRESH << 8) + ADRESL));
  5850  002EA6  51F0               	movf	240,w,b	;volatile
  5851  002EA8  0100               	movlb	0	; () banked
  5852  002EAA  6F61               	movwf	(??_ADCC_GetSingleConversion+1)& (0+255),b
  5853  002EAC  6B60               	clrf	??_ADCC_GetSingleConversion& (0+255),b
  5854  002EAE  013E               	movlb	62	; () banked
  5855  002EB0  51EF               	movf	239,w,b	;volatile
  5856  002EB2  0100               	movlb	0	; () banked
  5857  002EB4  2560               	addwf	??_ADCC_GetSingleConversion& (0+255),w,b
  5858  002EB6  6E20               	movwf	?_ADCC_GetSingleConversion^0,c
  5859  002EB8  013E               	movlb	62	; () banked
  5860  002EBA  0E00               	movlw	0
  5861  002EBC  0100               	movlb	0	; () banked
  5862  002EBE  2161               	addwfc	(??_ADCC_GetSingleConversion+1)& (0+255),w,b
  5863  002EC0  6E21               	movwf	(?_ADCC_GetSingleConversion+1)^0,c
  5864  002EC2                     
  5865                           ; BSR set to: 0
  5866  002EC2  0012               	return		;funcret
  5867  002EC4                     __end_of_ADCC_GetSingleConversion:
  5868                           	callstack 0
  5869                           
  5870 ;; *************** function _SYSTEM_Initialize *****************
  5871 ;; Defined at:
  5872 ;;		line 50 in file "mcc_generated_files/mcc.c"
  5873 ;; Parameters:    Size  Location     Type
  5874 ;;		None
  5875 ;; Auto vars:     Size  Location     Type
  5876 ;;		None
  5877 ;; Return value:  Size  Location     Type
  5878 ;;                  1    wreg      void 
  5879 ;; Registers used:
  5880 ;;		wreg, status,2, status,0, cstack
  5881 ;; Tracked objects:
  5882 ;;		On entry : 0/0
  5883 ;;		On exit  : 0/0
  5884 ;;		Unchanged: 0/0
  5885 ;; Data sizes:     COMRAM   BANK0   BANK1   BANK2   BANK3   BANK4   BANK5   BANK6   BANK7   BANK8   BANK9  BANK10  BANK1
      +1  BANK12  BANK13  BANK14  BANK15
  5886 ;;      Params:         0       0       0       0       0       0       0       0       0       0       0       0       
      +0       0       0       0       0
  5887 ;;      Locals:         0       0       0       0       0       0       0       0       0       0       0       0       
      +0       0       0       0       0
  5888 ;;      Temps:          0       0       0       0       0       0       0       0       0       0       0       0       
      +0       0       0       0       0
  5889 ;;      Totals:         0       0       0       0       0       0       0       0       0       0       0       0       
      +0       0       0       0       0
  5890 ;;Total ram usage:        0 bytes
  5891 ;; Hardware stack levels used: 1
  5892 ;; Hardware stack levels required when called: 10
  5893 ;; This function calls:
  5894 ;;		_ADCC_Initialize
  5895 ;;		_CCP3_Initialize
  5896 ;;		_CCP4_Initialize
  5897 ;;		_CLC3_Initialize
  5898 ;;		_INTERRUPT_Initialize
  5899 ;;		_OSCILLATOR_Initialize
  5900 ;;		_PIN_MANAGER_Initialize
  5901 ;;		_PMD_Initialize
  5902 ;;		_PWM5_Initialize
  5903 ;;		_PWM6_Initialize
  5904 ;;		_PWM7_Initialize
  5905 ;;		_PWM8_Initialize
  5906 ;;		_SMT1_Initialize
  5907 ;;		_TMR2_Initialize
  5908 ;;		_TMR3_Initialize
  5909 ;;		_TMR4_Initialize
  5910 ;;		_TMR5_Initialize
  5911 ;;		_UART1_Initialize
  5912 ;; This function is called by:
  5913 ;;		_main
  5914 ;; This function uses a non-reentrant model
  5915 ;;
  5916                           
  5917                           	psect	text28
  5918  002C10                     __ptext28:
  5919                           	callstack 0
  5920  002C10                     _SYSTEM_Initialize:
  5921                           	callstack 20
  5922  002C10                     
  5923                           ;mcc_generated_files/mcc.c: 52:     INTERRUPT_Initialize();
  5924  002C10  EC96  F015         	call	_INTERRUPT_Initialize	;wreg free
  5925                           
  5926                           ;mcc_generated_files/mcc.c: 53:     PMD_Initialize();
  5927  002C14  ECC0  F018         	call	_PMD_Initialize	;wreg free
  5928                           
  5929                           ;mcc_generated_files/mcc.c: 54:     PIN_MANAGER_Initialize();
  5930  002C18  EC82  F011         	call	_PIN_MANAGER_Initialize	;wreg free
  5931                           
  5932                           ;mcc_generated_files/mcc.c: 55:     OSCILLATOR_Initialize();
  5933  002C1C  EC3E  F019         	call	_OSCILLATOR_Initialize	;wreg free
  5934  002C20                     
  5935                           ;mcc_generated_files/mcc.c: 56:     CCP3_Initialize();
  5936  002C20  ECE3  F017         	call	_CCP3_Initialize	;wreg free
  5937  002C24                     
  5938                           ;mcc_generated_files/mcc.c: 57:     ADCC_Initialize();
  5939  002C24  ECC4  F014         	call	_ADCC_Initialize	;wreg free
  5940                           
  5941                           ;mcc_generated_files/mcc.c: 58:     TMR4_Initialize();
  5942  002C28  EC3F  F018         	call	_TMR4_Initialize	;wreg free
  5943  002C2C                     
  5944                           ;mcc_generated_files/mcc.c: 59:     SMT1_Initialize();
  5945  002C2C  ECB4  F017         	call	_SMT1_Initialize	;wreg free
  5946  002C30                     
  5947                           ;mcc_generated_files/mcc.c: 60:     PWM8_Initialize();
  5948  002C30  EC0E  F019         	call	_PWM8_Initialize	;wreg free
  5949  002C34                     
  5950                           ;mcc_generated_files/mcc.c: 61:     TMR2_Initialize();
  5951  002C34  ECF2  F018         	call	_TMR2_Initialize	;wreg free
  5952  002C38                     
  5953                           ;mcc_generated_files/mcc.c: 62:     PWM6_Initialize();
  5954  002C38  EC26  F019         	call	_PWM6_Initialize	;wreg free
  5955                           
  5956                           ;mcc_generated_files/mcc.c: 63:     CCP4_Initialize();
  5957  002C3C  ECCC  F017         	call	_CCP4_Initialize	;wreg free
  5958  002C40                     
  5959                           ;mcc_generated_files/mcc.c: 64:     CLC3_Initialize();
  5960  002C40  EC55  F018         	call	_CLC3_Initialize	;wreg free
  5961  002C44                     
  5962                           ;mcc_generated_files/mcc.c: 65:     TMR3_Initialize();
  5963  002C44  EC62  F017         	call	_TMR3_Initialize	;wreg free
  5964                           
  5965                           ;mcc_generated_files/mcc.c: 66:     PWM5_Initialize();
  5966  002C48  EC32  F019         	call	_PWM5_Initialize	;wreg free
  5967  002C4C                     
  5968                           ;mcc_generated_files/mcc.c: 67:     TMR5_Initialize();
  5969  002C4C  EC2D  F016         	call	_TMR5_Initialize	;wreg free
  5970  002C50                     
  5971                           ;mcc_generated_files/mcc.c: 68:     PWM7_Initialize();
  5972  002C50  EC1A  F019         	call	_PWM7_Initialize	;wreg free
  5973                           
  5974                           ;mcc_generated_files/mcc.c: 69:     UART1_Initialize();
  5975  002C54  EC0E  F013         	call	_UART1_Initialize	;wreg free
  5976  002C58  0012               	return		;funcret
  5977  002C5A                     __end_of_SYSTEM_Initialize:
  5978                           	callstack 0
  5979                           
  5980 ;; *************** function _UART1_Initialize *****************
  5981 ;; Defined at:
  5982 ;;		line 87 in file "mcc_generated_files/uart1.c"
  5983 ;; Parameters:    Size  Location     Type
  5984 ;;		None
  5985 ;; Auto vars:     Size  Location     Type
  5986 ;;		None
  5987 ;; Return value:  Size  Location     Type
  5988 ;;                  1    wreg      void 
  5989 ;; Registers used:
  5990 ;;		wreg, status,2, status,0, cstack
  5991 ;; Tracked objects:
  5992 ;;		On entry : 0/0
  5993 ;;		On exit  : 0/0
  5994 ;;		Unchanged: 0/0
  5995 ;; Data sizes:     COMRAM   BANK0   BANK1   BANK2   BANK3   BANK4   BANK5   BANK6   BANK7   BANK8   BANK9  BANK10  BANK1
      +1  BANK12  BANK13  BANK14  BANK15
  5996 ;;      Params:         0       0       0       0       0       0       0       0       0       0       0       0       
      +0       0       0       0       0
  5997 ;;      Locals:         0       0       0       0       0       0       0       0       0       0       0       0       
      +0       0       0       0       0
  5998 ;;      Temps:          0       0       0       0       0       0       0       0       0       0       0       0       
      +0       0       0       0       0
  5999 ;;      Totals:         0       0       0       0       0       0       0       0       0       0       0       0       
      +0       0       0       0       0
  6000 ;;Total ram usage:        0 bytes
  6001 ;; Hardware stack levels used: 1
  6002 ;; Hardware stack levels required when called: 9
  6003 ;; This function calls:
  6004 ;;		_UART1_SetErrorHandler
  6005 ;;		_UART1_SetFramingErrorHandler
  6006 ;;		_UART1_SetOverrunErrorHandler
  6007 ;;		_UART1_SetRxInterruptHandler
  6008 ;;		_UART1_SetTxInterruptHandler
  6009 ;; This function is called by:
  6010 ;;		_SYSTEM_Initialize
  6011 ;; This function uses a non-reentrant model
  6012 ;;
  6013                           
  6014                           	psect	text29
  6015  00261C                     __ptext29:
  6016                           	callstack 0
  6017  00261C                     _UART1_Initialize:
  6018                           	callstack 20
  6019  00261C                     
  6020                           ;mcc_generated_files/uart1.c: 90:     PIE3bits.U1RXIE = 0;
  6021  00261C  0139               	movlb	57	; () banked
  6022  00261E  9793               	bcf	147,3,b	;volatile
  6023  002620                     
  6024                           ; BSR set to: 57
  6025                           ;mcc_generated_files/uart1.c: 91:     UART1_SetRxInterruptHandler(UART1_Receive_ISR);
  6026  002620  0E5C               	movlw	low _UART1_Receive_ISR
  6027  002622  6E20               	movwf	UART1_SetRxInterruptHandler@InterruptHandler^0,c
  6028  002624  0E25               	movlw	high _UART1_Receive_ISR
  6029  002626  6E21               	movwf	(UART1_SetRxInterruptHandler@InterruptHandler+1)^0,c
  6030  002628  EC66  F019         	call	_UART1_SetRxInterruptHandler	;wreg free
  6031  00262C                     
  6032                           ;mcc_generated_files/uart1.c: 92:     PIE3bits.U1TXIE = 0;
  6033  00262C  0139               	movlb	57	; () banked
  6034  00262E  9993               	bcf	147,4,b	;volatile
  6035                           
  6036                           ;mcc_generated_files/uart1.c: 93:     UART1_SetTxInterruptHandler(UART1_Transmit_ISR);
  6037  002630  0EC6               	movlw	low _UART1_Transmit_ISR
  6038  002632  6E20               	movwf	UART1_SetTxInterruptHandler@InterruptHandler^0,c
  6039  002634  0E2D               	movlw	high _UART1_Transmit_ISR
  6040  002636  6E21               	movwf	(UART1_SetTxInterruptHandler@InterruptHandler+1)^0,c
  6041  002638  EC61  F019         	call	_UART1_SetTxInterruptHandler	;wreg free
  6042  00263C                     
  6043                           ;mcc_generated_files/uart1.c: 98:     U1P1L = 0x00;
  6044  00263C  0E00               	movlw	0
  6045  00263E  013D               	movlb	61	; () banked
  6046  002640  6FEC               	movwf	236,b	;volatile
  6047  002642                     
  6048                           ; BSR set to: 61
  6049                           ;mcc_generated_files/uart1.c: 101:     U1P1H = 0x00;
  6050  002642  0E00               	movlw	0
  6051  002644  6FED               	movwf	237,b	;volatile
  6052  002646                     
  6053                           ; BSR set to: 61
  6054                           ;mcc_generated_files/uart1.c: 104:     U1P2L = 0x00;
  6055  002646  0E00               	movlw	0
  6056  002648  6FEE               	movwf	238,b	;volatile
  6057  00264A                     
  6058                           ; BSR set to: 61
  6059                           ;mcc_generated_files/uart1.c: 107:     U1P2H = 0x00;
  6060  00264A  0E00               	movlw	0
  6061  00264C  6FEF               	movwf	239,b	;volatile
  6062  00264E                     
  6063                           ; BSR set to: 61
  6064                           ;mcc_generated_files/uart1.c: 110:     U1P3L = 0x00;
  6065  00264E  0E00               	movlw	0
  6066  002650  6FF0               	movwf	240,b	;volatile
  6067  002652                     
  6068                           ; BSR set to: 61
  6069                           ;mcc_generated_files/uart1.c: 113:     U1P3H = 0x00;
  6070  002652  0E00               	movlw	0
  6071  002654  6FF1               	movwf	241,b	;volatile
  6072  002656                     
  6073                           ; BSR set to: 61
  6074                           ;mcc_generated_files/uart1.c: 116:     U1CON0 = 0xB0;
  6075  002656  0EB0               	movlw	176
  6076  002658  6FF2               	movwf	242,b	;volatile
  6077  00265A                     
  6078                           ; BSR set to: 61
  6079                           ;mcc_generated_files/uart1.c: 119:     U1CON1 = 0x80;
  6080  00265A  0E80               	movlw	128
  6081  00265C  6FF3               	movwf	243,b	;volatile
  6082  00265E                     
  6083                           ; BSR set to: 61
  6084                           ;mcc_generated_files/uart1.c: 122:     U1CON2 = 0x00;
  6085  00265E  0E00               	movlw	0
  6086  002660  6FF4               	movwf	244,b	;volatile
  6087  002662                     
  6088                           ; BSR set to: 61
  6089                           ;mcc_generated_files/uart1.c: 125:     U1BRGL = 0x8A;
  6090  002662  0E8A               	movlw	138
  6091  002664  6FF5               	movwf	245,b	;volatile
  6092  002666                     
  6093                           ; BSR set to: 61
  6094                           ;mcc_generated_files/uart1.c: 128:     U1BRGH = 0x00;
  6095  002666  0E00               	movlw	0
  6096  002668  6FF6               	movwf	246,b	;volatile
  6097  00266A                     
  6098                           ; BSR set to: 61
  6099                           ;mcc_generated_files/uart1.c: 131:     U1FIFO = 0x00;
  6100  00266A  0E00               	movlw	0
  6101  00266C  6FF7               	movwf	247,b	;volatile
  6102  00266E                     
  6103                           ; BSR set to: 61
  6104                           ;mcc_generated_files/uart1.c: 134:     U1UIR = 0x00;
  6105  00266E  0E00               	movlw	0
  6106  002670  6FF8               	movwf	248,b	;volatile
  6107  002672                     
  6108                           ; BSR set to: 61
  6109                           ;mcc_generated_files/uart1.c: 137:     U1ERRIR = 0x00;
  6110  002672  0E00               	movlw	0
  6111  002674  6FF9               	movwf	249,b	;volatile
  6112  002676                     
  6113                           ; BSR set to: 61
  6114                           ;mcc_generated_files/uart1.c: 140:     U1ERRIE = 0x00;
  6115  002676  0E00               	movlw	0
  6116  002678  6FFA               	movwf	250,b	;volatile
  6117  00267A                     
  6118                           ; BSR set to: 61
  6119                           ;mcc_generated_files/uart1.c: 143:     UART1_SetFramingErrorHandler(UART1_DefaultFraming
      +                          ErrorHandler);
  6120  00267A  0E32               	movlw	low _UART1_DefaultFramingErrorHandler
  6121  00267C  6E20               	movwf	UART1_SetFramingErrorHandler@interruptHandler^0,c
  6122  00267E  0E33               	movlw	high _UART1_DefaultFramingErrorHandler
  6123  002680  6E21               	movwf	(UART1_SetFramingErrorHandler@interruptHandler+1)^0,c
  6124  002682  EC70  F019         	call	_UART1_SetFramingErrorHandler	;wreg free
  6125  002686                     
  6126                           ;mcc_generated_files/uart1.c: 144:     UART1_SetOverrunErrorHandler(UART1_DefaultOverrun
      +                          ErrorHandler);
  6127  002686  0E30               	movlw	low _UART1_DefaultOverrunErrorHandler
  6128  002688  6E20               	movwf	UART1_SetOverrunErrorHandler@interruptHandler^0,c
  6129  00268A  0E33               	movlw	high _UART1_DefaultOverrunErrorHandler
  6130  00268C  6E21               	movwf	(UART1_SetOverrunErrorHandler@interruptHandler+1)^0,c
  6131  00268E  EC6B  F019         	call	_UART1_SetOverrunErrorHandler	;wreg free
  6132  002692                     
  6133                           ;mcc_generated_files/uart1.c: 145:     UART1_SetErrorHandler(UART1_DefaultErrorHandler);
  6134  002692  0E24               	movlw	low _UART1_DefaultErrorHandler
  6135  002694  6E20               	movwf	UART1_SetErrorHandler@interruptHandler^0,c
  6136  002696  0E33               	movlw	high _UART1_DefaultErrorHandler
  6137  002698  6E21               	movwf	(UART1_SetErrorHandler@interruptHandler+1)^0,c
  6138  00269A  EC75  F019         	call	_UART1_SetErrorHandler	;wreg free
  6139                           
  6140                           ;mcc_generated_files/uart1.c: 147:     uart1RxLastError.status = 0;
  6141  00269E  0E00               	movlw	0
  6142  0026A0  6E33               	movwf	_uart1RxLastError^0,c	;volatile
  6143                           
  6144                           ;mcc_generated_files/uart1.c: 150:     uart1TxHead = 0;
  6145  0026A2  0E00               	movlw	0
  6146  0026A4  6E38               	movwf	_uart1TxHead^0,c	;volatile
  6147                           
  6148                           ;mcc_generated_files/uart1.c: 151:     uart1TxTail = 0;
  6149  0026A6  0E00               	movlw	0
  6150  0026A8  6E37               	movwf	_uart1TxTail^0,c	;volatile
  6151                           
  6152                           ;mcc_generated_files/uart1.c: 152:     uart1TxBufferRemaining = sizeof(uart1TxBuffer);
  6153  0026AA  0E08               	movlw	8
  6154  0026AC  6E3F               	movwf	_uart1TxBufferRemaining^0,c	;volatile
  6155                           
  6156                           ;mcc_generated_files/uart1.c: 153:     uart1RxHead = 0;
  6157  0026AE  0E00               	movlw	0
  6158  0026B0  6E36               	movwf	_uart1RxHead^0,c	;volatile
  6159                           
  6160                           ;mcc_generated_files/uart1.c: 154:     uart1RxTail = 0;
  6161  0026B2  0E00               	movlw	0
  6162  0026B4  6E35               	movwf	_uart1RxTail^0,c	;volatile
  6163                           
  6164                           ;mcc_generated_files/uart1.c: 155:     uart1RxCount = 0;
  6165  0026B6  0E00               	movlw	0
  6166  0026B8  6E34               	movwf	_uart1RxCount^0,c	;volatile
  6167  0026BA                     
  6168                           ;mcc_generated_files/uart1.c: 158:     PIE3bits.U1RXIE = 1;
  6169  0026BA  0139               	movlb	57	; () banked
  6170  0026BC  8793               	bsf	147,3,b	;volatile
  6171  0026BE                     
  6172                           ; BSR set to: 57
  6173  0026BE  0012               	return		;funcret
  6174  0026C0                     __end_of_UART1_Initialize:
  6175                           	callstack 0
  6176                           
  6177 ;; *************** function _UART1_SetTxInterruptHandler *****************
  6178 ;; Defined at:
  6179 ;;		line 333 in file "mcc_generated_files/uart1.c"
  6180 ;; Parameters:    Size  Location     Type
  6181 ;;  InterruptHan    2   31[COMRAM] PTR FTN()void 
  6182 ;;		 -> UART1_Transmit_ISR(1), 
  6183 ;; Auto vars:     Size  Location     Type
  6184 ;;		None
  6185 ;; Return value:  Size  Location     Type
  6186 ;;                  1    wreg      void 
  6187 ;; Registers used:
  6188 ;;		wreg, status,2, status,0
  6189 ;; Tracked objects:
  6190 ;;		On entry : 0/0
  6191 ;;		On exit  : 0/0
  6192 ;;		Unchanged: 0/0
  6193 ;; Data sizes:     COMRAM   BANK0   BANK1   BANK2   BANK3   BANK4   BANK5   BANK6   BANK7   BANK8   BANK9  BANK10  BANK1
      +1  BANK12  BANK13  BANK14  BANK15
  6194 ;;      Params:         2       0       0       0       0       0       0       0       0       0       0       0       
      +0       0       0       0       0
  6195 ;;      Locals:         0       0       0       0       0       0       0       0       0       0       0       0       
      +0       0       0       0       0
  6196 ;;      Temps:          0       0       0       0       0       0       0       0       0       0       0       0       
      +0       0       0       0       0
  6197 ;;      Totals:         2       0       0       0       0       0       0       0       0       0       0       0       
      +0       0       0       0       0
  6198 ;;Total ram usage:        2 bytes
  6199 ;; Hardware stack levels used: 1
  6200 ;; Hardware stack levels required when called: 8
  6201 ;; This function calls:
  6202 ;;		Nothing
  6203 ;; This function is called by:
  6204 ;;		_UART1_Initialize
  6205 ;; This function uses a non-reentrant model
  6206 ;;
  6207                           
  6208                           	psect	text30
  6209  0032C2                     __ptext30:
  6210                           	callstack 0
  6211  0032C2                     _UART1_SetTxInterruptHandler:
  6212                           	callstack 20
  6213  0032C2                     
  6214                           ;mcc_generated_files/uart1.c: 334:     UART1_TxInterruptHandler = InterruptHandler;
  6215  0032C2  C020  F0F5         	movff	UART1_SetTxInterruptHandler@InterruptHandler,_UART1_TxInterruptHandler
  6216  0032C6  C021  F0F6         	movff	UART1_SetTxInterruptHandler@InterruptHandler+1,_UART1_TxInterruptHandler+1
  6217  0032CA  0012               	return		;funcret
  6218  0032CC                     __end_of_UART1_SetTxInterruptHandler:
  6219                           	callstack 0
  6220                           
  6221 ;; *************** function _UART1_SetRxInterruptHandler *****************
  6222 ;; Defined at:
  6223 ;;		line 329 in file "mcc_generated_files/uart1.c"
  6224 ;; Parameters:    Size  Location     Type
  6225 ;;  InterruptHan    2   31[COMRAM] PTR FTN()void 
  6226 ;;		 -> UART1_Receive_ISR(1), 
  6227 ;; Auto vars:     Size  Location     Type
  6228 ;;		None
  6229 ;; Return value:  Size  Location     Type
  6230 ;;                  1    wreg      void 
  6231 ;; Registers used:
  6232 ;;		wreg, status,2, status,0
  6233 ;; Tracked objects:
  6234 ;;		On entry : 0/0
  6235 ;;		On exit  : 0/0
  6236 ;;		Unchanged: 0/0
  6237 ;; Data sizes:     COMRAM   BANK0   BANK1   BANK2   BANK3   BANK4   BANK5   BANK6   BANK7   BANK8   BANK9  BANK10  BANK1
      +1  BANK12  BANK13  BANK14  BANK15
  6238 ;;      Params:         2       0       0       0       0       0       0       0       0       0       0       0       
      +0       0       0       0       0
  6239 ;;      Locals:         0       0       0       0       0       0       0       0       0       0       0       0       
      +0       0       0       0       0
  6240 ;;      Temps:          0       0       0       0       0       0       0       0       0       0       0       0       
      +0       0       0       0       0
  6241 ;;      Totals:         2       0       0       0       0       0       0       0       0       0       0       0       
      +0       0       0       0       0
  6242 ;;Total ram usage:        2 bytes
  6243 ;; Hardware stack levels used: 1
  6244 ;; Hardware stack levels required when called: 8
  6245 ;; This function calls:
  6246 ;;		Nothing
  6247 ;; This function is called by:
  6248 ;;		_UART1_Initialize
  6249 ;; This function uses a non-reentrant model
  6250 ;;
  6251                           
  6252                           	psect	text31
  6253  0032CC                     __ptext31:
  6254                           	callstack 0
  6255  0032CC                     _UART1_SetRxInterruptHandler:
  6256                           	callstack 20
  6257  0032CC                     
  6258                           ;mcc_generated_files/uart1.c: 330:     UART1_RxInterruptHandler = InterruptHandler;
  6259  0032CC  C020  F03D         	movff	UART1_SetRxInterruptHandler@InterruptHandler,_UART1_RxInterruptHandler
  6260  0032D0  C021  F03E         	movff	UART1_SetRxInterruptHandler@InterruptHandler+1,_UART1_RxInterruptHandler+1
  6261  0032D4  0012               	return		;funcret
  6262  0032D6                     __end_of_UART1_SetRxInterruptHandler:
  6263                           	callstack 0
  6264                           
  6265 ;; *************** function _UART1_SetOverrunErrorHandler *****************
  6266 ;; Defined at:
  6267 ;;		line 319 in file "mcc_generated_files/uart1.c"
  6268 ;; Parameters:    Size  Location     Type
  6269 ;;  interruptHan    2   31[COMRAM] PTR FTN()void 
  6270 ;;		 -> UART1_DefaultOverrunErrorHandler(1), 
  6271 ;; Auto vars:     Size  Location     Type
  6272 ;;		None
  6273 ;; Return value:  Size  Location     Type
  6274 ;;                  1    wreg      void 
  6275 ;; Registers used:
  6276 ;;		wreg, status,2, status,0
  6277 ;; Tracked objects:
  6278 ;;		On entry : 0/0
  6279 ;;		On exit  : 0/0
  6280 ;;		Unchanged: 0/0
  6281 ;; Data sizes:     COMRAM   BANK0   BANK1   BANK2   BANK3   BANK4   BANK5   BANK6   BANK7   BANK8   BANK9  BANK10  BANK1
      +1  BANK12  BANK13  BANK14  BANK15
  6282 ;;      Params:         2       0       0       0       0       0       0       0       0       0       0       0       
      +0       0       0       0       0
  6283 ;;      Locals:         0       0       0       0       0       0       0       0       0       0       0       0       
      +0       0       0       0       0
  6284 ;;      Temps:          0       0       0       0       0       0       0       0       0       0       0       0       
      +0       0       0       0       0
  6285 ;;      Totals:         2       0       0       0       0       0       0       0       0       0       0       0       
      +0       0       0       0       0
  6286 ;;Total ram usage:        2 bytes
  6287 ;; Hardware stack levels used: 1
  6288 ;; Hardware stack levels required when called: 8
  6289 ;; This function calls:
  6290 ;;		Nothing
  6291 ;; This function is called by:
  6292 ;;		_UART1_Initialize
  6293 ;; This function uses a non-reentrant model
  6294 ;;
  6295                           
  6296                           	psect	text32
  6297  0032D6                     __ptext32:
  6298                           	callstack 0
  6299  0032D6                     _UART1_SetOverrunErrorHandler:
  6300                           	callstack 20
  6301  0032D6                     
  6302                           ;mcc_generated_files/uart1.c: 320:     UART1_OverrunErrorHandler = interruptHandler;
  6303  0032D6  C020  F0F1         	movff	UART1_SetOverrunErrorHandler@interruptHandler,_UART1_OverrunErrorHandler
  6304  0032DA  C021  F0F2         	movff	UART1_SetOverrunErrorHandler@interruptHandler+1,_UART1_OverrunErrorHandler+1
  6305  0032DE  0012               	return		;funcret
  6306  0032E0                     __end_of_UART1_SetOverrunErrorHandler:
  6307                           	callstack 0
  6308                           
  6309 ;; *************** function _UART1_SetFramingErrorHandler *****************
  6310 ;; Defined at:
  6311 ;;		line 315 in file "mcc_generated_files/uart1.c"
  6312 ;; Parameters:    Size  Location     Type
  6313 ;;  interruptHan    2   31[COMRAM] PTR FTN()void 
  6314 ;;		 -> UART1_DefaultFramingErrorHandler(1), 
  6315 ;; Auto vars:     Size  Location     Type
  6316 ;;		None
  6317 ;; Return value:  Size  Location     Type
  6318 ;;                  1    wreg      void 
  6319 ;; Registers used:
  6320 ;;		wreg, status,2, status,0
  6321 ;; Tracked objects:
  6322 ;;		On entry : 0/0
  6323 ;;		On exit  : 0/0
  6324 ;;		Unchanged: 0/0
  6325 ;; Data sizes:     COMRAM   BANK0   BANK1   BANK2   BANK3   BANK4   BANK5   BANK6   BANK7   BANK8   BANK9  BANK10  BANK1
      +1  BANK12  BANK13  BANK14  BANK15
  6326 ;;      Params:         2       0       0       0       0       0       0       0       0       0       0       0       
      +0       0       0       0       0
  6327 ;;      Locals:         0       0       0       0       0       0       0       0       0       0       0       0       
      +0       0       0       0       0
  6328 ;;      Temps:          0       0       0       0       0       0       0       0       0       0       0       0       
      +0       0       0       0       0
  6329 ;;      Totals:         2       0       0       0       0       0       0       0       0       0       0       0       
      +0       0       0       0       0
  6330 ;;Total ram usage:        2 bytes
  6331 ;; Hardware stack levels used: 1
  6332 ;; Hardware stack levels required when called: 8
  6333 ;; This function calls:
  6334 ;;		Nothing
  6335 ;; This function is called by:
  6336 ;;		_UART1_Initialize
  6337 ;; This function uses a non-reentrant model
  6338 ;;
  6339                           
  6340                           	psect	text33
  6341  0032E0                     __ptext33:
  6342                           	callstack 0
  6343  0032E0                     _UART1_SetFramingErrorHandler:
  6344                           	callstack 20
  6345  0032E0                     
  6346                           ;mcc_generated_files/uart1.c: 316:     UART1_FramingErrorHandler = interruptHandler;
  6347  0032E0  C020  F0F3         	movff	UART1_SetFramingErrorHandler@interruptHandler,_UART1_FramingErrorHandler
  6348  0032E4  C021  F0F4         	movff	UART1_SetFramingErrorHandler@interruptHandler+1,_UART1_FramingErrorHandler+1
  6349  0032E8  0012               	return		;funcret
  6350  0032EA                     __end_of_UART1_SetFramingErrorHandler:
  6351                           	callstack 0
  6352                           
  6353 ;; *************** function _UART1_SetErrorHandler *****************
  6354 ;; Defined at:
  6355 ;;		line 323 in file "mcc_generated_files/uart1.c"
  6356 ;; Parameters:    Size  Location     Type
  6357 ;;  interruptHan    2   31[COMRAM] PTR FTN()void 
  6358 ;;		 -> UART1_DefaultErrorHandler(1), 
  6359 ;; Auto vars:     Size  Location     Type
  6360 ;;		None
  6361 ;; Return value:  Size  Location     Type
  6362 ;;                  1    wreg      void 
  6363 ;; Registers used:
  6364 ;;		wreg, status,2, status,0
  6365 ;; Tracked objects:
  6366 ;;		On entry : 0/0
  6367 ;;		On exit  : 0/0
  6368 ;;		Unchanged: 0/0
  6369 ;; Data sizes:     COMRAM   BANK0   BANK1   BANK2   BANK3   BANK4   BANK5   BANK6   BANK7   BANK8   BANK9  BANK10  BANK1
      +1  BANK12  BANK13  BANK14  BANK15
  6370 ;;      Params:         2       0       0       0       0       0       0       0       0       0       0       0       
      +0       0       0       0       0
  6371 ;;      Locals:         0       0       0       0       0       0       0       0       0       0       0       0       
      +0       0       0       0       0
  6372 ;;      Temps:          0       0       0       0       0       0       0       0       0       0       0       0       
      +0       0       0       0       0
  6373 ;;      Totals:         2       0       0       0       0       0       0       0       0       0       0       0       
      +0       0       0       0       0
  6374 ;;Total ram usage:        2 bytes
  6375 ;; Hardware stack levels used: 1
  6376 ;; Hardware stack levels required when called: 8
  6377 ;; This function calls:
  6378 ;;		Nothing
  6379 ;; This function is called by:
  6380 ;;		_UART1_Initialize
  6381 ;; This function uses a non-reentrant model
  6382 ;;
  6383                           
  6384                           	psect	text34
  6385  0032EA                     __ptext34:
  6386                           	callstack 0
  6387  0032EA                     _UART1_SetErrorHandler:
  6388                           	callstack 20
  6389  0032EA                     
  6390                           ;mcc_generated_files/uart1.c: 324:     UART1_ErrorHandler = interruptHandler;
  6391  0032EA  C020  F0EF         	movff	UART1_SetErrorHandler@interruptHandler,_UART1_ErrorHandler
  6392  0032EE  C021  F0F0         	movff	UART1_SetErrorHandler@interruptHandler+1,_UART1_ErrorHandler+1
  6393  0032F2  0012               	return		;funcret
  6394  0032F4                     __end_of_UART1_SetErrorHandler:
  6395                           	callstack 0
  6396                           
  6397 ;; *************** function _TMR5_Initialize *****************
  6398 ;; Defined at:
  6399 ;;		line 67 in file "mcc_generated_files/tmr5.c"
  6400 ;; Parameters:    Size  Location     Type
  6401 ;;		None
  6402 ;; Auto vars:     Size  Location     Type
  6403 ;;		None
  6404 ;; Return value:  Size  Location     Type
  6405 ;;                  1    wreg      void 
  6406 ;; Registers used:
  6407 ;;		wreg, status,2, status,0, cstack
  6408 ;; Tracked objects:
  6409 ;;		On entry : 0/0
  6410 ;;		On exit  : 0/0
  6411 ;;		Unchanged: 0/0
  6412 ;; Data sizes:     COMRAM   BANK0   BANK1   BANK2   BANK3   BANK4   BANK5   BANK6   BANK7   BANK8   BANK9  BANK10  BANK1
      +1  BANK12  BANK13  BANK14  BANK15
  6413 ;;      Params:         0       0       0       0       0       0       0       0       0       0       0       0       
      +0       0       0       0       0
  6414 ;;      Locals:         0       0       0       0       0       0       0       0       0       0       0       0       
      +0       0       0       0       0
  6415 ;;      Temps:          0       2       0       0       0       0       0       0       0       0       0       0       
      +0       0       0       0       0
  6416 ;;      Totals:         0       2       0       0       0       0       0       0       0       0       0       0       
      +0       0       0       0       0
  6417 ;;Total ram usage:        2 bytes
  6418 ;; Hardware stack levels used: 1
  6419 ;; Hardware stack levels required when called: 9
  6420 ;; This function calls:
  6421 ;;		_TMR5_SetGateInterruptHandler
  6422 ;; This function is called by:
  6423 ;;		_SYSTEM_Initialize
  6424 ;; This function uses a non-reentrant model
  6425 ;;
  6426                           
  6427                           	psect	text35
  6428  002C5A                     __ptext35:
  6429                           	callstack 0
  6430  002C5A                     _TMR5_Initialize:
  6431                           	callstack 20
  6432  002C5A                     
  6433                           ;mcc_generated_files/tmr5.c: 72:     T5GCON = 0xC0;
  6434  002C5A  0EC0               	movlw	192
  6435  002C5C  6E9B               	movwf	155,c	;volatile
  6436                           
  6437                           ;mcc_generated_files/tmr5.c: 75:     T5GATE = 0x00;
  6438  002C5E  0E00               	movlw	0
  6439  002C60  6E9C               	movwf	156,c	;volatile
  6440                           
  6441                           ;mcc_generated_files/tmr5.c: 78:     T5CLK = 0x05;
  6442  002C62  0E05               	movlw	5
  6443  002C64  6E9D               	movwf	157,c	;volatile
  6444                           
  6445                           ;mcc_generated_files/tmr5.c: 81:     TMR5H = 0x00;
  6446  002C66  0E00               	movlw	0
  6447  002C68  6E99               	movwf	153,c	;volatile
  6448                           
  6449                           ;mcc_generated_files/tmr5.c: 84:     TMR5L = 0x00;
  6450  002C6A  0E00               	movlw	0
  6451  002C6C  6E98               	movwf	152,c	;volatile
  6452  002C6E                     
  6453                           ;mcc_generated_files/tmr5.c: 87:     PIR8bits.TMR5IF = 0;
  6454  002C6E  0139               	movlb	57	; () banked
  6455  002C70  9DA8               	bcf	168,6,b	;volatile
  6456  002C72                     
  6457                           ; BSR set to: 57
  6458                           ;mcc_generated_files/tmr5.c: 90:     timer5ReloadVal=(uint16_t)((TMR5H << 8) | TMR5L);
  6459  002C72  5098               	movf	152,w,c	;volatile
  6460  002C74  006F FE64  F060    	movff	16281,??_TMR5_Initialize	;volatile
  6461  002C7A  0100               	movlb	0	; () banked
  6462  002C7C  6B61               	clrf	(??_TMR5_Initialize+1)& (0+255),b
  6463  002C7E  C060  F061         	movff	??_TMR5_Initialize,??_TMR5_Initialize+1
  6464  002C82  6B60               	clrf	??_TMR5_Initialize& (0+255),b
  6465  002C84  1160               	iorwf	??_TMR5_Initialize& (0+255),w,b
  6466  002C86  6FE9               	movwf	_timer5ReloadVal& (0+255),b	;volatile
  6467  002C88  5161               	movf	(??_TMR5_Initialize+1)& (0+255),w,b
  6468  002C8A  6FEA               	movwf	(_timer5ReloadVal+1)& (0+255),b	;volatile
  6469  002C8C                     
  6470                           ; BSR set to: 0
  6471                           ;mcc_generated_files/tmr5.c: 93:     PIR8bits.TMR5GIF = 0;
  6472  002C8C  0139               	movlb	57	; () banked
  6473  002C8E  9FA8               	bcf	168,7,b	;volatile
  6474  002C90                     
  6475                           ; BSR set to: 57
  6476                           ;mcc_generated_files/tmr5.c: 96:     PIE8bits.TMR5GIE = 1;
  6477  002C90  8F98               	bsf	152,7,b	;volatile
  6478  002C92                     
  6479                           ; BSR set to: 57
  6480                           ;mcc_generated_files/tmr5.c: 99:     TMR5_SetGateInterruptHandler(TMR5_DefaultGateInterr
      +                          uptHandler);
  6481  002C92  0E00               	movlw	low _TMR5_DefaultGateInterruptHandler
  6482  002C94  6E20               	movwf	TMR5_SetGateInterruptHandler@InterruptHandler^0,c
  6483  002C96  0E32               	movlw	high _TMR5_DefaultGateInterruptHandler
  6484  002C98  6E21               	movwf	(TMR5_SetGateInterruptHandler@InterruptHandler+1)^0,c
  6485  002C9A  EC7A  F019         	call	_TMR5_SetGateInterruptHandler	;wreg free
  6486  002C9E                     
  6487                           ;mcc_generated_files/tmr5.c: 102:     T5CON = 0x03;
  6488  002C9E  0E03               	movlw	3
  6489  002CA0  6E9A               	movwf	154,c	;volatile
  6490  002CA2  0012               	return		;funcret
  6491  002CA4                     __end_of_TMR5_Initialize:
  6492                           	callstack 0
  6493                           
  6494 ;; *************** function _TMR5_SetGateInterruptHandler *****************
  6495 ;; Defined at:
  6496 ;;		line 186 in file "mcc_generated_files/tmr5.c"
  6497 ;; Parameters:    Size  Location     Type
  6498 ;;  InterruptHan    2   31[COMRAM] PTR FTN()void 
  6499 ;;		 -> TMR5_DefaultGateInterruptHandler(1), 
  6500 ;; Auto vars:     Size  Location     Type
  6501 ;;		None
  6502 ;; Return value:  Size  Location     Type
  6503 ;;                  1    wreg      void 
  6504 ;; Registers used:
  6505 ;;		wreg, status,2, status,0
  6506 ;; Tracked objects:
  6507 ;;		On entry : 0/0
  6508 ;;		On exit  : 0/0
  6509 ;;		Unchanged: 0/0
  6510 ;; Data sizes:     COMRAM   BANK0   BANK1   BANK2   BANK3   BANK4   BANK5   BANK6   BANK7   BANK8   BANK9  BANK10  BANK1
      +1  BANK12  BANK13  BANK14  BANK15
  6511 ;;      Params:         2       0       0       0       0       0       0       0       0       0       0       0       
      +0       0       0       0       0
  6512 ;;      Locals:         0       0       0       0       0       0       0       0       0       0       0       0       
      +0       0       0       0       0
  6513 ;;      Temps:          0       0       0       0       0       0       0       0       0       0       0       0       
      +0       0       0       0       0
  6514 ;;      Totals:         2       0       0       0       0       0       0       0       0       0       0       0       
      +0       0       0       0       0
  6515 ;;Total ram usage:        2 bytes
  6516 ;; Hardware stack levels used: 1
  6517 ;; Hardware stack levels required when called: 8
  6518 ;; This function calls:
  6519 ;;		Nothing
  6520 ;; This function is called by:
  6521 ;;		_TMR5_Initialize
  6522 ;; This function uses a non-reentrant model
  6523 ;;
  6524                           
  6525                           	psect	text36
  6526  0032F4                     __ptext36:
  6527                           	callstack 0
  6528  0032F4                     _TMR5_SetGateInterruptHandler:
  6529                           	callstack 20
  6530  0032F4                     
  6531                           ;mcc_generated_files/tmr5.c: 187:     TMR5_GateInterruptHandler = InterruptHandler;
  6532  0032F4  C020  F0E7         	movff	TMR5_SetGateInterruptHandler@InterruptHandler,_TMR5_GateInterruptHandler
  6533  0032F8  C021  F0E8         	movff	TMR5_SetGateInterruptHandler@InterruptHandler+1,_TMR5_GateInterruptHandler+1
  6534  0032FC  0012               	return		;funcret
  6535  0032FE                     __end_of_TMR5_SetGateInterruptHandler:
  6536                           	callstack 0
  6537                           
  6538 ;; *************** function _TMR4_Initialize *****************
  6539 ;; Defined at:
  6540 ;;		line 65 in file "mcc_generated_files/tmr4.c"
  6541 ;; Parameters:    Size  Location     Type
  6542 ;;		None
  6543 ;; Auto vars:     Size  Location     Type
  6544 ;;		None
  6545 ;; Return value:  Size  Location     Type
  6546 ;;                  1    wreg      void 
  6547 ;; Registers used:
  6548 ;;		wreg, status,2, status,0, cstack
  6549 ;; Tracked objects:
  6550 ;;		On entry : 0/0
  6551 ;;		On exit  : 0/0
  6552 ;;		Unchanged: 0/0
  6553 ;; Data sizes:     COMRAM   BANK0   BANK1   BANK2   BANK3   BANK4   BANK5   BANK6   BANK7   BANK8   BANK9  BANK10  BANK1
      +1  BANK12  BANK13  BANK14  BANK15
  6554 ;;      Params:         0       0       0       0       0       0       0       0       0       0       0       0       
      +0       0       0       0       0
  6555 ;;      Locals:         0       0       0       0       0       0       0       0       0       0       0       0       
      +0       0       0       0       0
  6556 ;;      Temps:          0       0       0       0       0       0       0       0       0       0       0       0       
      +0       0       0       0       0
  6557 ;;      Totals:         0       0       0       0       0       0       0       0       0       0       0       0       
      +0       0       0       0       0
  6558 ;;Total ram usage:        0 bytes
  6559 ;; Hardware stack levels used: 1
  6560 ;; Hardware stack levels required when called: 9
  6561 ;; This function calls:
  6562 ;;		_TMR4_SetInterruptHandler
  6563 ;; This function is called by:
  6564 ;;		_SYSTEM_Initialize
  6565 ;; This function uses a non-reentrant model
  6566 ;;
  6567                           
  6568                           	psect	text37
  6569  00307E                     __ptext37:
  6570                           	callstack 0
  6571  00307E                     _TMR4_Initialize:
  6572                           	callstack 20
  6573  00307E                     
  6574                           ;mcc_generated_files/tmr4.c: 70:     T4CLKCON = 0x01;
  6575  00307E  0E01               	movlw	1
  6576  003080  6EA2               	movwf	162,c	;volatile
  6577                           
  6578                           ;mcc_generated_files/tmr4.c: 73:     T4HLT = 0x00;
  6579  003082  0E00               	movlw	0
  6580  003084  6EA1               	movwf	161,c	;volatile
  6581                           
  6582                           ;mcc_generated_files/tmr4.c: 76:     T4RST = 0x00;
  6583  003086  0E00               	movlw	0
  6584  003088  6EA3               	movwf	163,c	;volatile
  6585                           
  6586                           ;mcc_generated_files/tmr4.c: 79:     T4PR = 0xF9;
  6587  00308A  0EF9               	movlw	249
  6588  00308C  6E9F               	movwf	159,c	;volatile
  6589                           
  6590                           ;mcc_generated_files/tmr4.c: 82:     T4TMR = 0x00;
  6591  00308E  0E00               	movlw	0
  6592  003090  6E9E               	movwf	158,c	;volatile
  6593  003092                     
  6594                           ;mcc_generated_files/tmr4.c: 85:     PIR7bits.TMR4IF = 0;
  6595  003092  0139               	movlb	57	; () banked
  6596  003094  91A7               	bcf	167,0,b	;volatile
  6597  003096                     
  6598                           ; BSR set to: 57
  6599                           ;mcc_generated_files/tmr4.c: 88:     PIE7bits.TMR4IE = 1;
  6600  003096  8197               	bsf	151,0,b	;volatile
  6601  003098                     
  6602                           ; BSR set to: 57
  6603                           ;mcc_generated_files/tmr4.c: 91:     TMR4_SetInterruptHandler(TMR4_DefaultInterruptHandl
      +                          er);
  6604  003098  0E34               	movlw	low _TMR4_DefaultInterruptHandler
  6605  00309A  6E20               	movwf	TMR4_SetInterruptHandler@InterruptHandler^0,c
  6606  00309C  0E33               	movlw	high _TMR4_DefaultInterruptHandler
  6607  00309E  6E21               	movwf	(TMR4_SetInterruptHandler@InterruptHandler+1)^0,c
  6608  0030A0  EC7F  F019         	call	_TMR4_SetInterruptHandler	;wreg free
  6609  0030A4                     
  6610                           ;mcc_generated_files/tmr4.c: 94:     T4CON = 0xE0;
  6611  0030A4  0EE0               	movlw	224
  6612  0030A6  6EA0               	movwf	160,c	;volatile
  6613  0030A8  0012               	return		;funcret
  6614  0030AA                     __end_of_TMR4_Initialize:
  6615                           	callstack 0
  6616                           
  6617 ;; *************** function _TMR4_SetInterruptHandler *****************
  6618 ;; Defined at:
  6619 ;;		line 194 in file "mcc_generated_files/tmr4.c"
  6620 ;; Parameters:    Size  Location     Type
  6621 ;;  InterruptHan    2   31[COMRAM] PTR FTN()void 
  6622 ;;		 -> TMR4_10msISR(1), TMR4_DefaultInterruptHandler(1), 
  6623 ;; Auto vars:     Size  Location     Type
  6624 ;;		None
  6625 ;; Return value:  Size  Location     Type
  6626 ;;                  1    wreg      void 
  6627 ;; Registers used:
  6628 ;;		wreg, status,2, status,0
  6629 ;; Tracked objects:
  6630 ;;		On entry : 0/0
  6631 ;;		On exit  : 0/0
  6632 ;;		Unchanged: 0/0
  6633 ;; Data sizes:     COMRAM   BANK0   BANK1   BANK2   BANK3   BANK4   BANK5   BANK6   BANK7   BANK8   BANK9  BANK10  BANK1
      +1  BANK12  BANK13  BANK14  BANK15
  6634 ;;      Params:         2       0       0       0       0       0       0       0       0       0       0       0       
      +0       0       0       0       0
  6635 ;;      Locals:         0       0       0       0       0       0       0       0       0       0       0       0       
      +0       0       0       0       0
  6636 ;;      Temps:          0       0       0       0       0       0       0       0       0       0       0       0       
      +0       0       0       0       0
  6637 ;;      Totals:         2       0       0       0       0       0       0       0       0       0       0       0       
      +0       0       0       0       0
  6638 ;;Total ram usage:        2 bytes
  6639 ;; Hardware stack levels used: 1
  6640 ;; Hardware stack levels required when called: 8
  6641 ;; This function calls:
  6642 ;;		Nothing
  6643 ;; This function is called by:
  6644 ;;		_TMR4_Initialize
  6645 ;;		_main
  6646 ;; This function uses a non-reentrant model
  6647 ;;
  6648                           
  6649                           	psect	text38
  6650  0032FE                     __ptext38:
  6651                           	callstack 0
  6652  0032FE                     _TMR4_SetInterruptHandler:
  6653                           	callstack 22
  6654  0032FE                     
  6655                           ;mcc_generated_files/tmr4.c: 195:     TMR4_InterruptHandler = InterruptHandler;
  6656  0032FE  C020  F0E3         	movff	TMR4_SetInterruptHandler@InterruptHandler,_TMR4_InterruptHandler
  6657  003302  C021  F0E4         	movff	TMR4_SetInterruptHandler@InterruptHandler+1,_TMR4_InterruptHandler+1
  6658  003306  0012               	return		;funcret
  6659  003308                     __end_of_TMR4_SetInterruptHandler:
  6660                           	callstack 0
  6661                           
  6662 ;; *************** function _TMR3_Initialize *****************
  6663 ;; Defined at:
  6664 ;;		line 63 in file "mcc_generated_files/tmr3.c"
  6665 ;; Parameters:    Size  Location     Type
  6666 ;;		None
  6667 ;; Auto vars:     Size  Location     Type
  6668 ;;		None
  6669 ;; Return value:  Size  Location     Type
  6670 ;;                  1    wreg      void 
  6671 ;; Registers used:
  6672 ;;		wreg, status,2, status,0
  6673 ;; Tracked objects:
  6674 ;;		On entry : 0/0
  6675 ;;		On exit  : 0/0
  6676 ;;		Unchanged: 0/0
  6677 ;; Data sizes:     COMRAM   BANK0   BANK1   BANK2   BANK3   BANK4   BANK5   BANK6   BANK7   BANK8   BANK9  BANK10  BANK1
      +1  BANK12  BANK13  BANK14  BANK15
  6678 ;;      Params:         0       0       0       0       0       0       0       0       0       0       0       0       
      +0       0       0       0       0
  6679 ;;      Locals:         0       0       0       0       0       0       0       0       0       0       0       0       
      +0       0       0       0       0
  6680 ;;      Temps:          2       0       0       0       0       0       0       0       0       0       0       0       
      +0       0       0       0       0
  6681 ;;      Totals:         2       0       0       0       0       0       0       0       0       0       0       0       
      +0       0       0       0       0
  6682 ;;Total ram usage:        2 bytes
  6683 ;; Hardware stack levels used: 1
  6684 ;; Hardware stack levels required when called: 8
  6685 ;; This function calls:
  6686 ;;		Nothing
  6687 ;; This function is called by:
  6688 ;;		_SYSTEM_Initialize
  6689 ;; This function uses a non-reentrant model
  6690 ;;
  6691                           
  6692                           	psect	text39
  6693  002EC4                     __ptext39:
  6694                           	callstack 0
  6695  002EC4                     _TMR3_Initialize:
  6696                           	callstack 21
  6697  002EC4                     
  6698                           ;mcc_generated_files/tmr3.c: 68:     T3GCON = 0x00;
  6699  002EC4  0E00               	movlw	0
  6700  002EC6  6EA7               	movwf	167,c	;volatile
  6701                           
  6702                           ;mcc_generated_files/tmr3.c: 71:     T3GATE = 0x00;
  6703  002EC8  0E00               	movlw	0
  6704  002ECA  6EA8               	movwf	168,c	;volatile
  6705                           
  6706                           ;mcc_generated_files/tmr3.c: 74:     T3CLK = 0x05;
  6707  002ECC  0E05               	movlw	5
  6708  002ECE  6EA9               	movwf	169,c	;volatile
  6709                           
  6710                           ;mcc_generated_files/tmr3.c: 77:     TMR3H = 0x00;
  6711  002ED0  0E00               	movlw	0
  6712  002ED2  6EA5               	movwf	165,c	;volatile
  6713                           
  6714                           ;mcc_generated_files/tmr3.c: 80:     TMR3L = 0x00;
  6715  002ED4  0E00               	movlw	0
  6716  002ED6  6EA4               	movwf	164,c	;volatile
  6717  002ED8                     
  6718                           ;mcc_generated_files/tmr3.c: 83:     PIR6bits.TMR3IF = 0;
  6719  002ED8  0139               	movlb	57	; () banked
  6720  002EDA  9DA6               	bcf	166,6,b	;volatile
  6721  002EDC                     
  6722                           ; BSR set to: 57
  6723                           ;mcc_generated_files/tmr3.c: 86:     timer3ReloadVal=(uint16_t)((TMR3H << 8) | TMR3L);
  6724  002EDC  50A4               	movf	164,w,c	;volatile
  6725  002EDE  006F FE94  F020    	movff	16293,??_TMR3_Initialize	;volatile
  6726  002EE4  6A21               	clrf	(??_TMR3_Initialize+1)^0,c
  6727  002EE6  C020  F021         	movff	??_TMR3_Initialize,??_TMR3_Initialize+1
  6728  002EEA  6A20               	clrf	??_TMR3_Initialize^0,c
  6729  002EEC  1020               	iorwf	??_TMR3_Initialize^0,w,c
  6730  002EEE  0100               	movlb	0	; () banked
  6731  002EF0  6FE5               	movwf	_timer3ReloadVal& (0+255),b	;volatile
  6732  002EF2  5021               	movf	(??_TMR3_Initialize+1)^0,w,c
  6733  002EF4  6FE6               	movwf	(_timer3ReloadVal+1)& (0+255),b	;volatile
  6734  002EF6                     
  6735                           ; BSR set to: 0
  6736                           ;mcc_generated_files/tmr3.c: 89:     T3CON = 0x01;
  6737  002EF6  0E01               	movlw	1
  6738  002EF8  6EA6               	movwf	166,c	;volatile
  6739  002EFA                     
  6740                           ; BSR set to: 0
  6741  002EFA  0012               	return		;funcret
  6742  002EFC                     __end_of_TMR3_Initialize:
  6743                           	callstack 0
  6744                           
  6745 ;; *************** function _TMR2_Initialize *****************
  6746 ;; Defined at:
  6747 ;;		line 62 in file "mcc_generated_files/tmr2.c"
  6748 ;; Parameters:    Size  Location     Type
  6749 ;;		None
  6750 ;; Auto vars:     Size  Location     Type
  6751 ;;		None
  6752 ;; Return value:  Size  Location     Type
  6753 ;;                  1    wreg      void 
  6754 ;; Registers used:
  6755 ;;		wreg, status,2
  6756 ;; Tracked objects:
  6757 ;;		On entry : 0/0
  6758 ;;		On exit  : 0/0
  6759 ;;		Unchanged: 0/0
  6760 ;; Data sizes:     COMRAM   BANK0   BANK1   BANK2   BANK3   BANK4   BANK5   BANK6   BANK7   BANK8   BANK9  BANK10  BANK1
      +1  BANK12  BANK13  BANK14  BANK15
  6761 ;;      Params:         0       0       0       0       0       0       0       0       0       0       0       0       
      +0       0       0       0       0
  6762 ;;      Locals:         0       0       0       0       0       0       0       0       0       0       0       0       
      +0       0       0       0       0
  6763 ;;      Temps:          0       0       0       0       0       0       0       0       0       0       0       0       
      +0       0       0       0       0
  6764 ;;      Totals:         0       0       0       0       0       0       0       0       0       0       0       0       
      +0       0       0       0       0
  6765 ;;Total ram usage:        0 bytes
  6766 ;; Hardware stack levels used: 1
  6767 ;; Hardware stack levels required when called: 8
  6768 ;; This function calls:
  6769 ;;		Nothing
  6770 ;; This function is called by:
  6771 ;;		_SYSTEM_Initialize
  6772 ;; This function uses a non-reentrant model
  6773 ;;
  6774                           
  6775                           	psect	text40
  6776  0031E4                     __ptext40:
  6777                           	callstack 0
  6778  0031E4                     _TMR2_Initialize:
  6779                           	callstack 21
  6780  0031E4                     
  6781                           ;mcc_generated_files/tmr2.c: 67:     T2CLKCON = 0x05;
  6782  0031E4  0E05               	movlw	5
  6783  0031E6  6EAE               	movwf	174,c	;volatile
  6784                           
  6785                           ;mcc_generated_files/tmr2.c: 70:     T2HLT = 0x00;
  6786  0031E8  0E00               	movlw	0
  6787  0031EA  6EAD               	movwf	173,c	;volatile
  6788                           
  6789                           ;mcc_generated_files/tmr2.c: 73:     T2RST = 0x00;
  6790  0031EC  0E00               	movlw	0
  6791  0031EE  6EAF               	movwf	175,c	;volatile
  6792  0031F0                     
  6793                           ;mcc_generated_files/tmr2.c: 76:     T2PR = 0xFF;
  6794  0031F0  68AB               	setf	171,c	;volatile
  6795                           
  6796                           ;mcc_generated_files/tmr2.c: 79:     T2TMR = 0x00;
  6797  0031F2  0E00               	movlw	0
  6798  0031F4  6EAA               	movwf	170,c	;volatile
  6799  0031F6                     
  6800                           ;mcc_generated_files/tmr2.c: 82:     PIR4bits.TMR2IF = 0;
  6801  0031F6  0139               	movlb	57	; () banked
  6802  0031F8  95A4               	bcf	164,2,b	;volatile
  6803                           
  6804                           ;mcc_generated_files/tmr2.c: 85:     T2CON = 0xB0;
  6805  0031FA  0EB0               	movlw	176
  6806  0031FC  6EAC               	movwf	172,c	;volatile
  6807  0031FE                     
  6808                           ; BSR set to: 57
  6809  0031FE  0012               	return		;funcret
  6810  003200                     __end_of_TMR2_Initialize:
  6811                           	callstack 0
  6812                           
  6813 ;; *************** function _SMT1_Initialize *****************
  6814 ;; Defined at:
  6815 ;;		line 60 in file "mcc_generated_files/smt1.c"
  6816 ;; Parameters:    Size  Location     Type
  6817 ;;		None
  6818 ;; Auto vars:     Size  Location     Type
  6819 ;;		None
  6820 ;; Return value:  Size  Location     Type
  6821 ;;                  1    wreg      void 
  6822 ;; Registers used:
  6823 ;;		wreg, status,2
  6824 ;; Tracked objects:
  6825 ;;		On entry : 0/0
  6826 ;;		On exit  : 0/0
  6827 ;;		Unchanged: 0/0
  6828 ;; Data sizes:     COMRAM   BANK0   BANK1   BANK2   BANK3   BANK4   BANK5   BANK6   BANK7   BANK8   BANK9  BANK10  BANK1
      +1  BANK12  BANK13  BANK14  BANK15
  6829 ;;      Params:         0       0       0       0       0       0       0       0       0       0       0       0       
      +0       0       0       0       0
  6830 ;;      Locals:         0       0       0       0       0       0       0       0       0       0       0       0       
      +0       0       0       0       0
  6831 ;;      Temps:          0       0       0       0       0       0       0       0       0       0       0       0       
      +0       0       0       0       0
  6832 ;;      Totals:         0       0       0       0       0       0       0       0       0       0       0       0       
      +0       0       0       0       0
  6833 ;;Total ram usage:        0 bytes
  6834 ;; Hardware stack levels used: 1
  6835 ;; Hardware stack levels required when called: 8
  6836 ;; This function calls:
  6837 ;;		Nothing
  6838 ;; This function is called by:
  6839 ;;		_SYSTEM_Initialize
  6840 ;; This function uses a non-reentrant model
  6841 ;;
  6842                           
  6843                           	psect	text41
  6844  002F68                     __ptext41:
  6845                           	callstack 0
  6846  002F68                     _SMT1_Initialize:
  6847                           	callstack 21
  6848  002F68                     
  6849                           ;mcc_generated_files/smt1.c: 63:     SMT1CON0 = 0x80;
  6850  002F68  0E80               	movlw	128
  6851  002F6A  013F               	movlb	63	; () banked
  6852  002F6C  6F1E               	movwf	30,b	;volatile
  6853                           
  6854                           ;mcc_generated_files/smt1.c: 66:     SMT1CON1 = 0x42;
  6855  002F6E  0E42               	movlw	66
  6856  002F70  6F1F               	movwf	31,b	;volatile
  6857                           
  6858                           ;mcc_generated_files/smt1.c: 69:     SMT1STAT = 0x00;
  6859  002F72  0E00               	movlw	0
  6860  002F74  6F20               	movwf	32,b	;volatile
  6861                           
  6862                           ;mcc_generated_files/smt1.c: 72:     SMT1CLK = 0x04;
  6863  002F76  0E04               	movlw	4
  6864  002F78  6F21               	movwf	33,b	;volatile
  6865                           
  6866                           ;mcc_generated_files/smt1.c: 75:     SMT1WIN = 0x00;
  6867  002F7A  0E00               	movlw	0
  6868  002F7C  6F23               	movwf	35,b	;volatile
  6869                           
  6870                           ;mcc_generated_files/smt1.c: 78:     SMT1SIG = 0x00;
  6871  002F7E  0E00               	movlw	0
  6872  002F80  6F22               	movwf	34,b	;volatile
  6873                           
  6874                           ;mcc_generated_files/smt1.c: 81:     SMT1PRU = 0x01;
  6875  002F82  0E01               	movlw	1
  6876  002F84  6F1D               	movwf	29,b	;volatile
  6877  002F86                     
  6878                           ; BSR set to: 63
  6879                           ;mcc_generated_files/smt1.c: 84:     SMT1PRH = 0xFF;
  6880  002F86  691C               	setf	28,b	;volatile
  6881  002F88                     
  6882                           ; BSR set to: 63
  6883                           ;mcc_generated_files/smt1.c: 87:     SMT1PRL = 0xFF;
  6884  002F88  691B               	setf	27,b	;volatile
  6885  002F8A                     
  6886                           ; BSR set to: 63
  6887                           ;mcc_generated_files/smt1.c: 90:     PIE1bits.SMT1IE = 1;
  6888  002F8A  0139               	movlb	57	; () banked
  6889  002F8C  8B91               	bsf	145,5,b	;volatile
  6890  002F8E                     
  6891                           ; BSR set to: 57
  6892                           ;mcc_generated_files/smt1.c: 93:     PIE1bits.SMT1PWAIE = 1;
  6893  002F8E  8F91               	bsf	145,7,b	;volatile
  6894  002F90                     
  6895                           ; BSR set to: 57
  6896                           ;mcc_generated_files/smt1.c: 96:     PIE1bits.SMT1PRAIE = 1;
  6897  002F90  8D91               	bsf	145,6,b	;volatile
  6898  002F92                     
  6899                           ; BSR set to: 57
  6900                           ;mcc_generated_files/smt1.c: 99:     SMT1CON1bits.SMT1GO = 1;
  6901  002F92  013F               	movlb	63	; () banked
  6902  002F94  8F1F               	bsf	31,7,b	;volatile
  6903  002F96                     
  6904                           ; BSR set to: 63
  6905  002F96  0012               	return		;funcret
  6906  002F98                     __end_of_SMT1_Initialize:
  6907                           	callstack 0
  6908                           
  6909 ;; *************** function _PWM8_Initialize *****************
  6910 ;; Defined at:
  6911 ;;		line 58 in file "mcc_generated_files/pwm8.c"
  6912 ;; Parameters:    Size  Location     Type
  6913 ;;		None
  6914 ;; Auto vars:     Size  Location     Type
  6915 ;;		None
  6916 ;; Return value:  Size  Location     Type
  6917 ;;                  1    wreg      void 
  6918 ;; Registers used:
  6919 ;;		wreg, status,2
  6920 ;; Tracked objects:
  6921 ;;		On entry : 0/0
  6922 ;;		On exit  : 0/0
  6923 ;;		Unchanged: 0/0
  6924 ;; Data sizes:     COMRAM   BANK0   BANK1   BANK2   BANK3   BANK4   BANK5   BANK6   BANK7   BANK8   BANK9  BANK10  BANK1
      +1  BANK12  BANK13  BANK14  BANK15
  6925 ;;      Params:         0       0       0       0       0       0       0       0       0       0       0       0       
      +0       0       0       0       0
  6926 ;;      Locals:         0       0       0       0       0       0       0       0       0       0       0       0       
      +0       0       0       0       0
  6927 ;;      Temps:          0       0       0       0       0       0       0       0       0       0       0       0       
      +0       0       0       0       0
  6928 ;;      Totals:         0       0       0       0       0       0       0       0       0       0       0       0       
      +0       0       0       0       0
  6929 ;;Total ram usage:        0 bytes
  6930 ;; Hardware stack levels used: 1
  6931 ;; Hardware stack levels required when called: 8
  6932 ;; This function calls:
  6933 ;;		Nothing
  6934 ;; This function is called by:
  6935 ;;		_SYSTEM_Initialize
  6936 ;; This function uses a non-reentrant model
  6937 ;;
  6938                           
  6939                           	psect	text42
  6940  00321C                     __ptext42:
  6941                           	callstack 0
  6942  00321C                     _PWM8_Initialize:
  6943                           	callstack 21
  6944  00321C                     
  6945                           ;mcc_generated_files/pwm8.c: 62:     PWM8CON = 0x80;
  6946  00321C  0E80               	movlw	128
  6947  00321E  6E62               	movwf	98,c	;volatile
  6948                           
  6949                           ;mcc_generated_files/pwm8.c: 65:     PWM8DCH = 0x00;
  6950  003220  0E00               	movlw	0
  6951  003222  6E61               	movwf	97,c	;volatile
  6952                           
  6953                           ;mcc_generated_files/pwm8.c: 68:     PWM8DCL = 0x00;
  6954  003224  0E00               	movlw	0
  6955  003226  6E60               	movwf	96,c	;volatile
  6956                           
  6957                           ;mcc_generated_files/pwm8.c: 71:     CCPTMRS1bits.P8TSEL = 2;
  6958  003228  013F               	movlb	63	; () banked
  6959  00322A  515F               	movf	95,w,b	;volatile
  6960  00322C  0B3F               	andlw	-193
  6961  00322E  0980               	iorlw	128
  6962  003230  6F5F               	movwf	95,b	;volatile
  6963  003232                     
  6964                           ; BSR set to: 63
  6965  003232  0012               	return		;funcret
  6966  003234                     __end_of_PWM8_Initialize:
  6967                           	callstack 0
  6968                           
  6969 ;; *************** function _PWM7_Initialize *****************
  6970 ;; Defined at:
  6971 ;;		line 58 in file "mcc_generated_files/pwm7.c"
  6972 ;; Parameters:    Size  Location     Type
  6973 ;;		None
  6974 ;; Auto vars:     Size  Location     Type
  6975 ;;		None
  6976 ;; Return value:  Size  Location     Type
  6977 ;;                  1    wreg      void 
  6978 ;; Registers used:
  6979 ;;		wreg, status,2
  6980 ;; Tracked objects:
  6981 ;;		On entry : 0/0
  6982 ;;		On exit  : 0/0
  6983 ;;		Unchanged: 0/0
  6984 ;; Data sizes:     COMRAM   BANK0   BANK1   BANK2   BANK3   BANK4   BANK5   BANK6   BANK7   BANK8   BANK9  BANK10  BANK1
      +1  BANK12  BANK13  BANK14  BANK15
  6985 ;;      Params:         0       0       0       0       0       0       0       0       0       0       0       0       
      +0       0       0       0       0
  6986 ;;      Locals:         0       0       0       0       0       0       0       0       0       0       0       0       
      +0       0       0       0       0
  6987 ;;      Temps:          0       0       0       0       0       0       0       0       0       0       0       0       
      +0       0       0       0       0
  6988 ;;      Totals:         0       0       0       0       0       0       0       0       0       0       0       0       
      +0       0       0       0       0
  6989 ;;Total ram usage:        0 bytes
  6990 ;; Hardware stack levels used: 1
  6991 ;; Hardware stack levels required when called: 8
  6992 ;; This function calls:
  6993 ;;		Nothing
  6994 ;; This function is called by:
  6995 ;;		_SYSTEM_Initialize
  6996 ;; This function uses a non-reentrant model
  6997 ;;
  6998                           
  6999                           	psect	text43
  7000  003234                     __ptext43:
  7001                           	callstack 0
  7002  003234                     _PWM7_Initialize:
  7003                           	callstack 21
  7004  003234                     
  7005                           ;mcc_generated_files/pwm7.c: 62:     PWM7CON = 0x80;
  7006  003234  0E80               	movlw	128
  7007  003236  6E66               	movwf	102,c	;volatile
  7008                           
  7009                           ;mcc_generated_files/pwm7.c: 65:     PWM7DCH = 0x00;
  7010  003238  0E00               	movlw	0
  7011  00323A  6E65               	movwf	101,c	;volatile
  7012                           
  7013                           ;mcc_generated_files/pwm7.c: 68:     PWM7DCL = 0x00;
  7014  00323C  0E00               	movlw	0
  7015  00323E  6E64               	movwf	100,c	;volatile
  7016                           
  7017                           ;mcc_generated_files/pwm7.c: 71:     CCPTMRS1bits.P7TSEL = 2;
  7018  003240  013F               	movlb	63	; () banked
  7019  003242  515F               	movf	95,w,b	;volatile
  7020  003244  0BCF               	andlw	-49
  7021  003246  0920               	iorlw	32
  7022  003248  6F5F               	movwf	95,b	;volatile
  7023  00324A                     
  7024                           ; BSR set to: 63
  7025  00324A  0012               	return		;funcret
  7026  00324C                     __end_of_PWM7_Initialize:
  7027                           	callstack 0
  7028                           
  7029 ;; *************** function _PWM6_Initialize *****************
  7030 ;; Defined at:
  7031 ;;		line 58 in file "mcc_generated_files/pwm6.c"
  7032 ;; Parameters:    Size  Location     Type
  7033 ;;		None
  7034 ;; Auto vars:     Size  Location     Type
  7035 ;;		None
  7036 ;; Return value:  Size  Location     Type
  7037 ;;                  1    wreg      void 
  7038 ;; Registers used:
  7039 ;;		wreg, status,2
  7040 ;; Tracked objects:
  7041 ;;		On entry : 0/0
  7042 ;;		On exit  : 0/0
  7043 ;;		Unchanged: 0/0
  7044 ;; Data sizes:     COMRAM   BANK0   BANK1   BANK2   BANK3   BANK4   BANK5   BANK6   BANK7   BANK8   BANK9  BANK10  BANK1
      +1  BANK12  BANK13  BANK14  BANK15
  7045 ;;      Params:         0       0       0       0       0       0       0       0       0       0       0       0       
      +0       0       0       0       0
  7046 ;;      Locals:         0       0       0       0       0       0       0       0       0       0       0       0       
      +0       0       0       0       0
  7047 ;;      Temps:          0       0       0       0       0       0       0       0       0       0       0       0       
      +0       0       0       0       0
  7048 ;;      Totals:         0       0       0       0       0       0       0       0       0       0       0       0       
      +0       0       0       0       0
  7049 ;;Total ram usage:        0 bytes
  7050 ;; Hardware stack levels used: 1
  7051 ;; Hardware stack levels required when called: 8
  7052 ;; This function calls:
  7053 ;;		Nothing
  7054 ;; This function is called by:
  7055 ;;		_SYSTEM_Initialize
  7056 ;; This function uses a non-reentrant model
  7057 ;;
  7058                           
  7059                           	psect	text44
  7060  00324C                     __ptext44:
  7061                           	callstack 0
  7062  00324C                     _PWM6_Initialize:
  7063                           	callstack 21
  7064  00324C                     
  7065                           ;mcc_generated_files/pwm6.c: 62:     PWM6CON = 0x80;
  7066  00324C  0E80               	movlw	128
  7067  00324E  6E6A               	movwf	106,c	;volatile
  7068                           
  7069                           ;mcc_generated_files/pwm6.c: 65:     PWM6DCH = 0x59;
  7070  003250  0E59               	movlw	89
  7071  003252  6E69               	movwf	105,c	;volatile
  7072                           
  7073                           ;mcc_generated_files/pwm6.c: 68:     PWM6DCL = 0x40;
  7074  003254  0E40               	movlw	64
  7075  003256  6E68               	movwf	104,c	;volatile
  7076                           
  7077                           ;mcc_generated_files/pwm6.c: 71:     CCPTMRS1bits.P6TSEL = 1;
  7078  003258  013F               	movlb	63	; () banked
  7079  00325A  515F               	movf	95,w,b	;volatile
  7080  00325C  0BF3               	andlw	-13
  7081  00325E  0904               	iorlw	4
  7082  003260  6F5F               	movwf	95,b	;volatile
  7083  003262                     
  7084                           ; BSR set to: 63
  7085  003262  0012               	return		;funcret
  7086  003264                     __end_of_PWM6_Initialize:
  7087                           	callstack 0
  7088                           
  7089 ;; *************** function _PWM5_Initialize *****************
  7090 ;; Defined at:
  7091 ;;		line 58 in file "mcc_generated_files/pwm5.c"
  7092 ;; Parameters:    Size  Location     Type
  7093 ;;		None
  7094 ;; Auto vars:     Size  Location     Type
  7095 ;;		None
  7096 ;; Return value:  Size  Location     Type
  7097 ;;                  1    wreg      void 
  7098 ;; Registers used:
  7099 ;;		wreg, status,2
  7100 ;; Tracked objects:
  7101 ;;		On entry : 0/0
  7102 ;;		On exit  : 0/0
  7103 ;;		Unchanged: 0/0
  7104 ;; Data sizes:     COMRAM   BANK0   BANK1   BANK2   BANK3   BANK4   BANK5   BANK6   BANK7   BANK8   BANK9  BANK10  BANK1
      +1  BANK12  BANK13  BANK14  BANK15
  7105 ;;      Params:         0       0       0       0       0       0       0       0       0       0       0       0       
      +0       0       0       0       0
  7106 ;;      Locals:         0       0       0       0       0       0       0       0       0       0       0       0       
      +0       0       0       0       0
  7107 ;;      Temps:          0       0       0       0       0       0       0       0       0       0       0       0       
      +0       0       0       0       0
  7108 ;;      Totals:         0       0       0       0       0       0       0       0       0       0       0       0       
      +0       0       0       0       0
  7109 ;;Total ram usage:        0 bytes
  7110 ;; Hardware stack levels used: 1
  7111 ;; Hardware stack levels required when called: 8
  7112 ;; This function calls:
  7113 ;;		Nothing
  7114 ;; This function is called by:
  7115 ;;		_SYSTEM_Initialize
  7116 ;; This function uses a non-reentrant model
  7117 ;;
  7118                           
  7119                           	psect	text45
  7120  003264                     __ptext45:
  7121                           	callstack 0
  7122  003264                     _PWM5_Initialize:
  7123                           	callstack 21
  7124  003264                     
  7125                           ;mcc_generated_files/pwm5.c: 62:     PWM5CON = 0x80;
  7126  003264  0E80               	movlw	128
  7127  003266  6E6E               	movwf	110,c	;volatile
  7128                           
  7129                           ;mcc_generated_files/pwm5.c: 65:     PWM5DCH = 0x59;
  7130  003268  0E59               	movlw	89
  7131  00326A  6E6D               	movwf	109,c	;volatile
  7132                           
  7133                           ;mcc_generated_files/pwm5.c: 68:     PWM5DCL = 0x40;
  7134  00326C  0E40               	movlw	64
  7135  00326E  6E6C               	movwf	108,c	;volatile
  7136                           
  7137                           ;mcc_generated_files/pwm5.c: 71:     CCPTMRS1bits.P5TSEL = 1;
  7138  003270  013F               	movlb	63	; () banked
  7139  003272  515F               	movf	95,w,b	;volatile
  7140  003274  0BFC               	andlw	-4
  7141  003276  0901               	iorlw	1
  7142  003278  6F5F               	movwf	95,b	;volatile
  7143  00327A                     
  7144                           ; BSR set to: 63
  7145  00327A  0012               	return		;funcret
  7146  00327C                     __end_of_PWM5_Initialize:
  7147                           	callstack 0
  7148                           
  7149 ;; *************** function _PMD_Initialize *****************
  7150 ;; Defined at:
  7151 ;;		line 86 in file "mcc_generated_files/mcc.c"
  7152 ;; Parameters:    Size  Location     Type
  7153 ;;		None
  7154 ;; Auto vars:     Size  Location     Type
  7155 ;;		None
  7156 ;; Return value:  Size  Location     Type
  7157 ;;                  1    wreg      void 
  7158 ;; Registers used:
  7159 ;;		wreg, status,2
  7160 ;; Tracked objects:
  7161 ;;		On entry : 0/0
  7162 ;;		On exit  : 0/0
  7163 ;;		Unchanged: 0/0
  7164 ;; Data sizes:     COMRAM   BANK0   BANK1   BANK2   BANK3   BANK4   BANK5   BANK6   BANK7   BANK8   BANK9  BANK10  BANK1
      +1  BANK12  BANK13  BANK14  BANK15
  7165 ;;      Params:         0       0       0       0       0       0       0       0       0       0       0       0       
      +0       0       0       0       0
  7166 ;;      Locals:         0       0       0       0       0       0       0       0       0       0       0       0       
      +0       0       0       0       0
  7167 ;;      Temps:          0       0       0       0       0       0       0       0       0       0       0       0       
      +0       0       0       0       0
  7168 ;;      Totals:         0       0       0       0       0       0       0       0       0       0       0       0       
      +0       0       0       0       0
  7169 ;;Total ram usage:        0 bytes
  7170 ;; Hardware stack levels used: 1
  7171 ;; Hardware stack levels required when called: 8
  7172 ;; This function calls:
  7173 ;;		Nothing
  7174 ;; This function is called by:
  7175 ;;		_SYSTEM_Initialize
  7176 ;; This function uses a non-reentrant model
  7177 ;;
  7178                           
  7179                           	psect	text46
  7180  003180                     __ptext46:
  7181                           	callstack 0
  7182  003180                     _PMD_Initialize:
  7183                           	callstack 21
  7184  003180                     
  7185                           ;mcc_generated_files/mcc.c: 89:     PMD0 = 0x00;
  7186  003180  0E00               	movlw	0
  7187  003182  0139               	movlb	57	; () banked
  7188  003184  6FC0               	movwf	192,b	;volatile
  7189                           
  7190                           ;mcc_generated_files/mcc.c: 91:     PMD1 = 0x00;
  7191  003186  0E00               	movlw	0
  7192  003188  6FC1               	movwf	193,b	;volatile
  7193                           
  7194                           ;mcc_generated_files/mcc.c: 93:     PMD2 = 0x00;
  7195  00318A  0E00               	movlw	0
  7196  00318C  6FC2               	movwf	194,b	;volatile
  7197                           
  7198                           ;mcc_generated_files/mcc.c: 95:     PMD3 = 0x00;
  7199  00318E  0E00               	movlw	0
  7200  003190  6FC3               	movwf	195,b	;volatile
  7201                           
  7202                           ;mcc_generated_files/mcc.c: 97:     PMD4 = 0x00;
  7203  003192  0E00               	movlw	0
  7204  003194  6FC4               	movwf	196,b	;volatile
  7205                           
  7206                           ;mcc_generated_files/mcc.c: 99:     PMD5 = 0x00;
  7207  003196  0E00               	movlw	0
  7208  003198  6FC5               	movwf	197,b	;volatile
  7209                           
  7210                           ;mcc_generated_files/mcc.c: 101:     PMD6 = 0x00;
  7211  00319A  0E00               	movlw	0
  7212  00319C  6FC6               	movwf	198,b	;volatile
  7213                           
  7214                           ;mcc_generated_files/mcc.c: 103:     PMD7 = 0x00;
  7215  00319E  0E00               	movlw	0
  7216  0031A0  6FC7               	movwf	199,b	;volatile
  7217  0031A2                     
  7218                           ; BSR set to: 57
  7219  0031A2  0012               	return		;funcret
  7220  0031A4                     __end_of_PMD_Initialize:
  7221                           	callstack 0
  7222                           
  7223 ;; *************** function _PIN_MANAGER_Initialize *****************
  7224 ;; Defined at:
  7225 ;;		line 55 in file "mcc_generated_files/pin_manager.c"
  7226 ;; Parameters:    Size  Location     Type
  7227 ;;		None
  7228 ;; Auto vars:     Size  Location     Type
  7229 ;;		None
  7230 ;; Return value:  Size  Location     Type
  7231 ;;                  1    wreg      void 
  7232 ;; Registers used:
  7233 ;;		wreg, status,2
  7234 ;; Tracked objects:
  7235 ;;		On entry : 0/0
  7236 ;;		On exit  : 0/0
  7237 ;;		Unchanged: 0/0
  7238 ;; Data sizes:     COMRAM   BANK0   BANK1   BANK2   BANK3   BANK4   BANK5   BANK6   BANK7   BANK8   BANK9  BANK10  BANK1
      +1  BANK12  BANK13  BANK14  BANK15
  7239 ;;      Params:         0       0       0       0       0       0       0       0       0       0       0       0       
      +0       0       0       0       0
  7240 ;;      Locals:         0       0       0       0       0       0       0       0       0       0       0       0       
      +0       0       0       0       0
  7241 ;;      Temps:          0       0       0       0       0       0       0       0       0       0       0       0       
      +0       0       0       0       0
  7242 ;;      Totals:         0       0       0       0       0       0       0       0       0       0       0       0       
      +0       0       0       0       0
  7243 ;;Total ram usage:        0 bytes
  7244 ;; Hardware stack levels used: 1
  7245 ;; Hardware stack levels required when called: 8
  7246 ;; This function calls:
  7247 ;;		Nothing
  7248 ;; This function is called by:
  7249 ;;		_SYSTEM_Initialize
  7250 ;; This function uses a non-reentrant model
  7251 ;;
  7252                           
  7253                           	psect	text47
  7254  002304                     __ptext47:
  7255                           	callstack 0
  7256  002304                     _PIN_MANAGER_Initialize:
  7257                           	callstack 21
  7258  002304                     
  7259                           ;mcc_generated_files/pin_manager.c: 60:     LATE = 0x00;
  7260  002304  0E00               	movlw	0
  7261  002306  6EBE               	movwf	190,c	;volatile
  7262                           
  7263                           ;mcc_generated_files/pin_manager.c: 61:     LATD = 0x00;
  7264  002308  0E00               	movlw	0
  7265  00230A  6EBD               	movwf	189,c	;volatile
  7266                           
  7267                           ;mcc_generated_files/pin_manager.c: 62:     LATA = 0x24;
  7268  00230C  0E24               	movlw	36
  7269  00230E  6EBA               	movwf	186,c	;volatile
  7270                           
  7271                           ;mcc_generated_files/pin_manager.c: 63:     LATB = 0x00;
  7272  002310  0E00               	movlw	0
  7273  002312  6EBB               	movwf	187,c	;volatile
  7274                           
  7275                           ;mcc_generated_files/pin_manager.c: 64:     LATC = 0x00;
  7276  002314  0E00               	movlw	0
  7277  002316  6EBC               	movwf	188,c	;volatile
  7278                           
  7279                           ;mcc_generated_files/pin_manager.c: 69:     TRISE = 0x07;
  7280  002318  0E07               	movlw	7
  7281  00231A  6EC6               	movwf	198,c	;volatile
  7282                           
  7283                           ;mcc_generated_files/pin_manager.c: 70:     TRISA = 0xC0;
  7284  00231C  0EC0               	movlw	192
  7285  00231E  6EC2               	movwf	194,c	;volatile
  7286                           
  7287                           ;mcc_generated_files/pin_manager.c: 71:     TRISB = 0xF7;
  7288  002320  0EF7               	movlw	247
  7289  002322  6EC3               	movwf	195,c	;volatile
  7290  002324                     
  7291                           ;mcc_generated_files/pin_manager.c: 72:     TRISC = 0xFF;
  7292  002324  68C4               	setf	196,c	;volatile
  7293  002326                     
  7294                           ;mcc_generated_files/pin_manager.c: 73:     TRISD = 0xFF;
  7295  002326  68C5               	setf	197,c	;volatile
  7296                           
  7297                           ;mcc_generated_files/pin_manager.c: 78:     ANSELD = 0x1F;
  7298  002328  0E1F               	movlw	31
  7299  00232A  013A               	movlb	58	; () banked
  7300  00232C  6F70               	movwf	112,b	;volatile
  7301  00232E                     
  7302                           ; BSR set to: 58
  7303                           ;mcc_generated_files/pin_manager.c: 79:     ANSELC = 0xFF;
  7304  00232E  6960               	setf	96,b	;volatile
  7305                           
  7306                           ;mcc_generated_files/pin_manager.c: 80:     ANSELB = 0xC0;
  7307  002330  0EC0               	movlw	192
  7308  002332  6F50               	movwf	80,b	;volatile
  7309                           
  7310                           ;mcc_generated_files/pin_manager.c: 81:     ANSELE = 0x07;
  7311  002334  0E07               	movlw	7
  7312  002336  6F80               	movwf	128,b	;volatile
  7313                           
  7314                           ;mcc_generated_files/pin_manager.c: 82:     ANSELA = 0x7F;
  7315  002338  0E7F               	movlw	127
  7316  00233A  6F40               	movwf	64,b	;volatile
  7317                           
  7318                           ;mcc_generated_files/pin_manager.c: 87:     WPUD = 0x00;
  7319  00233C  0E00               	movlw	0
  7320  00233E  6F71               	movwf	113,b	;volatile
  7321                           
  7322                           ;mcc_generated_files/pin_manager.c: 88:     WPUE = 0x00;
  7323  002340  0E00               	movlw	0
  7324  002342  6F81               	movwf	129,b	;volatile
  7325                           
  7326                           ;mcc_generated_files/pin_manager.c: 89:     WPUB = 0x00;
  7327  002344  0E00               	movlw	0
  7328  002346  6F51               	movwf	81,b	;volatile
  7329                           
  7330                           ;mcc_generated_files/pin_manager.c: 90:     WPUA = 0x00;
  7331  002348  0E00               	movlw	0
  7332  00234A  6F41               	movwf	65,b	;volatile
  7333                           
  7334                           ;mcc_generated_files/pin_manager.c: 91:     WPUC = 0x00;
  7335  00234C  0E00               	movlw	0
  7336  00234E  6F61               	movwf	97,b	;volatile
  7337                           
  7338                           ;mcc_generated_files/pin_manager.c: 96:     RB1I2C = 0x00;
  7339  002350  0E00               	movlw	0
  7340  002352  6F5A               	movwf	90,b	;volatile
  7341                           
  7342                           ;mcc_generated_files/pin_manager.c: 97:     RB2I2C = 0x00;
  7343  002354  0E00               	movlw	0
  7344  002356  6F5B               	movwf	91,b	;volatile
  7345                           
  7346                           ;mcc_generated_files/pin_manager.c: 98:     RC3I2C = 0x00;
  7347  002358  0E00               	movlw	0
  7348  00235A  6F6A               	movwf	106,b	;volatile
  7349                           
  7350                           ;mcc_generated_files/pin_manager.c: 99:     RC4I2C = 0x00;
  7351  00235C  0E00               	movlw	0
  7352  00235E  6F6B               	movwf	107,b	;volatile
  7353                           
  7354                           ;mcc_generated_files/pin_manager.c: 100:     RD0I2C = 0x00;
  7355  002360  0E00               	movlw	0
  7356  002362  6F7A               	movwf	122,b	;volatile
  7357                           
  7358                           ;mcc_generated_files/pin_manager.c: 101:     RD1I2C = 0x00;
  7359  002364  0E00               	movlw	0
  7360  002366  6F7B               	movwf	123,b	;volatile
  7361                           
  7362                           ;mcc_generated_files/pin_manager.c: 106:     ODCONE = 0x00;
  7363  002368  0E00               	movlw	0
  7364  00236A  6F82               	movwf	130,b	;volatile
  7365                           
  7366                           ;mcc_generated_files/pin_manager.c: 107:     ODCONA = 0x00;
  7367  00236C  0E00               	movlw	0
  7368  00236E  6F42               	movwf	66,b	;volatile
  7369                           
  7370                           ;mcc_generated_files/pin_manager.c: 108:     ODCONB = 0x00;
  7371  002370  0E00               	movlw	0
  7372  002372  6F52               	movwf	82,b	;volatile
  7373                           
  7374                           ;mcc_generated_files/pin_manager.c: 109:     ODCONC = 0x00;
  7375  002374  0E00               	movlw	0
  7376  002376  6F62               	movwf	98,b	;volatile
  7377                           
  7378                           ;mcc_generated_files/pin_manager.c: 110:     ODCOND = 0x00;
  7379  002378  0E00               	movlw	0
  7380  00237A  6F72               	movwf	114,b	;volatile
  7381  00237C                     
  7382                           ; BSR set to: 58
  7383                           ;mcc_generated_files/pin_manager.c: 115:     SLRCONA = 0xFF;
  7384  00237C  6943               	setf	67,b	;volatile
  7385  00237E                     
  7386                           ; BSR set to: 58
  7387                           ;mcc_generated_files/pin_manager.c: 116:     SLRCONB = 0xFF;
  7388  00237E  6953               	setf	83,b	;volatile
  7389  002380                     
  7390                           ; BSR set to: 58
  7391                           ;mcc_generated_files/pin_manager.c: 117:     SLRCONC = 0xFF;
  7392  002380  6963               	setf	99,b	;volatile
  7393  002382                     
  7394                           ; BSR set to: 58
  7395                           ;mcc_generated_files/pin_manager.c: 118:     SLRCOND = 0xFF;
  7396  002382  6973               	setf	115,b	;volatile
  7397                           
  7398                           ;mcc_generated_files/pin_manager.c: 119:     SLRCONE = 0x07;
  7399  002384  0E07               	movlw	7
  7400  002386  6F83               	movwf	131,b	;volatile
  7401  002388                     
  7402                           ; BSR set to: 58
  7403                           ;mcc_generated_files/pin_manager.c: 124:     INLVLA = 0xFF;
  7404  002388  6944               	setf	68,b	;volatile
  7405  00238A                     
  7406                           ; BSR set to: 58
  7407                           ;mcc_generated_files/pin_manager.c: 125:     INLVLB = 0xFF;
  7408  00238A  6954               	setf	84,b	;volatile
  7409  00238C                     
  7410                           ; BSR set to: 58
  7411                           ;mcc_generated_files/pin_manager.c: 126:     INLVLC = 0xFF;
  7412  00238C  6964               	setf	100,b	;volatile
  7413  00238E                     
  7414                           ; BSR set to: 58
  7415                           ;mcc_generated_files/pin_manager.c: 127:     INLVLD = 0xFF;
  7416  00238E  6974               	setf	116,b	;volatile
  7417                           
  7418                           ;mcc_generated_files/pin_manager.c: 128:     INLVLE = 0x0F;
  7419  002390  0E0F               	movlw	15
  7420  002392  6F84               	movwf	132,b	;volatile
  7421                           
  7422                           ;mcc_generated_files/pin_manager.c: 137:     CCP3PPS = 0x1F;
  7423  002394  0E1F               	movlw	31
  7424  002396  6FCF               	movwf	207,b	;volatile
  7425                           
  7426                           ;mcc_generated_files/pin_manager.c: 138:     CLCIN3PPS = 0x09;
  7427  002398  0E09               	movlw	9
  7428  00239A  6FDC               	movwf	220,b	;volatile
  7429                           
  7430                           ;mcc_generated_files/pin_manager.c: 139:     RA1PPS = 0x0E;
  7431  00239C  0E0E               	movlw	14
  7432  00239E  6F01               	movwf	1,b	;volatile
  7433                           
  7434                           ;mcc_generated_files/pin_manager.c: 140:     U1RXPPS = 0x0A;
  7435  0023A0  0E0A               	movlw	10
  7436  0023A2  6FE5               	movwf	229,b	;volatile
  7437                           
  7438                           ;mcc_generated_files/pin_manager.c: 141:     RA0PPS = 0x0D;
  7439  0023A4  0E0D               	movlw	13
  7440  0023A6  6F00               	movwf	0,b	;volatile
  7441                           
  7442                           ;mcc_generated_files/pin_manager.c: 142:     T5GPPS = 0x1D;
  7443  0023A8  0E1D               	movlw	29
  7444  0023AA  6FC9               	movwf	201,b	;volatile
  7445                           
  7446                           ;mcc_generated_files/pin_manager.c: 143:     RA4PPS = 0x10;
  7447  0023AC  0E10               	movlw	16
  7448  0023AE  6F04               	movwf	4,b	;volatile
  7449                           
  7450                           ;mcc_generated_files/pin_manager.c: 144:     CLCIN0PPS = 0x07;
  7451  0023B0  0E07               	movlw	7
  7452  0023B2  6FD9               	movwf	217,b	;volatile
  7453                           
  7454                           ;mcc_generated_files/pin_manager.c: 145:     SMT1WINPPS = 0x09;
  7455  0023B4  0E09               	movlw	9
  7456  0023B6  6FD1               	movwf	209,b	;volatile
  7457                           
  7458                           ;mcc_generated_files/pin_manager.c: 146:     RA3PPS = 0x0F;
  7459  0023B8  0E0F               	movlw	15
  7460  0023BA  6F03               	movwf	3,b	;volatile
  7461                           
  7462                           ;mcc_generated_files/pin_manager.c: 147:     RB3PPS = 0x13;
  7463  0023BC  0E13               	movlw	19
  7464  0023BE  6F0B               	movwf	11,b	;volatile
  7465                           
  7466                           ;mcc_generated_files/pin_manager.c: 148:     CLCIN2PPS = 0x08;
  7467  0023C0  0E08               	movlw	8
  7468  0023C2  6FDB               	movwf	219,b	;volatile
  7469                           
  7470                           ;mcc_generated_files/pin_manager.c: 149:     SMT1SIGPPS = 0x08;
  7471  0023C4  0E08               	movlw	8
  7472  0023C6  6FD2               	movwf	210,b	;volatile
  7473                           
  7474                           ;mcc_generated_files/pin_manager.c: 150:     CCP4PPS = 0x1E;
  7475  0023C8  0E1E               	movlw	30
  7476  0023CA  6FD0               	movwf	208,b	;volatile
  7477  0023CC                     
  7478                           ; BSR set to: 58
  7479  0023CC  0012               	return		;funcret
  7480  0023CE                     __end_of_PIN_MANAGER_Initialize:
  7481                           	callstack 0
  7482                           
  7483 ;; *************** function _OSCILLATOR_Initialize *****************
  7484 ;; Defined at:
  7485 ;;		line 72 in file "mcc_generated_files/mcc.c"
  7486 ;; Parameters:    Size  Location     Type
  7487 ;;		None
  7488 ;; Auto vars:     Size  Location     Type
  7489 ;;		None
  7490 ;; Return value:  Size  Location     Type
  7491 ;;                  1    wreg      void 
  7492 ;; Registers used:
  7493 ;;		wreg, status,2
  7494 ;; Tracked objects:
  7495 ;;		On entry : 0/0
  7496 ;;		On exit  : 0/0
  7497 ;;		Unchanged: 0/0
  7498 ;; Data sizes:     COMRAM   BANK0   BANK1   BANK2   BANK3   BANK4   BANK5   BANK6   BANK7   BANK8   BANK9  BANK10  BANK1
      +1  BANK12  BANK13  BANK14  BANK15
  7499 ;;      Params:         0       0       0       0       0       0       0       0       0       0       0       0       
      +0       0       0       0       0
  7500 ;;      Locals:         0       0       0       0       0       0       0       0       0       0       0       0       
      +0       0       0       0       0
  7501 ;;      Temps:          0       0       0       0       0       0       0       0       0       0       0       0       
      +0       0       0       0       0
  7502 ;;      Totals:         0       0       0       0       0       0       0       0       0       0       0       0       
      +0       0       0       0       0
  7503 ;;Total ram usage:        0 bytes
  7504 ;; Hardware stack levels used: 1
  7505 ;; Hardware stack levels required when called: 8
  7506 ;; This function calls:
  7507 ;;		Nothing
  7508 ;; This function is called by:
  7509 ;;		_SYSTEM_Initialize
  7510 ;; This function uses a non-reentrant model
  7511 ;;
  7512                           
  7513                           	psect	text48
  7514  00327C                     __ptext48:
  7515                           	callstack 0
  7516  00327C                     _OSCILLATOR_Initialize:
  7517                           	callstack 21
  7518  00327C                     
  7519                           ;mcc_generated_files/mcc.c: 75:     OSCCON1 = 0x60;
  7520  00327C  0E60               	movlw	96
  7521  00327E  0139               	movlb	57	; () banked
  7522  003280  6FD9               	movwf	217,b	;volatile
  7523                           
  7524                           ;mcc_generated_files/mcc.c: 77:     OSCCON3 = 0x00;
  7525  003282  0E00               	movlw	0
  7526  003284  6FDB               	movwf	219,b	;volatile
  7527                           
  7528                           ;mcc_generated_files/mcc.c: 79:     OSCEN = 0x00;
  7529  003286  0E00               	movlw	0
  7530  003288  6FDD               	movwf	221,b	;volatile
  7531                           
  7532                           ;mcc_generated_files/mcc.c: 81:     OSCFRQ = 0x08;
  7533  00328A  0E08               	movlw	8
  7534  00328C  6FDF               	movwf	223,b	;volatile
  7535                           
  7536                           ;mcc_generated_files/mcc.c: 83:     OSCTUNE = 0x00;
  7537  00328E  0E00               	movlw	0
  7538  003290  6FDE               	movwf	222,b	;volatile
  7539  003292                     
  7540                           ; BSR set to: 57
  7541  003292  0012               	return		;funcret
  7542  003294                     __end_of_OSCILLATOR_Initialize:
  7543                           	callstack 0
  7544                           
  7545 ;; *************** function _INTERRUPT_Initialize *****************
  7546 ;; Defined at:
  7547 ;;		line 52 in file "mcc_generated_files/interrupt_manager.c"
  7548 ;; Parameters:    Size  Location     Type
  7549 ;;		None
  7550 ;; Auto vars:     Size  Location     Type
  7551 ;;  state           1   31[COMRAM] _Bool 
  7552 ;; Return value:  Size  Location     Type
  7553 ;;                  1    wreg      void 
  7554 ;; Registers used:
  7555 ;;		wreg, status,2
  7556 ;; Tracked objects:
  7557 ;;		On entry : 0/0
  7558 ;;		On exit  : 0/0
  7559 ;;		Unchanged: 0/0
  7560 ;; Data sizes:     COMRAM   BANK0   BANK1   BANK2   BANK3   BANK4   BANK5   BANK6   BANK7   BANK8   BANK9  BANK10  BANK1
      +1  BANK12  BANK13  BANK14  BANK15
  7561 ;;      Params:         0       0       0       0       0       0       0       0       0       0       0       0       
      +0       0       0       0       0
  7562 ;;      Locals:         1       0       0       0       0       0       0       0       0       0       0       0       
      +0       0       0       0       0
  7563 ;;      Temps:          0       0       0       0       0       0       0       0       0       0       0       0       
      +0       0       0       0       0
  7564 ;;      Totals:         1       0       0       0       0       0       0       0       0       0       0       0       
      +0       0       0       0       0
  7565 ;;Total ram usage:        1 bytes
  7566 ;; Hardware stack levels used: 1
  7567 ;; Hardware stack levels required when called: 8
  7568 ;; This function calls:
  7569 ;;		Nothing
  7570 ;; This function is called by:
  7571 ;;		_SYSTEM_Initialize
  7572 ;; This function uses a non-reentrant model
  7573 ;;
  7574                           
  7575                           	psect	text49
  7576  002B2C                     __ptext49:
  7577                           	callstack 0
  7578  002B2C                     _INTERRUPT_Initialize:
  7579                           	callstack 21
  7580  002B2C                     
  7581                           ;mcc_generated_files/interrupt_manager.c: 54:     INTCON0bits.IPEN = 1;
  7582  002B2C  8AD2               	bsf	210,5,c	;volatile
  7583  002B2E                     
  7584                           ;mcc_generated_files/interrupt_manager.c: 56:     _Bool state = (unsigned char)GIE;
  7585  002B2E  0E00               	movlw	0
  7586  002B30  BED2               	btfsc	16338,7,c	;volatile
  7587  002B32  0E01               	movlw	1
  7588  002B34  6E20               	movwf	INTERRUPT_Initialize@state^0,c
  7589  002B36                     
  7590                           ;mcc_generated_files/interrupt_manager.c: 57:     GIE = 0;
  7591  002B36  9ED2               	bcf	16338,7,c	;volatile
  7592                           
  7593                           ;mcc_generated_files/interrupt_manager.c: 58:     IVTLOCK = 0x55;
  7594  002B38  0E55               	movlw	85
  7595  002B3A  6ED4               	movwf	212,c	;volatile
  7596                           
  7597                           ;mcc_generated_files/interrupt_manager.c: 59:     IVTLOCK = 0xAA;
  7598  002B3C  0EAA               	movlw	170
  7599  002B3E  6ED4               	movwf	212,c	;volatile
  7600  002B40                     
  7601                           ;mcc_generated_files/interrupt_manager.c: 60:     IVTLOCKbits.IVTLOCKED = 0x00;
  7602  002B40  90D4               	bcf	212,0,c	;volatile
  7603                           
  7604                           ;mcc_generated_files/interrupt_manager.c: 62:     IVTBASEU = 0;
  7605  002B42  0E00               	movlw	0
  7606  002B44  6ED7               	movwf	215,c	;volatile
  7607                           
  7608                           ;mcc_generated_files/interrupt_manager.c: 63:     IVTBASEH = 0;
  7609  002B46  0E00               	movlw	0
  7610  002B48  6ED6               	movwf	214,c	;volatile
  7611                           
  7612                           ;mcc_generated_files/interrupt_manager.c: 64:     IVTBASEL = 8;
  7613  002B4A  0E08               	movlw	8
  7614  002B4C  6ED5               	movwf	213,c	;volatile
  7615                           
  7616                           ;mcc_generated_files/interrupt_manager.c: 66:     IVTLOCK = 0x55;
  7617  002B4E  0E55               	movlw	85
  7618  002B50  6ED4               	movwf	212,c	;volatile
  7619                           
  7620                           ;mcc_generated_files/interrupt_manager.c: 67:     IVTLOCK = 0xAA;
  7621  002B52  0EAA               	movlw	170
  7622  002B54  6ED4               	movwf	212,c	;volatile
  7623  002B56                     
  7624                           ;mcc_generated_files/interrupt_manager.c: 68:     IVTLOCKbits.IVTLOCKED = 0x01;
  7625  002B56  80D4               	bsf	212,0,c	;volatile
  7626  002B58                     
  7627                           ;mcc_generated_files/interrupt_manager.c: 70:     GIE = state;
  7628  002B58  B020               	btfsc	INTERRUPT_Initialize@state^0,0,c
  7629  002B5A  D002               	bra	u1065
  7630  002B5C  9ED2               	bcf	16338,7,c	;volatile
  7631  002B5E  D001               	bra	u1066
  7632  002B60                     u1065:
  7633  002B60  8ED2               	bsf	16338,7,c	;volatile
  7634  002B62                     u1066:
  7635  002B62                     
  7636                           ;mcc_generated_files/interrupt_manager.c: 72:     IPR3bits.U1TXIP = 0;
  7637  002B62  0139               	movlb	57	; () banked
  7638  002B64  9983               	bcf	131,4,b	;volatile
  7639  002B66                     
  7640                           ; BSR set to: 57
  7641                           ;mcc_generated_files/interrupt_manager.c: 73:     IPR3bits.U1RXIP = 0;
  7642  002B66  9783               	bcf	131,3,b	;volatile
  7643  002B68                     
  7644                           ; BSR set to: 57
  7645                           ;mcc_generated_files/interrupt_manager.c: 74:     IPR1bits.SMT1PWAIP = 1;
  7646  002B68  8F81               	bsf	129,7,b	;volatile
  7647  002B6A                     
  7648                           ; BSR set to: 57
  7649                           ;mcc_generated_files/interrupt_manager.c: 75:     IPR1bits.SMT1IP = 1;
  7650  002B6A  8B81               	bsf	129,5,b	;volatile
  7651  002B6C                     
  7652                           ; BSR set to: 57
  7653                           ;mcc_generated_files/interrupt_manager.c: 76:     IPR1bits.SMT1PRAIP = 1;
  7654  002B6C  8D81               	bsf	129,6,b	;volatile
  7655  002B6E                     
  7656                           ; BSR set to: 57
  7657                           ;mcc_generated_files/interrupt_manager.c: 77:     IPR10bits.CCP4IP = 1;
  7658  002B6E  818A               	bsf	138,0,b	;volatile
  7659  002B70                     
  7660                           ; BSR set to: 57
  7661                           ;mcc_generated_files/interrupt_manager.c: 78:     IPR8bits.TMR5GIP = 1;
  7662  002B70  8F88               	bsf	136,7,b	;volatile
  7663  002B72                     
  7664                           ; BSR set to: 57
  7665                           ;mcc_generated_files/interrupt_manager.c: 79:     IPR7bits.TMR4IP = 0;
  7666  002B72  9187               	bcf	135,0,b	;volatile
  7667  002B74                     
  7668                           ; BSR set to: 57
  7669                           ;mcc_generated_files/interrupt_manager.c: 80:     IPR9bits.CCP3IP = 1;
  7670  002B74  8389               	bsf	137,1,b	;volatile
  7671  002B76                     
  7672                           ; BSR set to: 57
  7673  002B76  0012               	return		;funcret
  7674  002B78                     __end_of_INTERRUPT_Initialize:
  7675                           	callstack 0
  7676                           
  7677 ;; *************** function _CLC3_Initialize *****************
  7678 ;; Defined at:
  7679 ;;		line 58 in file "mcc_generated_files/clc3.c"
  7680 ;; Parameters:    Size  Location     Type
  7681 ;;		None
  7682 ;; Auto vars:     Size  Location     Type
  7683 ;;		None
  7684 ;; Return value:  Size  Location     Type
  7685 ;;                  1    wreg      void 
  7686 ;; Registers used:
  7687 ;;		wreg, status,2
  7688 ;; Tracked objects:
  7689 ;;		On entry : 0/0
  7690 ;;		On exit  : 0/0
  7691 ;;		Unchanged: 0/0
  7692 ;; Data sizes:     COMRAM   BANK0   BANK1   BANK2   BANK3   BANK4   BANK5   BANK6   BANK7   BANK8   BANK9  BANK10  BANK1
      +1  BANK12  BANK13  BANK14  BANK15
  7693 ;;      Params:         0       0       0       0       0       0       0       0       0       0       0       0       
      +0       0       0       0       0
  7694 ;;      Locals:         0       0       0       0       0       0       0       0       0       0       0       0       
      +0       0       0       0       0
  7695 ;;      Temps:          0       0       0       0       0       0       0       0       0       0       0       0       
      +0       0       0       0       0
  7696 ;;      Totals:         0       0       0       0       0       0       0       0       0       0       0       0       
      +0       0       0       0       0
  7697 ;;Total ram usage:        0 bytes
  7698 ;; Hardware stack levels used: 1
  7699 ;; Hardware stack levels required when called: 8
  7700 ;; This function calls:
  7701 ;;		Nothing
  7702 ;; This function is called by:
  7703 ;;		_SYSTEM_Initialize
  7704 ;; This function uses a non-reentrant model
  7705 ;;
  7706                           
  7707                           	psect	text50
  7708  0030AA                     __ptext50:
  7709                           	callstack 0
  7710  0030AA                     _CLC3_Initialize:
  7711                           	callstack 21
  7712  0030AA                     
  7713                           ;mcc_generated_files/clc3.c: 63:     CLC3POL = 0x00;
  7714  0030AA  0E00               	movlw	0
  7715  0030AC  013C               	movlb	60	; () banked
  7716  0030AE  6F61               	movwf	97,b	;volatile
  7717                           
  7718                           ;mcc_generated_files/clc3.c: 65:     CLC3SEL0 = 0x03;
  7719  0030B0  0E03               	movlw	3
  7720  0030B2  6F62               	movwf	98,b	;volatile
  7721                           
  7722                           ;mcc_generated_files/clc3.c: 67:     CLC3SEL1 = 0x02;
  7723  0030B4  0E02               	movlw	2
  7724  0030B6  6F63               	movwf	99,b	;volatile
  7725                           
  7726                           ;mcc_generated_files/clc3.c: 69:     CLC3SEL2 = 0x00;
  7727  0030B8  0E00               	movlw	0
  7728  0030BA  6F64               	movwf	100,b	;volatile
  7729                           
  7730                           ;mcc_generated_files/clc3.c: 71:     CLC3SEL3 = 0x00;
  7731  0030BC  0E00               	movlw	0
  7732  0030BE  6F65               	movwf	101,b	;volatile
  7733                           
  7734                           ;mcc_generated_files/clc3.c: 73:     CLC3GLS0 = 0x02;
  7735  0030C0  0E02               	movlw	2
  7736  0030C2  6F66               	movwf	102,b	;volatile
  7737                           
  7738                           ;mcc_generated_files/clc3.c: 75:     CLC3GLS1 = 0x08;
  7739  0030C4  0E08               	movlw	8
  7740  0030C6  6F67               	movwf	103,b	;volatile
  7741                           
  7742                           ;mcc_generated_files/clc3.c: 77:     CLC3GLS2 = 0x00;
  7743  0030C8  0E00               	movlw	0
  7744  0030CA  6F68               	movwf	104,b	;volatile
  7745                           
  7746                           ;mcc_generated_files/clc3.c: 79:     CLC3GLS3 = 0x00;
  7747  0030CC  0E00               	movlw	0
  7748  0030CE  6F69               	movwf	105,b	;volatile
  7749                           
  7750                           ;mcc_generated_files/clc3.c: 81:     CLC3CON = 0x85;
  7751  0030D0  0E85               	movlw	133
  7752  0030D2  6F60               	movwf	96,b	;volatile
  7753  0030D4                     
  7754                           ; BSR set to: 60
  7755  0030D4  0012               	return		;funcret
  7756  0030D6                     __end_of_CLC3_Initialize:
  7757                           	callstack 0
  7758                           
  7759 ;; *************** function _CCP4_Initialize *****************
  7760 ;; Defined at:
  7761 ;;		line 78 in file "mcc_generated_files/ccp4.c"
  7762 ;; Parameters:    Size  Location     Type
  7763 ;;		None
  7764 ;; Auto vars:     Size  Location     Type
  7765 ;;		None
  7766 ;; Return value:  Size  Location     Type
  7767 ;;                  1    wreg      void 
  7768 ;; Registers used:
  7769 ;;		wreg, status,2, status,0, cstack
  7770 ;; Tracked objects:
  7771 ;;		On entry : 0/0
  7772 ;;		On exit  : 0/0
  7773 ;;		Unchanged: 0/0
  7774 ;; Data sizes:     COMRAM   BANK0   BANK1   BANK2   BANK3   BANK4   BANK5   BANK6   BANK7   BANK8   BANK9  BANK10  BANK1
      +1  BANK12  BANK13  BANK14  BANK15
  7775 ;;      Params:         0       0       0       0       0       0       0       0       0       0       0       0       
      +0       0       0       0       0
  7776 ;;      Locals:         0       0       0       0       0       0       0       0       0       0       0       0       
      +0       0       0       0       0
  7777 ;;      Temps:          0       0       0       0       0       0       0       0       0       0       0       0       
      +0       0       0       0       0
  7778 ;;      Totals:         0       0       0       0       0       0       0       0       0       0       0       0       
      +0       0       0       0       0
  7779 ;;Total ram usage:        0 bytes
  7780 ;; Hardware stack levels used: 1
  7781 ;; Hardware stack levels required when called: 9
  7782 ;; This function calls:
  7783 ;;		_CCP4_SetCallBack
  7784 ;; This function is called by:
  7785 ;;		_SYSTEM_Initialize
  7786 ;; This function uses a non-reentrant model
  7787 ;;
  7788                           
  7789                           	psect	text51
  7790  002F98                     __ptext51:
  7791                           	callstack 0
  7792  002F98                     _CCP4_Initialize:
  7793                           	callstack 20
  7794  002F98                     
  7795                           ;mcc_generated_files/ccp4.c: 83:  CCP4CON = 0x83;
  7796  002F98  0E83               	movlw	131
  7797  002F9A  6E72               	movwf	114,c	;volatile
  7798                           
  7799                           ;mcc_generated_files/ccp4.c: 86:  CCP4CAP = 0x00;
  7800  002F9C  0E00               	movlw	0
  7801  002F9E  6E73               	movwf	115,c	;volatile
  7802                           
  7803                           ;mcc_generated_files/ccp4.c: 89:  CCPR4H = 0x00;
  7804  002FA0  0E00               	movlw	0
  7805  002FA2  6E71               	movwf	113,c	;volatile
  7806                           
  7807                           ;mcc_generated_files/ccp4.c: 92:  CCPR4L = 0x00;
  7808  002FA4  0E00               	movlw	0
  7809  002FA6  6E70               	movwf	112,c	;volatile
  7810  002FA8                     
  7811                           ;mcc_generated_files/ccp4.c: 95:     CCP4_SetCallBack(CCP4_DefaultCallBack);
  7812  002FA8  0E50               	movlw	low _CCP4_DefaultCallBack
  7813  002FAA  6E20               	movwf	CCP4_SetCallBack@customCallBack^0,c
  7814  002FAC  0E30               	movlw	high _CCP4_DefaultCallBack
  7815  002FAE  6E21               	movwf	(CCP4_SetCallBack@customCallBack+1)^0,c
  7816  002FB0  EC84  F019         	call	_CCP4_SetCallBack	;wreg free
  7817  002FB4                     
  7818                           ;mcc_generated_files/ccp4.c: 98:  CCPTMRS0bits.C4TSEL = 0x2;
  7819  002FB4  013F               	movlb	63	; () banked
  7820  002FB6  515E               	movf	94,w,b	;volatile
  7821  002FB8  0B3F               	andlw	-193
  7822  002FBA  0980               	iorlw	128
  7823  002FBC  6F5E               	movwf	94,b	;volatile
  7824  002FBE                     
  7825                           ; BSR set to: 63
  7826                           ;mcc_generated_files/ccp4.c: 101:     PIR10bits.CCP4IF = 0;
  7827  002FBE  0139               	movlb	57	; () banked
  7828  002FC0  91AA               	bcf	170,0,b	;volatile
  7829  002FC2                     
  7830                           ; BSR set to: 57
  7831                           ;mcc_generated_files/ccp4.c: 104:     PIE10bits.CCP4IE = 1;
  7832  002FC2  819A               	bsf	154,0,b	;volatile
  7833  002FC4                     
  7834                           ; BSR set to: 57
  7835  002FC4  0012               	return		;funcret
  7836  002FC6                     __end_of_CCP4_Initialize:
  7837                           	callstack 0
  7838                           
  7839 ;; *************** function _CCP4_SetCallBack *****************
  7840 ;; Defined at:
  7841 ;;		line 75 in file "mcc_generated_files/ccp4.c"
  7842 ;; Parameters:    Size  Location     Type
  7843 ;;  customCallBa    2   31[COMRAM] PTR FTN(unsigned short ,
  7844 ;;		 -> CCP4_DefaultCallBack(1), 
  7845 ;; Auto vars:     Size  Location     Type
  7846 ;;		None
  7847 ;; Return value:  Size  Location     Type
  7848 ;;                  1    wreg      void 
  7849 ;; Registers used:
  7850 ;;		wreg, status,2, status,0
  7851 ;; Tracked objects:
  7852 ;;		On entry : 0/0
  7853 ;;		On exit  : 0/0
  7854 ;;		Unchanged: 0/0
  7855 ;; Data sizes:     COMRAM   BANK0   BANK1   BANK2   BANK3   BANK4   BANK5   BANK6   BANK7   BANK8   BANK9  BANK10  BANK1
      +1  BANK12  BANK13  BANK14  BANK15
  7856 ;;      Params:         2       0       0       0       0       0       0       0       0       0       0       0       
      +0       0       0       0       0
  7857 ;;      Locals:         0       0       0       0       0       0       0       0       0       0       0       0       
      +0       0       0       0       0
  7858 ;;      Temps:          0       0       0       0       0       0       0       0       0       0       0       0       
      +0       0       0       0       0
  7859 ;;      Totals:         2       0       0       0       0       0       0       0       0       0       0       0       
      +0       0       0       0       0
  7860 ;;Total ram usage:        2 bytes
  7861 ;; Hardware stack levels used: 1
  7862 ;; Hardware stack levels required when called: 8
  7863 ;; This function calls:
  7864 ;;		Nothing
  7865 ;; This function is called by:
  7866 ;;		_CCP4_Initialize
  7867 ;; This function uses a non-reentrant model
  7868 ;;
  7869                           
  7870                           	psect	text52
  7871  003308                     __ptext52:
  7872                           	callstack 0
  7873  003308                     _CCP4_SetCallBack:
  7874                           	callstack 20
  7875  003308                     
  7876                           ;mcc_generated_files/ccp4.c: 76:     CCP4_CallBack = customCallBack;
  7877  003308  C020  F0EB         	movff	CCP4_SetCallBack@customCallBack,_CCP4_CallBack
  7878  00330C  C021  F0EC         	movff	CCP4_SetCallBack@customCallBack+1,_CCP4_CallBack+1
  7879  003310  0012               	return		;funcret
  7880  003312                     __end_of_CCP4_SetCallBack:
  7881                           	callstack 0
  7882                           
  7883 ;; *************** function _CCP3_Initialize *****************
  7884 ;; Defined at:
  7885 ;;		line 75 in file "mcc_generated_files/ccp3.c"
  7886 ;; Parameters:    Size  Location     Type
  7887 ;;		None
  7888 ;; Auto vars:     Size  Location     Type
  7889 ;;		None
  7890 ;; Return value:  Size  Location     Type
  7891 ;;                  1    wreg      void 
  7892 ;; Registers used:
  7893 ;;		wreg, status,2, status,0, cstack
  7894 ;; Tracked objects:
  7895 ;;		On entry : 0/0
  7896 ;;		On exit  : 0/0
  7897 ;;		Unchanged: 0/0
  7898 ;; Data sizes:     COMRAM   BANK0   BANK1   BANK2   BANK3   BANK4   BANK5   BANK6   BANK7   BANK8   BANK9  BANK10  BANK1
      +1  BANK12  BANK13  BANK14  BANK15
  7899 ;;      Params:         0       0       0       0       0       0       0       0       0       0       0       0       
      +0       0       0       0       0
  7900 ;;      Locals:         0       0       0       0       0       0       0       0       0       0       0       0       
      +0       0       0       0       0
  7901 ;;      Temps:          0       0       0       0       0       0       0       0       0       0       0       0       
      +0       0       0       0       0
  7902 ;;      Totals:         0       0       0       0       0       0       0       0       0       0       0       0       
      +0       0       0       0       0
  7903 ;;Total ram usage:        0 bytes
  7904 ;; Hardware stack levels used: 1
  7905 ;; Hardware stack levels required when called: 9
  7906 ;; This function calls:
  7907 ;;		_CCP3_SetCallBack
  7908 ;; This function is called by:
  7909 ;;		_SYSTEM_Initialize
  7910 ;; This function uses a non-reentrant model
  7911 ;;
  7912                           
  7913                           	psect	text53
  7914  002FC6                     __ptext53:
  7915                           	callstack 0
  7916  002FC6                     _CCP3_Initialize:
  7917                           	callstack 20
  7918  002FC6                     
  7919                           ;mcc_generated_files/ccp3.c: 80:  CCP3CON = 0x83;
  7920  002FC6  0E83               	movlw	131
  7921  002FC8  6E76               	movwf	118,c	;volatile
  7922                           
  7923                           ;mcc_generated_files/ccp3.c: 83:  CCP3CAP = 0x00;
  7924  002FCA  0E00               	movlw	0
  7925  002FCC  6E77               	movwf	119,c	;volatile
  7926                           
  7927                           ;mcc_generated_files/ccp3.c: 86:  CCPR3H = 0x00;
  7928  002FCE  0E00               	movlw	0
  7929  002FD0  6E75               	movwf	117,c	;volatile
  7930                           
  7931                           ;mcc_generated_files/ccp3.c: 89:  CCPR3L = 0x00;
  7932  002FD2  0E00               	movlw	0
  7933  002FD4  6E74               	movwf	116,c	;volatile
  7934  002FD6                     
  7935                           ;mcc_generated_files/ccp3.c: 92:     CCP3_SetCallBack(CCP3_DefaultCallBack);
  7936  002FD6  0E22               	movlw	low _CCP3_DefaultCallBack
  7937  002FD8  6E20               	movwf	CCP3_SetCallBack@customCallBack^0,c
  7938  002FDA  0E30               	movlw	high _CCP3_DefaultCallBack
  7939  002FDC  6E21               	movwf	(CCP3_SetCallBack@customCallBack+1)^0,c
  7940  002FDE  EC89  F019         	call	_CCP3_SetCallBack	;wreg free
  7941  002FE2                     
  7942                           ;mcc_generated_files/ccp3.c: 95:  CCPTMRS0bits.C3TSEL = 0x2;
  7943  002FE2  013F               	movlb	63	; () banked
  7944  002FE4  515E               	movf	94,w,b	;volatile
  7945  002FE6  0BCF               	andlw	-49
  7946  002FE8  0920               	iorlw	32
  7947  002FEA  6F5E               	movwf	94,b	;volatile
  7948  002FEC                     
  7949                           ; BSR set to: 63
  7950                           ;mcc_generated_files/ccp3.c: 98:     PIR9bits.CCP3IF = 0;
  7951  002FEC  0139               	movlb	57	; () banked
  7952  002FEE  93A9               	bcf	169,1,b	;volatile
  7953  002FF0                     
  7954                           ; BSR set to: 57
  7955                           ;mcc_generated_files/ccp3.c: 101:     PIE9bits.CCP3IE = 1;
  7956  002FF0  8399               	bsf	153,1,b	;volatile
  7957  002FF2                     
  7958                           ; BSR set to: 57
  7959  002FF2  0012               	return		;funcret
  7960  002FF4                     __end_of_CCP3_Initialize:
  7961                           	callstack 0
  7962                           
  7963 ;; *************** function _CCP3_SetCallBack *****************
  7964 ;; Defined at:
  7965 ;;		line 119 in file "mcc_generated_files/ccp3.c"
  7966 ;; Parameters:    Size  Location     Type
  7967 ;;  customCallBa    2   31[COMRAM] PTR FTN(unsigned short ,
  7968 ;;		 -> CCP3_DefaultCallBack(1), 
  7969 ;; Auto vars:     Size  Location     Type
  7970 ;;		None
  7971 ;; Return value:  Size  Location     Type
  7972 ;;                  1    wreg      void 
  7973 ;; Registers used:
  7974 ;;		wreg, status,2, status,0
  7975 ;; Tracked objects:
  7976 ;;		On entry : 0/0
  7977 ;;		On exit  : 0/0
  7978 ;;		Unchanged: 0/0
  7979 ;; Data sizes:     COMRAM   BANK0   BANK1   BANK2   BANK3   BANK4   BANK5   BANK6   BANK7   BANK8   BANK9  BANK10  BANK1
      +1  BANK12  BANK13  BANK14  BANK15
  7980 ;;      Params:         2       0       0       0       0       0       0       0       0       0       0       0       
      +0       0       0       0       0
  7981 ;;      Locals:         0       0       0       0       0       0       0       0       0       0       0       0       
      +0       0       0       0       0
  7982 ;;      Temps:          0       0       0       0       0       0       0       0       0       0       0       0       
      +0       0       0       0       0
  7983 ;;      Totals:         2       0       0       0       0       0       0       0       0       0       0       0       
      +0       0       0       0       0
  7984 ;;Total ram usage:        2 bytes
  7985 ;; Hardware stack levels used: 1
  7986 ;; Hardware stack levels required when called: 8
  7987 ;; This function calls:
  7988 ;;		Nothing
  7989 ;; This function is called by:
  7990 ;;		_CCP3_Initialize
  7991 ;; This function uses a non-reentrant model
  7992 ;;
  7993                           
  7994                           	psect	text54
  7995  003312                     __ptext54:
  7996                           	callstack 0
  7997  003312                     _CCP3_SetCallBack:
  7998                           	callstack 20
  7999  003312                     
  8000                           ;mcc_generated_files/ccp3.c: 120:     CCP3_CallBack = customCallBack;
  8001  003312  C020  F0ED         	movff	CCP3_SetCallBack@customCallBack,_CCP3_CallBack
  8002  003316  C021  F0EE         	movff	CCP3_SetCallBack@customCallBack+1,_CCP3_CallBack+1
  8003  00331A  0012               	return		;funcret
  8004  00331C                     __end_of_CCP3_SetCallBack:
  8005                           	callstack 0
  8006                           
  8007 ;; *************** function _ADCC_Initialize *****************
  8008 ;; Defined at:
  8009 ;;		line 62 in file "mcc_generated_files/adcc.c"
  8010 ;; Parameters:    Size  Location     Type
  8011 ;;		None
  8012 ;; Auto vars:     Size  Location     Type
  8013 ;;		None
  8014 ;; Return value:  Size  Location     Type
  8015 ;;                  1    wreg      void 
  8016 ;; Registers used:
  8017 ;;		wreg, status,2
  8018 ;; Tracked objects:
  8019 ;;		On entry : 0/0
  8020 ;;		On exit  : 0/0
  8021 ;;		Unchanged: 0/0
  8022 ;; Data sizes:     COMRAM   BANK0   BANK1   BANK2   BANK3   BANK4   BANK5   BANK6   BANK7   BANK8   BANK9  BANK10  BANK1
      +1  BANK12  BANK13  BANK14  BANK15
  8023 ;;      Params:         0       0       0       0       0       0       0       0       0       0       0       0       
      +0       0       0       0       0
  8024 ;;      Locals:         0       0       0       0       0       0       0       0       0       0       0       0       
      +0       0       0       0       0
  8025 ;;      Temps:          0       0       0       0       0       0       0       0       0       0       0       0       
      +0       0       0       0       0
  8026 ;;      Totals:         0       0       0       0       0       0       0       0       0       0       0       0       
      +0       0       0       0       0
  8027 ;;Total ram usage:        0 bytes
  8028 ;; Hardware stack levels used: 1
  8029 ;; Hardware stack levels required when called: 8
  8030 ;; This function calls:
  8031 ;;		Nothing
  8032 ;; This function is called by:
  8033 ;;		_SYSTEM_Initialize
  8034 ;; This function uses a non-reentrant model
  8035 ;;
  8036                           
  8037                           	psect	text55
  8038  002988                     __ptext55:
  8039                           	callstack 0
  8040  002988                     _ADCC_Initialize:
  8041                           	callstack 21
  8042  002988                     
  8043                           ;mcc_generated_files/adcc.c: 66:     ADLTHL = 0x00;
  8044  002988  0E00               	movlw	0
  8045  00298A  013E               	movlb	62	; () banked
  8046  00298C  6FDE               	movwf	222,b	;volatile
  8047                           
  8048                           ;mcc_generated_files/adcc.c: 68:     ADLTHH = 0x00;
  8049  00298E  0E00               	movlw	0
  8050  002990  6FDF               	movwf	223,b	;volatile
  8051                           
  8052                           ;mcc_generated_files/adcc.c: 70:     ADUTHL = 0x00;
  8053  002992  0E00               	movlw	0
  8054  002994  6FE0               	movwf	224,b	;volatile
  8055                           
  8056                           ;mcc_generated_files/adcc.c: 72:     ADUTHH = 0x00;
  8057  002996  0E00               	movlw	0
  8058  002998  6FE1               	movwf	225,b	;volatile
  8059                           
  8060                           ;mcc_generated_files/adcc.c: 74:     ADSTPTL = 0x00;
  8061  00299A  0E00               	movlw	0
  8062  00299C  6FE4               	movwf	228,b	;volatile
  8063                           
  8064                           ;mcc_generated_files/adcc.c: 76:     ADSTPTH = 0x00;
  8065  00299E  0E00               	movlw	0
  8066  0029A0  6FE5               	movwf	229,b	;volatile
  8067                           
  8068                           ;mcc_generated_files/adcc.c: 78:     ADACCU = 0x00;
  8069  0029A2  0E00               	movlw	0
  8070  0029A4  6FEA               	movwf	234,b	;volatile
  8071                           
  8072                           ;mcc_generated_files/adcc.c: 80:     ADRPT = 0x00;
  8073  0029A6  0E00               	movlw	0
  8074  0029A8  6FEC               	movwf	236,b	;volatile
  8075                           
  8076                           ;mcc_generated_files/adcc.c: 82:     ADPCH = 0x00;
  8077  0029AA  0E00               	movlw	0
  8078  0029AC  6FF1               	movwf	241,b	;volatile
  8079                           
  8080                           ;mcc_generated_files/adcc.c: 84:     ADACQL = 0x58;
  8081  0029AE  0E58               	movlw	88
  8082  0029B0  6FF3               	movwf	243,b	;volatile
  8083                           
  8084                           ;mcc_generated_files/adcc.c: 86:     ADACQH = 0x02;
  8085  0029B2  0E02               	movlw	2
  8086  0029B4  6FF4               	movwf	244,b	;volatile
  8087                           
  8088                           ;mcc_generated_files/adcc.c: 88:     ADCAP = 0x00;
  8089  0029B6  0E00               	movlw	0
  8090  0029B8  6FF5               	movwf	245,b	;volatile
  8091                           
  8092                           ;mcc_generated_files/adcc.c: 90:     ADPREL = 0x00;
  8093  0029BA  0E00               	movlw	0
  8094  0029BC  6FF6               	movwf	246,b	;volatile
  8095                           
  8096                           ;mcc_generated_files/adcc.c: 92:     ADPREH = 0x00;
  8097  0029BE  0E00               	movlw	0
  8098  0029C0  6FF7               	movwf	247,b	;volatile
  8099                           
  8100                           ;mcc_generated_files/adcc.c: 94:     ADCON1 = 0x00;
  8101  0029C2  0E00               	movlw	0
  8102  0029C4  6FF9               	movwf	249,b	;volatile
  8103                           
  8104                           ;mcc_generated_files/adcc.c: 96:     ADCON2 = 0x00;
  8105  0029C6  0E00               	movlw	0
  8106  0029C8  6FFA               	movwf	250,b	;volatile
  8107                           
  8108                           ;mcc_generated_files/adcc.c: 98:     ADCON3 = 0x00;
  8109  0029CA  0E00               	movlw	0
  8110  0029CC  6FFB               	movwf	251,b	;volatile
  8111                           
  8112                           ;mcc_generated_files/adcc.c: 100:     ADSTAT = 0x00;
  8113  0029CE  0E00               	movlw	0
  8114  0029D0  6FFC               	movwf	252,b	;volatile
  8115                           
  8116                           ;mcc_generated_files/adcc.c: 102:     ADREF = 0x00;
  8117  0029D2  0E00               	movlw	0
  8118  0029D4  6FFD               	movwf	253,b	;volatile
  8119                           
  8120                           ;mcc_generated_files/adcc.c: 104:     ADACT = 0x00;
  8121  0029D6  0E00               	movlw	0
  8122  0029D8  6FFE               	movwf	254,b	;volatile
  8123                           
  8124                           ;mcc_generated_files/adcc.c: 106:     ADCLK = 0x1F;
  8125  0029DA  0E1F               	movlw	31
  8126  0029DC  6FFF               	movwf	255,b	;volatile
  8127                           
  8128                           ;mcc_generated_files/adcc.c: 108:     ADCON0 = 0x84;
  8129  0029DE  0E84               	movlw	132
  8130  0029E0  6FF8               	movwf	248,b	;volatile
  8131  0029E2                     
  8132                           ; BSR set to: 62
  8133  0029E2  0012               	return		;funcret
  8134  0029E4                     __end_of_ADCC_Initialize:
  8135                           	callstack 0
  8136                           
  8137 ;; *************** function _UART1_tx_vect_isr *****************
  8138 ;; Defined at:
  8139 ;;		line 235 in file "mcc_generated_files/uart1.c"
  8140 ;; Parameters:    Size  Location     Type
  8141 ;;		None
  8142 ;; Auto vars:     Size  Location     Type
  8143 ;;		None
  8144 ;; Return value:  Size  Location     Type
  8145 ;;                  1    wreg      void 
  8146 ;; Registers used:
  8147 ;;		wreg, fsr2l, fsr2h, status,2, status,0, pcl, pclath, pclatu, tosl, cstack
  8148 ;; Tracked objects:
  8149 ;;		On entry : 0/0
  8150 ;;		On exit  : 0/0
  8151 ;;		Unchanged: 0/0
  8152 ;; Data sizes:     COMRAM   BANK0   BANK1   BANK2   BANK3   BANK4   BANK5   BANK6   BANK7   BANK8   BANK9  BANK10  BANK1
      +1  BANK12  BANK13  BANK14  BANK15
  8153 ;;      Params:         0       0       0       0       0       0       0       0       0       0       0       0       
      +0       0       0       0       0
  8154 ;;      Locals:         0       0       0       0       0       0       0       0       0       0       0       0       
      +0       0       0       0       0
  8155 ;;      Temps:          3       0       0       0       0       0       0       0       0       0       0       0       
      +0       0       0       0       0
  8156 ;;      Totals:         3       0       0       0       0       0       0       0       0       0       0       0       
      +0       0       0       0       0
  8157 ;;Total ram usage:        3 bytes
  8158 ;; Hardware stack levels used: 1
  8159 ;; Hardware stack levels required when called: 5
  8160 ;; This function calls:
  8161 ;;		Absolute function
  8162 ;;		_UART1_Transmit_ISR
  8163 ;; This function is called by:
  8164 ;;		Interrupt level 1
  8165 ;; This function uses a non-reentrant model
  8166 ;;
  8167                           
  8168                           	psect	text56
  8169  002A38                     __ptext56:
  8170                           	callstack 0
  8171  002A38                     _UART1_tx_vect_isr:
  8172                           	callstack 14
  8173                           
  8174                           ; BSR set to: 62
  8175                           ;incstack = 0
  8176  002A38  006F FF60  F017    	movff	status,??_UART1_tx_vect_isr
  8177  002A3E  006F FFE8  F018    	movff	pclath,??_UART1_tx_vect_isr+1
  8178  002A44  006F FFEC  F019    	movff	pclatu,??_UART1_tx_vect_isr+2
  8179  002A4A                     
  8180                           ;mcc_generated_files/uart1.c: 237:     if(UART1_TxInterruptHandler)
  8181  002A4A  0100               	movlb	0	; () banked
  8182  002A4C  51F5               	movf	_UART1_TxInterruptHandler& (0+255),w,b
  8183  002A4E  11F6               	iorwf	(_UART1_TxInterruptHandler+1)& (0+255),w,b
  8184  002A50  B4D8               	btfsc	status,2,c
  8185  002A52  EF2D  F015         	goto	i1u283_21
  8186  002A56  EF2F  F015         	goto	i1u283_20
  8187  002A5A                     i1u283_21:
  8188  002A5A  EF3B  F015         	goto	i1l324
  8189  002A5E                     i1u283_20:
  8190  002A5E                     
  8191                           ; BSR set to: 0
  8192                           ;mcc_generated_files/uart1.c: 238:     {;mcc_generated_files/uart1.c: 239:         UART1
      +                          _TxInterruptHandler();
  8193  002A5E  D802               	call	i1u284_28
  8194  002A60  EF3B  F015         	goto	i1u284_29
  8195  002A64                     i1u284_28:
  8196  002A64  0005               	push	
  8197  002A66  6EFA               	movwf	pclath,c
  8198  002A68  51F5               	movf	_UART1_TxInterruptHandler& (0+255),w,b
  8199  002A6A  6EFD               	movwf	tosl,c
  8200  002A6C  51F6               	movf	(_UART1_TxInterruptHandler+1)& (0+255),w,b
  8201  002A6E  6EFE               	movwf	tosh,c
  8202  002A70  6AFF               	clrf	tosu,c
  8203  002A72  50FA               	movf	pclath,w,c
  8204  002A74  0012               	return		;indir
  8205  002A76                     i1u284_29:
  8206  002A76                     i1l324:
  8207  002A76  0060  F067  FFFB   	movff	??_UART1_tx_vect_isr+2,pclatu
  8208  002A7C  0060  F063  FFFA   	movff	??_UART1_tx_vect_isr+1,pclath
  8209  002A82  0060  F05F  FFD8   	movff	??_UART1_tx_vect_isr,status
  8210  002A88  0011               	retfie		f
  8211  002A8A                     __end_of_UART1_tx_vect_isr:
  8212                           	callstack 0
  8213                           
  8214 ;; *************** function _UART1_Transmit_ISR *****************
  8215 ;; Defined at:
  8216 ;;		line 253 in file "mcc_generated_files/uart1.c"
  8217 ;; Parameters:    Size  Location     Type
  8218 ;;		None
  8219 ;; Auto vars:     Size  Location     Type
  8220 ;;		None
  8221 ;; Return value:  Size  Location     Type
  8222 ;;                  1    wreg      void 
  8223 ;; Registers used:
  8224 ;;		wreg, fsr2l, fsr2h, status,2, status,0
  8225 ;; Tracked objects:
  8226 ;;		On entry : 0/0
  8227 ;;		On exit  : 0/0
  8228 ;;		Unchanged: 0/0
  8229 ;; Data sizes:     COMRAM   BANK0   BANK1   BANK2   BANK3   BANK4   BANK5   BANK6   BANK7   BANK8   BANK9  BANK10  BANK1
      +1  BANK12  BANK13  BANK14  BANK15
  8230 ;;      Params:         0       0       0       0       0       0       0       0       0       0       0       0       
      +0       0       0       0       0
  8231 ;;      Locals:         0       0       0       0       0       0       0       0       0       0       0       0       
      +0       0       0       0       0
  8232 ;;      Temps:          0       0       0       0       0       0       0       0       0       0       0       0       
      +0       0       0       0       0
  8233 ;;      Totals:         0       0       0       0       0       0       0       0       0       0       0       0       
      +0       0       0       0       0
  8234 ;;Total ram usage:        0 bytes
  8235 ;; Hardware stack levels used: 1
  8236 ;; Hardware stack levels required when called: 4
  8237 ;; This function calls:
  8238 ;;		Nothing
  8239 ;; This function is called by:
  8240 ;;		_UART1_Initialize
  8241 ;;		_UART1_tx_vect_isr
  8242 ;; This function uses a non-reentrant model
  8243 ;;
  8244                           
  8245                           	psect	text57
  8246  002DC6                     __ptext57:
  8247                           	callstack 0
  8248  002DC6                     _UART1_Transmit_ISR:
  8249                           	callstack 14
  8250  002DC6                     
  8251                           ;mcc_generated_files/uart1.c: 256:     if(sizeof(uart1TxBuffer) > uart1TxBufferRemaining
      +                          )
  8252  002DC6  0E08               	movlw	8
  8253  002DC8  603F               	cpfslt	_uart1TxBufferRemaining^0,c	;volatile
  8254  002DCA  EFE9  F016         	goto	i1u268_21
  8255  002DCE  EFEB  F016         	goto	i1u268_20
  8256  002DD2                     i1u268_21:
  8257  002DD2  EF02  F017         	goto	i1l333
  8258  002DD6                     i1u268_20:
  8259  002DD6                     
  8260                           ;mcc_generated_files/uart1.c: 257:     {;mcc_generated_files/uart1.c: 258:         U1TXB
      +                           = uart1TxBuffer[uart1TxTail++];
  8261  002DD6  0EC0               	movlw	low _uart1TxBuffer
  8262  002DD8  2437               	addwf	_uart1TxTail^0,w,c	;volatile
  8263  002DDA  6ED9               	movwf	fsr2l,c
  8264  002DDC  6ADA               	clrf	fsr2h,c
  8265  002DDE  0E00               	movlw	high _uart1TxBuffer
  8266  002DE0  22DA               	addwfc	fsr2h,f,c
  8267  002DE2  50DF               	movf	indf2,w,c
  8268  002DE4  013D               	movlb	61	; () banked
  8269  002DE6  6FEA               	movwf	234,b	;volatile
  8270  002DE8                     
  8271                           ; BSR set to: 61
  8272  002DE8  2A37               	incf	_uart1TxTail^0,f,c	;volatile
  8273  002DEA                     
  8274                           ; BSR set to: 61
  8275                           ;mcc_generated_files/uart1.c: 259:        if(sizeof(uart1TxBuffer) <= uart1TxTail)
  8276  002DEA  0E07               	movlw	7
  8277  002DEC  6437               	cpfsgt	_uart1TxTail^0,c	;volatile
  8278  002DEE  EFFB  F016         	goto	i1u269_21
  8279  002DF2  EFFD  F016         	goto	i1u269_20
  8280  002DF6                     i1u269_21:
  8281  002DF6  EFFF  F016         	goto	i1l4392
  8282  002DFA                     i1u269_20:
  8283  002DFA                     
  8284                           ; BSR set to: 61
  8285                           ;mcc_generated_files/uart1.c: 260:         {;mcc_generated_files/uart1.c: 261:          
      +                             uart1TxTail = 0;
  8286  002DFA  0E00               	movlw	0
  8287  002DFC  6E37               	movwf	_uart1TxTail^0,c	;volatile
  8288  002DFE                     i1l4392:
  8289                           
  8290                           ; BSR set to: 61
  8291                           ;mcc_generated_files/uart1.c: 263:         uart1TxBufferRemaining++;
  8292  002DFE  2A3F               	incf	_uart1TxBufferRemaining^0,f,c	;volatile
  8293                           
  8294                           ;mcc_generated_files/uart1.c: 264:     }
  8295  002E00  EF04  F017         	goto	i1l336
  8296  002E04                     i1l333:
  8297                           
  8298                           ;mcc_generated_files/uart1.c: 266:     {;mcc_generated_files/uart1.c: 267:         PIE3b
      +                          its.U1TXIE = 0;
  8299  002E04  0139               	movlb	57	; () banked
  8300  002E06  9993               	bcf	147,4,b	;volatile
  8301  002E08                     i1l336:
  8302  002E08  0012               	return		;funcret
  8303  002E0A                     __end_of_UART1_Transmit_ISR:
  8304                           	callstack 0
  8305                           
  8306 ;; *************** function _UART1_rx_vect_isr *****************
  8307 ;; Defined at:
  8308 ;;		line 243 in file "mcc_generated_files/uart1.c"
  8309 ;; Parameters:    Size  Location     Type
  8310 ;;		None
  8311 ;; Auto vars:     Size  Location     Type
  8312 ;;		None
  8313 ;; Return value:  Size  Location     Type
  8314 ;;                  1    wreg      void 
  8315 ;; Registers used:
  8316 ;;		wreg, fsr2l, fsr2h, status,2, status,0, pcl, pclath, pclatu, tosl, cstack
  8317 ;; Tracked objects:
  8318 ;;		On entry : 0/0
  8319 ;;		On exit  : 0/0
  8320 ;;		Unchanged: 0/0
  8321 ;; Data sizes:     COMRAM   BANK0   BANK1   BANK2   BANK3   BANK4   BANK5   BANK6   BANK7   BANK8   BANK9  BANK10  BANK1
      +1  BANK12  BANK13  BANK14  BANK15
  8322 ;;      Params:         0       0       0       0       0       0       0       0       0       0       0       0       
      +0       0       0       0       0
  8323 ;;      Locals:         0       0       0       0       0       0       0       0       0       0       0       0       
      +0       0       0       0       0
  8324 ;;      Temps:          3       0       0       0       0       0       0       0       0       0       0       0       
      +0       0       0       0       0
  8325 ;;      Totals:         3       0       0       0       0       0       0       0       0       0       0       0       
      +0       0       0       0       0
  8326 ;;Total ram usage:        3 bytes
  8327 ;; Hardware stack levels used: 1
  8328 ;; Hardware stack levels required when called: 7
  8329 ;; This function calls:
  8330 ;;		Absolute function
  8331 ;;		_UART1_Receive_ISR
  8332 ;; This function is called by:
  8333 ;;		Interrupt level 1
  8334 ;; This function uses a non-reentrant model
  8335 ;;
  8336                           
  8337                           	psect	text58
  8338  002A8C                     __ptext58:
  8339                           	callstack 0
  8340  002A8C                     _UART1_rx_vect_isr:
  8341                           	callstack 12
  8342                           
  8343                           ;incstack = 0
  8344  002A8C  006F FF60  F01A    	movff	status,??_UART1_rx_vect_isr
  8345  002A92  006F FFE8  F01B    	movff	pclath,??_UART1_rx_vect_isr+1
  8346  002A98  006F FFEC  F01C    	movff	pclatu,??_UART1_rx_vect_isr+2
  8347  002A9E                     
  8348                           ;mcc_generated_files/uart1.c: 245:     if(UART1_RxInterruptHandler)
  8349  002A9E  503D               	movf	_UART1_RxInterruptHandler^0,w,c
  8350  002AA0  103E               	iorwf	(_UART1_RxInterruptHandler+1)^0,w,c
  8351  002AA2  B4D8               	btfsc	status,2,c
  8352  002AA4  EF56  F015         	goto	i1u285_21
  8353  002AA8  EF58  F015         	goto	i1u285_20
  8354  002AAC                     i1u285_21:
  8355  002AAC  EF64  F015         	goto	i1l330
  8356  002AB0                     i1u285_20:
  8357  002AB0                     
  8358                           ;mcc_generated_files/uart1.c: 246:     {;mcc_generated_files/uart1.c: 247:         UART1
      +                          _RxInterruptHandler();
  8359  002AB0  D802               	call	i1u286_28
  8360  002AB2  EF64  F015         	goto	i1u286_29
  8361  002AB6                     i1u286_28:
  8362  002AB6  0005               	push	
  8363  002AB8  6EFA               	movwf	pclath,c
  8364  002ABA  503D               	movf	_UART1_RxInterruptHandler^0,w,c
  8365  002ABC  6EFD               	movwf	tosl,c
  8366  002ABE  503E               	movf	(_UART1_RxInterruptHandler+1)^0,w,c
  8367  002AC0  6EFE               	movwf	tosh,c
  8368  002AC2  6AFF               	clrf	tosu,c
  8369  002AC4  50FA               	movf	pclath,w,c
  8370  002AC6  0012               	return		;indir
  8371  002AC8                     i1u286_29:
  8372  002AC8                     i1l330:
  8373  002AC8  0060  F073  FFFB   	movff	??_UART1_rx_vect_isr+2,pclatu
  8374  002ACE  0060  F06F  FFFA   	movff	??_UART1_rx_vect_isr+1,pclath
  8375  002AD4  0060  F06B  FFD8   	movff	??_UART1_rx_vect_isr,status
  8376  002ADA  0011               	retfie		f
  8377  002ADC                     __end_of_UART1_rx_vect_isr:
  8378                           	callstack 0
  8379                           
  8380 ;; *************** function _UART1_Receive_ISR *****************
  8381 ;; Defined at:
  8382 ;;		line 273 in file "mcc_generated_files/uart1.c"
  8383 ;; Parameters:    Size  Location     Type
  8384 ;;		None
  8385 ;; Auto vars:     Size  Location     Type
  8386 ;;		None
  8387 ;; Return value:  Size  Location     Type
  8388 ;;                  1    wreg      void 
  8389 ;; Registers used:
  8390 ;;		wreg, fsr2l, fsr2h, status,2, status,0, pcl, pclath, pclatu, tosl, cstack
  8391 ;; Tracked objects:
  8392 ;;		On entry : 0/0
  8393 ;;		On exit  : 0/0
  8394 ;;		Unchanged: 0/0
  8395 ;; Data sizes:     COMRAM   BANK0   BANK1   BANK2   BANK3   BANK4   BANK5   BANK6   BANK7   BANK8   BANK9  BANK10  BANK1
      +1  BANK12  BANK13  BANK14  BANK15
  8396 ;;      Params:         0       0       0       0       0       0       0       0       0       0       0       0       
      +0       0       0       0       0
  8397 ;;      Locals:         0       0       0       0       0       0       0       0       0       0       0       0       
      +0       0       0       0       0
  8398 ;;      Temps:          0       0       0       0       0       0       0       0       0       0       0       0       
      +0       0       0       0       0
  8399 ;;      Totals:         0       0       0       0       0       0       0       0       0       0       0       0       
      +0       0       0       0       0
  8400 ;;Total ram usage:        0 bytes
  8401 ;; Hardware stack levels used: 1
  8402 ;; Hardware stack levels required when called: 6
  8403 ;; This function calls:
  8404 ;;		Absolute function
  8405 ;;		_UART1_DefaultErrorHandler
  8406 ;;		_UART1_DefaultFramingErrorHandler
  8407 ;;		_UART1_DefaultOverrunErrorHandler
  8408 ;;		_UART1_RxDataHandler
  8409 ;; This function is called by:
  8410 ;;		_UART1_Initialize
  8411 ;;		_UART1_rx_vect_isr
  8412 ;; This function uses a non-reentrant model
  8413 ;;
  8414                           
  8415                           	psect	text59
  8416  00255C                     __ptext59:
  8417                           	callstack 0
  8418  00255C                     _UART1_Receive_ISR:
  8419                           	callstack 12
  8420  00255C                     
  8421                           ;mcc_generated_files/uart1.c: 276:     uart1RxStatusBuffer[uart1RxHead].status = 0;
  8422  00255C  0EB0               	movlw	low _uart1RxStatusBuffer
  8423  00255E  2436               	addwf	_uart1RxHead^0,w,c	;volatile
  8424  002560  6ED9               	movwf	fsr2l,c
  8425  002562  6ADA               	clrf	fsr2h,c
  8426  002564  0E00               	movlw	high _uart1RxStatusBuffer
  8427  002566  22DA               	addwfc	fsr2h,f,c
  8428  002568  0E00               	movlw	0
  8429  00256A  6EDF               	movwf	indf2,c
  8430  00256C                     
  8431                           ;mcc_generated_files/uart1.c: 278:     if(U1ERRIRbits.FERIF){
  8432  00256C  013D               	movlb	61	; () banked
  8433  00256E  A7F9               	btfss	249,3,b	;volatile
  8434  002570  EFBC  F012         	goto	i1u270_21
  8435  002574  EFBE  F012         	goto	i1u270_20
  8436  002578                     i1u270_21:
  8437  002578  EFD2  F012         	goto	i1l4402
  8438  00257C                     i1u270_20:
  8439  00257C                     
  8440                           ; BSR set to: 61
  8441                           ;mcc_generated_files/uart1.c: 279:         uart1RxStatusBuffer[uart1RxHead].ferr = 1;
  8442  00257C  0EB0               	movlw	low _uart1RxStatusBuffer
  8443  00257E  2436               	addwf	_uart1RxHead^0,w,c	;volatile
  8444  002580  6ED9               	movwf	fsr2l,c
  8445  002582  6ADA               	clrf	fsr2h,c
  8446  002584  0E00               	movlw	high _uart1RxStatusBuffer
  8447  002586  22DA               	addwfc	fsr2h,f,c
  8448  002588  0100               	movlb	0	; () banked
  8449  00258A  82DF               	bsf	indf2,1,c
  8450  00258C                     
  8451                           ; BSR set to: 0
  8452                           ;mcc_generated_files/uart1.c: 280:         UART1_FramingErrorHandler();
  8453  00258C  D802               	call	i1u271_28
  8454  00258E  EFD2  F012         	goto	i1u271_29
  8455  002592                     i1u271_28:
  8456  002592  0005               	push	
  8457  002594  6EFA               	movwf	pclath,c
  8458  002596  51F3               	movf	_UART1_FramingErrorHandler& (0+255),w,b
  8459  002598  6EFD               	movwf	tosl,c
  8460  00259A  51F4               	movf	(_UART1_FramingErrorHandler+1)& (0+255),w,b
  8461  00259C  6EFE               	movwf	tosh,c
  8462  00259E  6AFF               	clrf	tosu,c
  8463  0025A0  50FA               	movf	pclath,w,c
  8464  0025A2  0012               	return		;indir
  8465  0025A4                     i1u271_29:
  8466  0025A4                     i1l4402:
  8467                           
  8468                           ;mcc_generated_files/uart1.c: 283:     if(U1ERRIRbits.RXFOIF){
  8469  0025A4  013D               	movlb	61	; () banked
  8470  0025A6  A3F9               	btfss	249,1,b	;volatile
  8471  0025A8  EFD8  F012         	goto	i1u272_21
  8472  0025AC  EFDA  F012         	goto	i1u272_20
  8473  0025B0                     i1u272_21:
  8474  0025B0  EFEE  F012         	goto	i1l4408
  8475  0025B4                     i1u272_20:
  8476  0025B4                     
  8477                           ; BSR set to: 61
  8478                           ;mcc_generated_files/uart1.c: 284:         uart1RxStatusBuffer[uart1RxHead].oerr = 1;
  8479  0025B4  0EB0               	movlw	low _uart1RxStatusBuffer
  8480  0025B6  2436               	addwf	_uart1RxHead^0,w,c	;volatile
  8481  0025B8  6ED9               	movwf	fsr2l,c
  8482  0025BA  6ADA               	clrf	fsr2h,c
  8483  0025BC  0E00               	movlw	high _uart1RxStatusBuffer
  8484  0025BE  22DA               	addwfc	fsr2h,f,c
  8485  0025C0  0100               	movlb	0	; () banked
  8486  0025C2  84DF               	bsf	indf2,2,c
  8487  0025C4                     
  8488                           ; BSR set to: 0
  8489                           ;mcc_generated_files/uart1.c: 285:         UART1_OverrunErrorHandler();
  8490  0025C4  D802               	call	i1u273_28
  8491  0025C6  EFEE  F012         	goto	i1u273_29
  8492  0025CA                     i1u273_28:
  8493  0025CA  0005               	push	
  8494  0025CC  6EFA               	movwf	pclath,c
  8495  0025CE  51F1               	movf	_UART1_OverrunErrorHandler& (0+255),w,b
  8496  0025D0  6EFD               	movwf	tosl,c
  8497  0025D2  51F2               	movf	(_UART1_OverrunErrorHandler+1)& (0+255),w,b
  8498  0025D4  6EFE               	movwf	tosh,c
  8499  0025D6  6AFF               	clrf	tosu,c
  8500  0025D8  50FA               	movf	pclath,w,c
  8501  0025DA  0012               	return		;indir
  8502  0025DC                     i1u273_29:
  8503  0025DC                     i1l4408:
  8504                           
  8505                           ;mcc_generated_files/uart1.c: 288:     if(uart1RxStatusBuffer[uart1RxHead].status){
  8506  0025DC  0EB0               	movlw	low _uart1RxStatusBuffer
  8507  0025DE  2436               	addwf	_uart1RxHead^0,w,c	;volatile
  8508  0025E0  6ED9               	movwf	fsr2l,c
  8509  0025E2  6ADA               	clrf	fsr2h,c
  8510  0025E4  0E00               	movlw	high _uart1RxStatusBuffer
  8511  0025E6  22DA               	addwfc	fsr2h,f,c
  8512  0025E8  50DF               	movf	indf2,w,c
  8513  0025EA  B4D8               	btfsc	status,2,c
  8514  0025EC  EFFA  F012         	goto	i1u274_21
  8515  0025F0  EFFC  F012         	goto	i1u274_20
  8516  0025F4                     i1u274_21:
  8517  0025F4  EF0B  F013         	goto	i1l4412
  8518  0025F8                     i1u274_20:
  8519  0025F8                     
  8520                           ;mcc_generated_files/uart1.c: 289:         UART1_ErrorHandler();
  8521  0025F8  D802               	call	i1u275_28
  8522  0025FA  EF09  F013         	goto	i1u275_29
  8523  0025FE                     i1u275_28:
  8524  0025FE  0005               	push	
  8525  002600  6EFA               	movwf	pclath,c
  8526  002602  0100               	movlb	0	; () banked
  8527  002604  51EF               	movf	_UART1_ErrorHandler& (0+255),w,b
  8528  002606  6EFD               	movwf	tosl,c
  8529  002608  51F0               	movf	(_UART1_ErrorHandler+1)& (0+255),w,b
  8530  00260A  6EFE               	movwf	tosh,c
  8531  00260C  6AFF               	clrf	tosu,c
  8532  00260E  50FA               	movf	pclath,w,c
  8533  002610  0012               	return		;indir
  8534  002612                     i1u275_29:
  8535                           
  8536                           ;mcc_generated_files/uart1.c: 290:     } else {
  8537  002612  EF0D  F013         	goto	i1l343
  8538  002616                     i1l4412:
  8539                           
  8540                           ;mcc_generated_files/uart1.c: 291:         UART1_RxDataHandler();
  8541  002616  EC6B  F018         	call	_UART1_RxDataHandler	;wreg free
  8542  00261A                     i1l343:
  8543  00261A  0012               	return		;funcret
  8544  00261C                     __end_of_UART1_Receive_ISR:
  8545                           	callstack 0
  8546                           
  8547 ;; *************** function _UART1_DefaultOverrunErrorHandler *****************
  8548 ;; Defined at:
  8549 ;;		line 309 in file "mcc_generated_files/uart1.c"
  8550 ;; Parameters:    Size  Location     Type
  8551 ;;		None
  8552 ;; Auto vars:     Size  Location     Type
  8553 ;;		None
  8554 ;; Return value:  Size  Location     Type
  8555 ;;                  1    wreg      void 
  8556 ;; Registers used:
  8557 ;;		None
  8558 ;; Tracked objects:
  8559 ;;		On entry : 0/0
  8560 ;;		On exit  : 0/0
  8561 ;;		Unchanged: 0/0
  8562 ;; Data sizes:     COMRAM   BANK0   BANK1   BANK2   BANK3   BANK4   BANK5   BANK6   BANK7   BANK8   BANK9  BANK10  BANK1
      +1  BANK12  BANK13  BANK14  BANK15
  8563 ;;      Params:         0       0       0       0       0       0       0       0       0       0       0       0       
      +0       0       0       0       0
  8564 ;;      Locals:         0       0       0       0       0       0       0       0       0       0       0       0       
      +0       0       0       0       0
  8565 ;;      Temps:          0       0       0       0       0       0       0       0       0       0       0       0       
      +0       0       0       0       0
  8566 ;;      Totals:         0       0       0       0       0       0       0       0       0       0       0       0       
      +0       0       0       0       0
  8567 ;;Total ram usage:        0 bytes
  8568 ;; Hardware stack levels used: 1
  8569 ;; Hardware stack levels required when called: 4
  8570 ;; This function calls:
  8571 ;;		Nothing
  8572 ;; This function is called by:
  8573 ;;		_UART1_Initialize
  8574 ;;		_UART1_Receive_ISR
  8575 ;; This function uses a non-reentrant model
  8576 ;;
  8577                           
  8578                           	psect	text60
  8579  003330                     __ptext60:
  8580                           	callstack 0
  8581  003330                     _UART1_DefaultOverrunErrorHandler:
  8582                           	callstack 13
  8583  003330  0012               	return		;funcret
  8584  003332                     __end_of_UART1_DefaultOverrunErrorHandler:
  8585                           	callstack 0
  8586                           
  8587 ;; *************** function _UART1_DefaultFramingErrorHandler *****************
  8588 ;; Defined at:
  8589 ;;		line 307 in file "mcc_generated_files/uart1.c"
  8590 ;; Parameters:    Size  Location     Type
  8591 ;;		None
  8592 ;; Auto vars:     Size  Location     Type
  8593 ;;		None
  8594 ;; Return value:  Size  Location     Type
  8595 ;;                  1    wreg      void 
  8596 ;; Registers used:
  8597 ;;		None
  8598 ;; Tracked objects:
  8599 ;;		On entry : 0/0
  8600 ;;		On exit  : 0/0
  8601 ;;		Unchanged: 0/0
  8602 ;; Data sizes:     COMRAM   BANK0   BANK1   BANK2   BANK3   BANK4   BANK5   BANK6   BANK7   BANK8   BANK9  BANK10  BANK1
      +1  BANK12  BANK13  BANK14  BANK15
  8603 ;;      Params:         0       0       0       0       0       0       0       0       0       0       0       0       
      +0       0       0       0       0
  8604 ;;      Locals:         0       0       0       0       0       0       0       0       0       0       0       0       
      +0       0       0       0       0
  8605 ;;      Temps:          0       0       0       0       0       0       0       0       0       0       0       0       
      +0       0       0       0       0
  8606 ;;      Totals:         0       0       0       0       0       0       0       0       0       0       0       0       
      +0       0       0       0       0
  8607 ;;Total ram usage:        0 bytes
  8608 ;; Hardware stack levels used: 1
  8609 ;; Hardware stack levels required when called: 4
  8610 ;; This function calls:
  8611 ;;		Nothing
  8612 ;; This function is called by:
  8613 ;;		_UART1_Initialize
  8614 ;;		_UART1_Receive_ISR
  8615 ;; This function uses a non-reentrant model
  8616 ;;
  8617                           
  8618                           	psect	text61
  8619  003332                     __ptext61:
  8620                           	callstack 0
  8621  003332                     _UART1_DefaultFramingErrorHandler:
  8622                           	callstack 13
  8623  003332  0012               	return		;funcret
  8624  003334                     __end_of_UART1_DefaultFramingErrorHandler:
  8625                           	callstack 0
  8626                           
  8627 ;; *************** function _UART1_DefaultErrorHandler *****************
  8628 ;; Defined at:
  8629 ;;		line 311 in file "mcc_generated_files/uart1.c"
  8630 ;; Parameters:    Size  Location     Type
  8631 ;;		None
  8632 ;; Auto vars:     Size  Location     Type
  8633 ;;		None
  8634 ;; Return value:  Size  Location     Type
  8635 ;;                  1    wreg      void 
  8636 ;; Registers used:
  8637 ;;		wreg, fsr2l, fsr2h, status,2, status,0, cstack
  8638 ;; Tracked objects:
  8639 ;;		On entry : 0/0
  8640 ;;		On exit  : 0/0
  8641 ;;		Unchanged: 0/0
  8642 ;; Data sizes:     COMRAM   BANK0   BANK1   BANK2   BANK3   BANK4   BANK5   BANK6   BANK7   BANK8   BANK9  BANK10  BANK1
      +1  BANK12  BANK13  BANK14  BANK15
  8643 ;;      Params:         0       0       0       0       0       0       0       0       0       0       0       0       
      +0       0       0       0       0
  8644 ;;      Locals:         0       0       0       0       0       0       0       0       0       0       0       0       
      +0       0       0       0       0
  8645 ;;      Temps:          0       0       0       0       0       0       0       0       0       0       0       0       
      +0       0       0       0       0
  8646 ;;      Totals:         0       0       0       0       0       0       0       0       0       0       0       0       
      +0       0       0       0       0
  8647 ;;Total ram usage:        0 bytes
  8648 ;; Hardware stack levels used: 1
  8649 ;; Hardware stack levels required when called: 5
  8650 ;; This function calls:
  8651 ;;		_UART1_RxDataHandler
  8652 ;; This function is called by:
  8653 ;;		_UART1_Initialize
  8654 ;;		_UART1_Receive_ISR
  8655 ;; This function uses a non-reentrant model
  8656 ;;
  8657                           
  8658                           	psect	text62
  8659  003324                     __ptext62:
  8660                           	callstack 0
  8661  003324                     _UART1_DefaultErrorHandler:
  8662                           	callstack 12
  8663  003324                     
  8664                           ;mcc_generated_files/uart1.c: 312:     UART1_RxDataHandler();
  8665  003324  EC6B  F018         	call	_UART1_RxDataHandler	;wreg free
  8666  003328  0012               	return		;funcret
  8667  00332A                     __end_of_UART1_DefaultErrorHandler:
  8668                           	callstack 0
  8669                           
  8670 ;; *************** function _UART1_RxDataHandler *****************
  8671 ;; Defined at:
  8672 ;;		line 297 in file "mcc_generated_files/uart1.c"
  8673 ;; Parameters:    Size  Location     Type
  8674 ;;		None
  8675 ;; Auto vars:     Size  Location     Type
  8676 ;;		None
  8677 ;; Return value:  Size  Location     Type
  8678 ;;                  1    wreg      void 
  8679 ;; Registers used:
  8680 ;;		wreg, fsr2l, fsr2h, status,2, status,0
  8681 ;; Tracked objects:
  8682 ;;		On entry : 0/0
  8683 ;;		On exit  : 0/0
  8684 ;;		Unchanged: 0/0
  8685 ;; Data sizes:     COMRAM   BANK0   BANK1   BANK2   BANK3   BANK4   BANK5   BANK6   BANK7   BANK8   BANK9  BANK10  BANK1
      +1  BANK12  BANK13  BANK14  BANK15
  8686 ;;      Params:         0       0       0       0       0       0       0       0       0       0       0       0       
      +0       0       0       0       0
  8687 ;;      Locals:         0       0       0       0       0       0       0       0       0       0       0       0       
      +0       0       0       0       0
  8688 ;;      Temps:          0       0       0       0       0       0       0       0       0       0       0       0       
      +0       0       0       0       0
  8689 ;;      Totals:         0       0       0       0       0       0       0       0       0       0       0       0       
      +0       0       0       0       0
  8690 ;;Total ram usage:        0 bytes
  8691 ;; Hardware stack levels used: 1
  8692 ;; Hardware stack levels required when called: 4
  8693 ;; This function calls:
  8694 ;;		Nothing
  8695 ;; This function is called by:
  8696 ;;		_UART1_Receive_ISR
  8697 ;;		_UART1_DefaultErrorHandler
  8698 ;; This function uses a non-reentrant model
  8699 ;;
  8700                           
  8701                           	psect	text63
  8702  0030D6                     __ptext63:
  8703                           	callstack 0
  8704  0030D6                     _UART1_RxDataHandler:
  8705                           	callstack 13
  8706  0030D6                     
  8707                           ;mcc_generated_files/uart1.c: 299:     uart1RxBuffer[uart1RxHead++] = U1RXB;
  8708  0030D6  0EB8               	movlw	low _uart1RxBuffer
  8709  0030D8  2436               	addwf	_uart1RxHead^0,w,c	;volatile
  8710  0030DA  6ED9               	movwf	fsr2l,c
  8711  0030DC  6ADA               	clrf	fsr2h,c
  8712  0030DE  0E00               	movlw	high _uart1RxBuffer
  8713  0030E0  22DA               	addwfc	fsr2h,f,c
  8714  0030E2  006F F7A3 FFDF     	movff	15848,indf2	;volatile
  8715  0030E8  2A36               	incf	_uart1RxHead^0,f,c	;volatile
  8716  0030EA                     
  8717                           ;mcc_generated_files/uart1.c: 300:     if(sizeof(uart1RxBuffer) <= uart1RxHead)
  8718  0030EA  0E07               	movlw	7
  8719  0030EC  6436               	cpfsgt	_uart1RxHead^0,c	;volatile
  8720  0030EE  EF7B  F018         	goto	i1u207_21
  8721  0030F2  EF7D  F018         	goto	i1u207_20
  8722  0030F6                     i1u207_21:
  8723  0030F6  EF7F  F018         	goto	i1l3826
  8724  0030FA                     i1u207_20:
  8725  0030FA                     
  8726                           ;mcc_generated_files/uart1.c: 301:     {;mcc_generated_files/uart1.c: 302:         uart1
      +                          RxHead = 0;
  8727  0030FA  0E00               	movlw	0
  8728  0030FC  6E36               	movwf	_uart1RxHead^0,c	;volatile
  8729  0030FE                     i1l3826:
  8730                           
  8731                           ;mcc_generated_files/uart1.c: 304:     uart1RxCount++;
  8732  0030FE  2A34               	incf	_uart1RxCount^0,f,c	;volatile
  8733  003100  0012               	return		;funcret
  8734  003102                     __end_of_UART1_RxDataHandler:
  8735                           	callstack 0
  8736                           
  8737 ;; *************** function _TMR4_ISR *****************
  8738 ;; Defined at:
  8739 ;;		line 166 in file "mcc_generated_files/tmr4.c"
  8740 ;; Parameters:    Size  Location     Type
  8741 ;;		None
  8742 ;; Auto vars:     Size  Location     Type
  8743 ;;		None
  8744 ;; Return value:  Size  Location     Type
  8745 ;;                  1    wreg      void 
  8746 ;; Registers used:
  8747 ;;		wreg, status,2, status,0, pcl, pclath, pclatu, tosl, cstack
  8748 ;; Tracked objects:
  8749 ;;		On entry : 0/0
  8750 ;;		On exit  : 0/0
  8751 ;;		Unchanged: 0/0
  8752 ;; Data sizes:     COMRAM   BANK0   BANK1   BANK2   BANK3   BANK4   BANK5   BANK6   BANK7   BANK8   BANK9  BANK10  BANK1
      +1  BANK12  BANK13  BANK14  BANK15
  8753 ;;      Params:         0       0       0       0       0       0       0       0       0       0       0       0       
      +0       0       0       0       0
  8754 ;;      Locals:         0       0       0       0       0       0       0       0       0       0       0       0       
      +0       0       0       0       0
  8755 ;;      Temps:          3       0       0       0       0       0       0       0       0       0       0       0       
      +0       0       0       0       0
  8756 ;;      Totals:         3       0       0       0       0       0       0       0       0       0       0       0       
      +0       0       0       0       0
  8757 ;;Total ram usage:        3 bytes
  8758 ;; Hardware stack levels used: 1
  8759 ;; Hardware stack levels required when called: 6
  8760 ;; This function calls:
  8761 ;;		_TMR4_CallBack
  8762 ;; This function is called by:
  8763 ;;		Interrupt level 1
  8764 ;; This function uses a non-reentrant model
  8765 ;;
  8766                           
  8767                           	psect	text64
  8768  002ADC                     __ptext64:
  8769                           	callstack 0
  8770  002ADC                     _TMR4_ISR:
  8771                           	callstack 13
  8772                           
  8773                           ;incstack = 0
  8774  002ADC  006F FF60  F01D    	movff	status,??_TMR4_ISR
  8775  002AE2  006F FFE8  F01E    	movff	pclath,??_TMR4_ISR+1
  8776  002AE8  006F FFEC  F01F    	movff	pclatu,??_TMR4_ISR+2
  8777  002AEE                     
  8778                           ;mcc_generated_files/tmr4.c: 168:     static volatile unsigned int CountCallBack = 0;;mc
      +                          c_generated_files/tmr4.c: 171:     PIR7bits.TMR4IF = 0;
  8779  002AEE  0139               	movlb	57	; () banked
  8780  002AF0  91A7               	bcf	167,0,b	;volatile
  8781  002AF2                     
  8782                           ; BSR set to: 57
  8783                           ;mcc_generated_files/tmr4.c: 174:     if (++CountCallBack >= 10)
  8784  002AF2  4A27               	infsnz	TMR4_ISR@CountCallBack^0,f,c	;volatile
  8785  002AF4  2A28               	incf	(TMR4_ISR@CountCallBack+1)^0,f,c	;volatile
  8786  002AF6  5028               	movf	(TMR4_ISR@CountCallBack+1)^0,w,c	;volatile
  8787  002AF8  E109               	bnz	i1u291_20
  8788  002AFA  0E0A               	movlw	10
  8789  002AFC  5C27               	subwf	TMR4_ISR@CountCallBack^0,w,c	;volatile
  8790  002AFE  A0D8               	btfss	status,0,c
  8791  002B00  EF84  F015         	goto	i1u291_21
  8792  002B04  EF86  F015         	goto	i1u291_20
  8793  002B08                     i1u291_21:
  8794  002B08  EF8C  F015         	goto	i1l688
  8795  002B0C                     i1u291_20:
  8796  002B0C                     
  8797                           ; BSR set to: 57
  8798                           ;mcc_generated_files/tmr4.c: 175:     {;mcc_generated_files/tmr4.c: 177:         TMR4_Ca
      +                          llBack();
  8799  002B0C  ECFA  F017         	call	_TMR4_CallBack	;wreg free
  8800  002B10                     
  8801                           ;mcc_generated_files/tmr4.c: 180:         CountCallBack = 0;
  8802  002B10  0E00               	movlw	0
  8803  002B12  6E28               	movwf	(TMR4_ISR@CountCallBack+1)^0,c	;volatile
  8804  002B14  0E00               	movlw	0
  8805  002B16  6E27               	movwf	TMR4_ISR@CountCallBack^0,c	;volatile
  8806  002B18                     i1l688:
  8807  002B18  0060  F07F  FFFB   	movff	??_TMR4_ISR+2,pclatu
  8808  002B1E  0060  F07B  FFFA   	movff	??_TMR4_ISR+1,pclath
  8809  002B24  0060  F077  FFD8   	movff	??_TMR4_ISR,status
  8810  002B2A  0011               	retfie		f
  8811  002B2C                     __end_of_TMR4_ISR:
  8812                           	callstack 0
  8813                           
  8814 ;; *************** function _TMR4_CallBack *****************
  8815 ;; Defined at:
  8816 ;;		line 184 in file "mcc_generated_files/tmr4.c"
  8817 ;; Parameters:    Size  Location     Type
  8818 ;;		None
  8819 ;; Auto vars:     Size  Location     Type
  8820 ;;		None
  8821 ;; Return value:  Size  Location     Type
  8822 ;;                  1    wreg      void 
  8823 ;; Registers used:
  8824 ;;		wreg, status,2, status,0, pcl, pclath, pclatu, tosl, cstack
  8825 ;; Tracked objects:
  8826 ;;		On entry : 0/0
  8827 ;;		On exit  : 0/0
  8828 ;;		Unchanged: 0/0
  8829 ;; Data sizes:     COMRAM   BANK0   BANK1   BANK2   BANK3   BANK4   BANK5   BANK6   BANK7   BANK8   BANK9  BANK10  BANK1
      +1  BANK12  BANK13  BANK14  BANK15
  8830 ;;      Params:         0       0       0       0       0       0       0       0       0       0       0       0       
      +0       0       0       0       0
  8831 ;;      Locals:         0       0       0       0       0       0       0       0       0       0       0       0       
      +0       0       0       0       0
  8832 ;;      Temps:          0       0       0       0       0       0       0       0       0       0       0       0       
      +0       0       0       0       0
  8833 ;;      Totals:         0       0       0       0       0       0       0       0       0       0       0       0       
      +0       0       0       0       0
  8834 ;;Total ram usage:        0 bytes
  8835 ;; Hardware stack levels used: 1
  8836 ;; Hardware stack levels required when called: 5
  8837 ;; This function calls:
  8838 ;;		Absolute function
  8839 ;;		_TMR4_10msISR
  8840 ;;		_TMR4_DefaultInterruptHandler
  8841 ;; This function is called by:
  8842 ;;		_TMR4_ISR
  8843 ;; This function uses a non-reentrant model
  8844 ;;
  8845                           
  8846                           	psect	text65
  8847  002FF4                     __ptext65:
  8848                           	callstack 0
  8849  002FF4                     _TMR4_CallBack:
  8850                           	callstack 13
  8851  002FF4                     
  8852                           ;mcc_generated_files/tmr4.c: 188:     if(TMR4_InterruptHandler)
  8853  002FF4  0100               	movlb	0	; () banked
  8854  002FF6  51E3               	movf	_TMR4_InterruptHandler& (0+255),w,b
  8855  002FF8  11E4               	iorwf	(_TMR4_InterruptHandler+1)& (0+255),w,b
  8856  002FFA  B4D8               	btfsc	status,2,c
  8857  002FFC  EF02  F018         	goto	i1u279_21
  8858  003000  EF04  F018         	goto	i1u279_20
  8859  003004                     i1u279_21:
  8860  003004  EF10  F018         	goto	i1l692
  8861  003008                     i1u279_20:
  8862  003008                     
  8863                           ; BSR set to: 0
  8864                           ;mcc_generated_files/tmr4.c: 189:     {;mcc_generated_files/tmr4.c: 190:         TMR4_In
      +                          terruptHandler();
  8865  003008  D802               	call	i1u280_28
  8866  00300A  EF10  F018         	goto	i1u280_29
  8867  00300E                     i1u280_28:
  8868  00300E  0005               	push	
  8869  003010  6EFA               	movwf	pclath,c
  8870  003012  51E3               	movf	_TMR4_InterruptHandler& (0+255),w,b
  8871  003014  6EFD               	movwf	tosl,c
  8872  003016  51E4               	movf	(_TMR4_InterruptHandler+1)& (0+255),w,b
  8873  003018  6EFE               	movwf	tosh,c
  8874  00301A  6AFF               	clrf	tosu,c
  8875  00301C  50FA               	movf	pclath,w,c
  8876  00301E  0012               	return		;indir
  8877  003020                     i1u280_29:
  8878  003020                     i1l692:
  8879  003020  0012               	return		;funcret
  8880  003022                     __end_of_TMR4_CallBack:
  8881                           	callstack 0
  8882                           
  8883 ;; *************** function _TMR4_10msISR *****************
  8884 ;; Defined at:
  8885 ;;		line 118 in file "main.c"
  8886 ;; Parameters:    Size  Location     Type
  8887 ;;		None
  8888 ;; Auto vars:     Size  Location     Type
  8889 ;;		None
  8890 ;; Return value:  Size  Location     Type
  8891 ;;                  1    wreg      void 
  8892 ;; Registers used:
  8893 ;;		status,2, status,0
  8894 ;; Tracked objects:
  8895 ;;		On entry : 0/0
  8896 ;;		On exit  : 0/0
  8897 ;;		Unchanged: 0/0
  8898 ;; Data sizes:     COMRAM   BANK0   BANK1   BANK2   BANK3   BANK4   BANK5   BANK6   BANK7   BANK8   BANK9  BANK10  BANK1
      +1  BANK12  BANK13  BANK14  BANK15
  8899 ;;      Params:         0       0       0       0       0       0       0       0       0       0       0       0       
      +0       0       0       0       0
  8900 ;;      Locals:         0       0       0       0       0       0       0       0       0       0       0       0       
      +0       0       0       0       0
  8901 ;;      Temps:          0       0       0       0       0       0       0       0       0       0       0       0       
      +0       0       0       0       0
  8902 ;;      Totals:         0       0       0       0       0       0       0       0       0       0       0       0       
      +0       0       0       0       0
  8903 ;;Total ram usage:        0 bytes
  8904 ;; Hardware stack levels used: 1
  8905 ;; Hardware stack levels required when called: 4
  8906 ;; This function calls:
  8907 ;;		Nothing
  8908 ;; This function is called by:
  8909 ;;		_main
  8910 ;;		_TMR4_CallBack
  8911 ;; This function uses a non-reentrant model
  8912 ;;
  8913                           
  8914                           	psect	text66
  8915  00332A                     __ptext66:
  8916                           	callstack 0
  8917  00332A                     _TMR4_10msISR:
  8918                           	callstack 13
  8919  00332A                     
  8920                           ;main.c: 119:     ++cycle10ms;
  8921  00332A  0100               	movlb	0	; () banked
  8922  00332C  2BE0               	incf	_cycle10ms& (0+255),f,b
  8923  00332E                     
  8924                           ; BSR set to: 0
  8925  00332E  0012               	return		;funcret
  8926  003330                     __end_of_TMR4_10msISR:
  8927                           	callstack 0
  8928                           
  8929 ;; *************** function _TMR4_DefaultInterruptHandler *****************
  8930 ;; Defined at:
  8931 ;;		line 198 in file "mcc_generated_files/tmr4.c"
  8932 ;; Parameters:    Size  Location     Type
  8933 ;;		None
  8934 ;; Auto vars:     Size  Location     Type
  8935 ;;		None
  8936 ;; Return value:  Size  Location     Type
  8937 ;;                  1    wreg      void 
  8938 ;; Registers used:
  8939 ;;		None
  8940 ;; Tracked objects:
  8941 ;;		On entry : 0/0
  8942 ;;		On exit  : 0/0
  8943 ;;		Unchanged: 0/0
  8944 ;; Data sizes:     COMRAM   BANK0   BANK1   BANK2   BANK3   BANK4   BANK5   BANK6   BANK7   BANK8   BANK9  BANK10  BANK1
      +1  BANK12  BANK13  BANK14  BANK15
  8945 ;;      Params:         0       0       0       0       0       0       0       0       0       0       0       0       
      +0       0       0       0       0
  8946 ;;      Locals:         0       0       0       0       0       0       0       0       0       0       0       0       
      +0       0       0       0       0
  8947 ;;      Temps:          0       0       0       0       0       0       0       0       0       0       0       0       
      +0       0       0       0       0
  8948 ;;      Totals:         0       0       0       0       0       0       0       0       0       0       0       0       
      +0       0       0       0       0
  8949 ;;Total ram usage:        0 bytes
  8950 ;; Hardware stack levels used: 1
  8951 ;; Hardware stack levels required when called: 4
  8952 ;; This function calls:
  8953 ;;		Nothing
  8954 ;; This function is called by:
  8955 ;;		_TMR4_Initialize
  8956 ;;		_TMR4_CallBack
  8957 ;; This function uses a non-reentrant model
  8958 ;;
  8959                           
  8960                           	psect	text67
  8961  003334                     __ptext67:
  8962                           	callstack 0
  8963  003334                     _TMR4_DefaultInterruptHandler:
  8964                           	callstack 13
  8965  003334  0012               	return		;funcret
  8966  003336                     __end_of_TMR4_DefaultInterruptHandler:
  8967                           	callstack 0
  8968                           
  8969 ;; *************** function _Default_ISR *****************
  8970 ;; Defined at:
  8971 ;;		line 83 in file "mcc_generated_files/interrupt_manager.c"
  8972 ;; Parameters:    Size  Location     Type
  8973 ;;		None
  8974 ;; Auto vars:     Size  Location     Type
  8975 ;;		None
  8976 ;; Return value:  Size  Location     Type
  8977 ;;                  1    wreg      void 
  8978 ;; Registers used:
  8979 ;;		None
  8980 ;; Tracked objects:
  8981 ;;		On entry : 0/0
  8982 ;;		On exit  : 0/0
  8983 ;;		Unchanged: 0/0
  8984 ;; Data sizes:     COMRAM   BANK0   BANK1   BANK2   BANK3   BANK4   BANK5   BANK6   BANK7   BANK8   BANK9  BANK10  BANK1
      +1  BANK12  BANK13  BANK14  BANK15
  8985 ;;      Params:         0       0       0       0       0       0       0       0       0       0       0       0       
      +0       0       0       0       0
  8986 ;;      Locals:         0       0       0       0       0       0       0       0       0       0       0       0       
      +0       0       0       0       0
  8987 ;;      Temps:          0       0       0       0       0       0       0       0       0       0       0       0       
      +0       0       0       0       0
  8988 ;;      Totals:         0       0       0       0       0       0       0       0       0       0       0       0       
      +0       0       0       0       0
  8989 ;;Total ram usage:        0 bytes
  8990 ;; Hardware stack levels used: 1
  8991 ;; This function calls:
  8992 ;;		Nothing
  8993 ;; This function is called by:
  8994 ;;		Interrupt level 2
  8995 ;; This function uses a non-reentrant model
  8996 ;;
  8997                           
  8998                           	psect	text68
  8999  003338                     __ptext68:
  9000                           	callstack 0
  9001  003338                     _Default_ISR:
  9002                           	callstack 15
  9003  003338  0011               	retfie		f
  9004  00333A                     __end_of_Default_ISR:
  9005                           	callstack 0
  9006                           
  9007 ;; *************** function _CCP3_CaptureISR *****************
  9008 ;; Defined at:
  9009 ;;		line 104 in file "mcc_generated_files/ccp3.c"
  9010 ;; Parameters:    Size  Location     Type
  9011 ;;		None
  9012 ;; Auto vars:     Size  Location     Type
  9013 ;;  module          2    4[COMRAM] struct CCPR3Reg_tag
  9014 ;; Return value:  Size  Location     Type
  9015 ;;                  1    wreg      void 
  9016 ;; Registers used:
  9017 ;;		wreg, status,2, status,0, pcl, pclath, pclatu, tosl, cstack
  9018 ;; Tracked objects:
  9019 ;;		On entry : 0/0
  9020 ;;		On exit  : 0/0
  9021 ;;		Unchanged: 0/0
  9022 ;; Data sizes:     COMRAM   BANK0   BANK1   BANK2   BANK3   BANK4   BANK5   BANK6   BANK7   BANK8   BANK9  BANK10  BANK1
      +1  BANK12  BANK13  BANK14  BANK15
  9023 ;;      Params:         0       0       0       0       0       0       0       0       0       0       0       0       
      +0       0       0       0       0
  9024 ;;      Locals:         2       0       0       0       0       0       0       0       0       0       0       0       
      +0       0       0       0       0
  9025 ;;      Temps:          2       0       0       0       0       0       0       0       0       0       0       0       
      +0       0       0       0       0
  9026 ;;      Totals:         4       0       0       0       0       0       0       0       0       0       0       0       
      +0       0       0       0       0
  9027 ;;Total ram usage:        4 bytes
  9028 ;; Hardware stack levels used: 1
  9029 ;; Hardware stack levels required when called: 1
  9030 ;; This function calls:
  9031 ;;		Absolute function
  9032 ;;		_CCP3_DefaultCallBack
  9033 ;; This function is called by:
  9034 ;;		Interrupt level 2
  9035 ;; This function uses a non-reentrant model
  9036 ;;
  9037                           
  9038                           	psect	text69
  9039  002B78                     __ptext69:
  9040                           	callstack 0
  9041  002B78                     _CCP3_CaptureISR:
  9042                           	callstack 14
  9043                           
  9044                           ;incstack = 0
  9045  002B78  006F FFE8  F003    	movff	pclath,??_CCP3_CaptureISR
  9046  002B7E  006F FFEC  F004    	movff	pclatu,??_CCP3_CaptureISR+1
  9047  002B84                     
  9048                           ;mcc_generated_files/ccp3.c: 106:     CCP3_PERIOD_REG_T module;;mcc_generated_files/ccp3
      +                          .c: 109:     PIR9bits.CCP3IF = 0;
  9049  002B84  0139               	movlb	57	; () banked
  9050  002B86  93A9               	bcf	169,1,b	;volatile
  9051                           
  9052                           ;mcc_generated_files/ccp3.c: 112:     module.ccpr3l = CCPR3L;
  9053  002B88  006F FDD0  F005    	movff	16244,CCP3_CaptureISR@module	;volatile
  9054                           
  9055                           ;mcc_generated_files/ccp3.c: 113:     module.ccpr3h = CCPR3H;
  9056  002B8E  006F FDD4  F006    	movff	16245,CCP3_CaptureISR@module+1	;volatile
  9057  002B94                     
  9058                           ; BSR set to: 57
  9059                           ;mcc_generated_files/ccp3.c: 116:     CCP3_CallBack(module.ccpr3_16Bit);
  9060  002B94  C005  F001         	movff	CCP3_CaptureISR@module,CCP3_DefaultCallBack@capturedValue
  9061  002B98  C006  F002         	movff	CCP3_CaptureISR@module+1,CCP3_DefaultCallBack@capturedValue+1
  9062  002B9C  D802               	call	i2u287_48
  9063  002B9E  EFDB  F015         	goto	i2u287_49
  9064  002BA2                     i2u287_48:
  9065  002BA2  0005               	push	
  9066  002BA4  6EFA               	movwf	pclath,c
  9067  002BA6  0100               	movlb	0	; () banked
  9068  002BA8  51ED               	movf	_CCP3_CallBack& (0+255),w,b
  9069  002BAA  6EFD               	movwf	tosl,c
  9070  002BAC  51EE               	movf	(_CCP3_CallBack+1)& (0+255),w,b
  9071  002BAE  6EFE               	movwf	tosh,c
  9072  002BB0  6AFF               	clrf	tosu,c
  9073  002BB2  50FA               	movf	pclath,w,c
  9074  002BB4  0012               	return		;indir
  9075  002BB6                     i2u287_49:
  9076  002BB6  0060  F013  FFFB   	movff	??_CCP3_CaptureISR+1,pclatu
  9077  002BBC  0060  F00F  FFFA   	movff	??_CCP3_CaptureISR,pclath
  9078  002BC2  0011               	retfie		f
  9079  002BC4                     __end_of_CCP3_CaptureISR:
  9080                           	callstack 0
  9081                           
  9082 ;; *************** function _CCP3_DefaultCallBack *****************
  9083 ;; Defined at:
  9084 ;;		line 64 in file "mcc_generated_files/ccp3.c"
  9085 ;; Parameters:    Size  Location     Type
  9086 ;;  capturedValu    2    0[COMRAM] unsigned short 
  9087 ;; Auto vars:     Size  Location     Type
  9088 ;;		None
  9089 ;; Return value:  Size  Location     Type
  9090 ;;                  1    wreg      void 
  9091 ;; Registers used:
  9092 ;;		wreg, status,2, status,0
  9093 ;; Tracked objects:
  9094 ;;		On entry : 0/0
  9095 ;;		On exit  : 0/0
  9096 ;;		Unchanged: 0/0
  9097 ;; Data sizes:     COMRAM   BANK0   BANK1   BANK2   BANK3   BANK4   BANK5   BANK6   BANK7   BANK8   BANK9  BANK10  BANK1
      +1  BANK12  BANK13  BANK14  BANK15
  9098 ;;      Params:         2       0       0       0       0       0       0       0       0       0       0       0       
      +0       0       0       0       0
  9099 ;;      Locals:         0       0       0       0       0       0       0       0       0       0       0       0       
      +0       0       0       0       0
  9100 ;;      Temps:          0       0       0       0       0       0       0       0       0       0       0       0       
      +0       0       0       0       0
  9101 ;;      Totals:         2       0       0       0       0       0       0       0       0       0       0       0       
      +0       0       0       0       0
  9102 ;;Total ram usage:        2 bytes
  9103 ;; Hardware stack levels used: 1
  9104 ;; This function calls:
  9105 ;;		Nothing
  9106 ;; This function is called by:
  9107 ;;		_CCP3_Initialize
  9108 ;;		_CCP3_CaptureISR
  9109 ;; This function uses a non-reentrant model
  9110 ;;
  9111                           
  9112                           	psect	text70
  9113  003022                     __ptext70:
  9114                           	callstack 0
  9115  003022                     _CCP3_DefaultCallBack:
  9116                           	callstack 14
  9117  003022                     
  9118                           ;mcc_generated_files/ccp3.c: 64: static void CCP3_DefaultCallBack(uint16_t capturedValue
      +                          );mcc_generated_files/ccp3.c: 65: {;mcc_generated_files/ccp3.c: 67:     if(PORTDbits.RD7
      +                          ) {
  9119  003022  AECD               	btfss	205,7,c	;volatile
  9120  003024  EF16  F018         	goto	i2u276_41
  9121  003028  EF18  F018         	goto	i2u276_40
  9122  00302C                     i2u276_41:
  9123  00302C  EF1E  F018         	goto	i2l4418
  9124  003030                     i2u276_40:
  9125  003030                     
  9126                           ;mcc_generated_files/ccp3.c: 68:         distLeftM = capturedValue;
  9127  003030  C001  F02F         	movff	CCP3_DefaultCallBack@capturedValue,_distLeftM
  9128  003034  C002  F030         	movff	CCP3_DefaultCallBack@capturedValue+1,_distLeftM+1
  9129                           
  9130                           ;mcc_generated_files/ccp3.c: 69:     } else {
  9131  003038  EF27  F018         	goto	i2l438
  9132  00303C                     i2l4418:
  9133                           
  9134                           ;mcc_generated_files/ccp3.c: 70:         distLeft = capturedValue - distLeftM;
  9135  00303C  502F               	movf	_distLeftM^0,w,c
  9136  00303E  5C01               	subwf	CCP3_DefaultCallBack@capturedValue^0,w,c
  9137  003040  6E31               	movwf	_distLeft^0,c	;volatile
  9138  003042  5030               	movf	(_distLeftM+1)^0,w,c
  9139  003044  5802               	subwfb	(CCP3_DefaultCallBack@capturedValue+1)^0,w,c
  9140  003046  6E32               	movwf	(_distLeft+1)^0,c	;volatile
  9141  003048                     
  9142                           ;mcc_generated_files/ccp3.c: 71:         distLeft >>= 1;
  9143  003048  90D8               	bcf	status,0,c
  9144  00304A  3232               	rrcf	(_distLeft+1)^0,f,c	;volatile
  9145  00304C  3231               	rrcf	_distLeft^0,f,c	;volatile
  9146  00304E                     i2l438:
  9147  00304E  0012               	return		;funcret
  9148  003050                     __end_of_CCP3_DefaultCallBack:
  9149                           	callstack 0
  9150                           
  9151 ;; *************** function _CCP4_CaptureISR *****************
  9152 ;; Defined at:
  9153 ;;		line 107 in file "mcc_generated_files/ccp4.c"
  9154 ;; Parameters:    Size  Location     Type
  9155 ;;		None
  9156 ;; Auto vars:     Size  Location     Type
  9157 ;;  module          2   10[COMRAM] struct CCPR4Reg_tag
  9158 ;; Return value:  Size  Location     Type
  9159 ;;                  1    wreg      void 
  9160 ;; Registers used:
  9161 ;;		wreg, status,2, status,0, pcl, pclath, pclatu, tosl, cstack
  9162 ;; Tracked objects:
  9163 ;;		On entry : 0/0
  9164 ;;		On exit  : 0/0
  9165 ;;		Unchanged: 0/0
  9166 ;; Data sizes:     COMRAM   BANK0   BANK1   BANK2   BANK3   BANK4   BANK5   BANK6   BANK7   BANK8   BANK9  BANK10  BANK1
      +1  BANK12  BANK13  BANK14  BANK15
  9167 ;;      Params:         0       0       0       0       0       0       0       0       0       0       0       0       
      +0       0       0       0       0
  9168 ;;      Locals:         2       0       0       0       0       0       0       0       0       0       0       0       
      +0       0       0       0       0
  9169 ;;      Temps:          2       0       0       0       0       0       0       0       0       0       0       0       
      +0       0       0       0       0
  9170 ;;      Totals:         4       0       0       0       0       0       0       0       0       0       0       0       
      +0       0       0       0       0
  9171 ;;Total ram usage:        4 bytes
  9172 ;; Hardware stack levels used: 1
  9173 ;; Hardware stack levels required when called: 1
  9174 ;; This function calls:
  9175 ;;		Absolute function
  9176 ;;		_CCP4_DefaultCallBack
  9177 ;; This function is called by:
  9178 ;;		Interrupt level 2
  9179 ;; This function uses a non-reentrant model
  9180 ;;
  9181                           
  9182                           	psect	text71
  9183  002BC4                     __ptext71:
  9184                           	callstack 0
  9185  002BC4                     _CCP4_CaptureISR:
  9186                           	callstack 14
  9187                           
  9188                           ;incstack = 0
  9189  002BC4  006F FFE8  F009    	movff	pclath,??_CCP4_CaptureISR
  9190  002BCA  006F FFEC  F00A    	movff	pclatu,??_CCP4_CaptureISR+1
  9191  002BD0                     
  9192                           ;mcc_generated_files/ccp4.c: 109:     CCP4_PERIOD_REG_T module;;mcc_generated_files/ccp4
      +                          .c: 112:     PIR10bits.CCP4IF = 0;
  9193  002BD0  0139               	movlb	57	; () banked
  9194  002BD2  91AA               	bcf	170,0,b	;volatile
  9195                           
  9196                           ;mcc_generated_files/ccp4.c: 115:     module.ccpr4l = CCPR4L;
  9197  002BD4  006F FDC0  F00B    	movff	16240,CCP4_CaptureISR@module	;volatile
  9198                           
  9199                           ;mcc_generated_files/ccp4.c: 116:     module.ccpr4h = CCPR4H;
  9200  002BDA  006F FDC4  F00C    	movff	16241,CCP4_CaptureISR@module+1	;volatile
  9201  002BE0                     
  9202                           ; BSR set to: 57
  9203                           ;mcc_generated_files/ccp4.c: 119:     CCP4_CallBack(module.ccpr4_16Bit);
  9204  002BE0  C00B  F007         	movff	CCP4_CaptureISR@module,CCP4_DefaultCallBack@capturedValue
  9205  002BE4  C00C  F008         	movff	CCP4_CaptureISR@module+1,CCP4_DefaultCallBack@capturedValue+1
  9206  002BE8  D802               	call	i2u288_48
  9207  002BEA  EF01  F016         	goto	i2u288_49
  9208  002BEE                     i2u288_48:
  9209  002BEE  0005               	push	
  9210  002BF0  6EFA               	movwf	pclath,c
  9211  002BF2  0100               	movlb	0	; () banked
  9212  002BF4  51EB               	movf	_CCP4_CallBack& (0+255),w,b
  9213  002BF6  6EFD               	movwf	tosl,c
  9214  002BF8  51EC               	movf	(_CCP4_CallBack+1)& (0+255),w,b
  9215  002BFA  6EFE               	movwf	tosh,c
  9216  002BFC  6AFF               	clrf	tosu,c
  9217  002BFE  50FA               	movf	pclath,w,c
  9218  002C00  0012               	return		;indir
  9219  002C02                     i2u288_49:
  9220  002C02  0060  F02B  FFFB   	movff	??_CCP4_CaptureISR+1,pclatu
  9221  002C08  0060  F027  FFFA   	movff	??_CCP4_CaptureISR,pclath
  9222  002C0E  0011               	retfie		f
  9223  002C10                     __end_of_CCP4_CaptureISR:
  9224                           	callstack 0
  9225                           
  9226 ;; *************** function _CCP4_DefaultCallBack *****************
  9227 ;; Defined at:
  9228 ;;		line 64 in file "mcc_generated_files/ccp4.c"
  9229 ;; Parameters:    Size  Location     Type
  9230 ;;  capturedValu    2    6[COMRAM] unsigned short 
  9231 ;; Auto vars:     Size  Location     Type
  9232 ;;		None
  9233 ;; Return value:  Size  Location     Type
  9234 ;;                  1    wreg      void 
  9235 ;; Registers used:
  9236 ;;		wreg, status,2, status,0
  9237 ;; Tracked objects:
  9238 ;;		On entry : 0/0
  9239 ;;		On exit  : 0/0
  9240 ;;		Unchanged: 0/0
  9241 ;; Data sizes:     COMRAM   BANK0   BANK1   BANK2   BANK3   BANK4   BANK5   BANK6   BANK7   BANK8   BANK9  BANK10  BANK1
      +1  BANK12  BANK13  BANK14  BANK15
  9242 ;;      Params:         2       0       0       0       0       0       0       0       0       0       0       0       
      +0       0       0       0       0
  9243 ;;      Locals:         0       0       0       0       0       0       0       0       0       0       0       0       
      +0       0       0       0       0
  9244 ;;      Temps:          0       0       0       0       0       0       0       0       0       0       0       0       
      +0       0       0       0       0
  9245 ;;      Totals:         2       0       0       0       0       0       0       0       0       0       0       0       
      +0       0       0       0       0
  9246 ;;Total ram usage:        2 bytes
  9247 ;; Hardware stack levels used: 1
  9248 ;; This function calls:
  9249 ;;		Nothing
  9250 ;; This function is called by:
  9251 ;;		_CCP4_Initialize
  9252 ;;		_CCP4_CaptureISR
  9253 ;; This function uses a non-reentrant model
  9254 ;;
  9255                           
  9256                           	psect	text72
  9257  003050                     __ptext72:
  9258                           	callstack 0
  9259  003050                     _CCP4_DefaultCallBack:
  9260                           	callstack 14
  9261  003050                     
  9262                           ;mcc_generated_files/ccp4.c: 64: static void CCP4_DefaultCallBack(uint16_t capturedValue
      +                          );mcc_generated_files/ccp4.c: 65: {;mcc_generated_files/ccp4.c: 67:     if(PORTDbits.RD6
      +                          ) {
  9263  003050  ACCD               	btfss	205,6,c	;volatile
  9264  003052  EF2D  F018         	goto	i2u277_41
  9265  003056  EF2F  F018         	goto	i2u277_40
  9266  00305A                     i2u277_41:
  9267  00305A  EF35  F018         	goto	i2l4426
  9268  00305E                     i2u277_40:
  9269  00305E                     
  9270                           ;mcc_generated_files/ccp4.c: 68:         distRightM = capturedValue;
  9271  00305E  C007  F02B         	movff	CCP4_DefaultCallBack@capturedValue,_distRightM
  9272  003062  C008  F02C         	movff	CCP4_DefaultCallBack@capturedValue+1,_distRightM+1
  9273                           
  9274                           ;mcc_generated_files/ccp4.c: 70:     } else {
  9275  003066  EF3E  F018         	goto	i2l476
  9276  00306A                     i2l4426:
  9277                           
  9278                           ;mcc_generated_files/ccp4.c: 71:         distRight = capturedValue - distRightM;
  9279  00306A  502B               	movf	_distRightM^0,w,c
  9280  00306C  5C07               	subwf	CCP4_DefaultCallBack@capturedValue^0,w,c
  9281  00306E  6E2D               	movwf	_distRight^0,c	;volatile
  9282  003070  502C               	movf	(_distRightM+1)^0,w,c
  9283  003072  5808               	subwfb	(CCP4_DefaultCallBack@capturedValue+1)^0,w,c
  9284  003074  6E2E               	movwf	(_distRight+1)^0,c	;volatile
  9285  003076                     
  9286                           ;mcc_generated_files/ccp4.c: 72:         distRight >>= 1;
  9287  003076  90D8               	bcf	status,0,c
  9288  003078  322E               	rrcf	(_distRight+1)^0,f,c	;volatile
  9289  00307A  322D               	rrcf	_distRight^0,f,c	;volatile
  9290  00307C                     i2l476:
  9291  00307C  0012               	return		;funcret
  9292  00307E                     __end_of_CCP4_DefaultCallBack:
  9293                           	callstack 0
  9294                           
  9295 ;; *************** function _TMR5_GATE_ISR *****************
  9296 ;; Defined at:
  9297 ;;		line 175 in file "mcc_generated_files/tmr5.c"
  9298 ;; Parameters:    Size  Location     Type
  9299 ;;		None
  9300 ;; Auto vars:     Size  Location     Type
  9301 ;;		None
  9302 ;; Return value:  Size  Location     Type
  9303 ;;                  1    wreg      void 
  9304 ;; Registers used:
  9305 ;;		wreg, status,2, status,0, pcl, pclath, pclatu, tosl, cstack
  9306 ;; Tracked objects:
  9307 ;;		On entry : 0/0
  9308 ;;		On exit  : 0/0
  9309 ;;		Unchanged: 0/0
  9310 ;; Data sizes:     COMRAM   BANK0   BANK1   BANK2   BANK3   BANK4   BANK5   BANK6   BANK7   BANK8   BANK9  BANK10  BANK1
      +1  BANK12  BANK13  BANK14  BANK15
  9311 ;;      Params:         0       0       0       0       0       0       0       0       0       0       0       0       
      +0       0       0       0       0
  9312 ;;      Locals:         0       0       0       0       0       0       0       0       0       0       0       0       
      +0       0       0       0       0
  9313 ;;      Temps:          2       0       0       0       0       0       0       0       0       0       0       0       
      +0       0       0       0       0
  9314 ;;      Totals:         2       0       0       0       0       0       0       0       0       0       0       0       
      +0       0       0       0       0
  9315 ;;Total ram usage:        2 bytes
  9316 ;; Hardware stack levels used: 1
  9317 ;; Hardware stack levels required when called: 3
  9318 ;; This function calls:
  9319 ;;		Absolute function
  9320 ;;		_TMR5_DefaultGateInterruptHandler
  9321 ;; This function is called by:
  9322 ;;		Interrupt level 2
  9323 ;; This function uses a non-reentrant model
  9324 ;;
  9325                           
  9326                           	psect	text73
  9327  002CA4                     __ptext73:
  9328                           	callstack 0
  9329  002CA4                     _TMR5_GATE_ISR:
  9330                           	callstack 12
  9331                           
  9332                           ;incstack = 0
  9333  002CA4  006F FFE8  F015    	movff	pclath,??_TMR5_GATE_ISR
  9334  002CAA  006F FFEC  F016    	movff	pclatu,??_TMR5_GATE_ISR+1
  9335  002CB0                     
  9336                           ;mcc_generated_files/tmr5.c: 178:     PIR8bits.TMR5GIF = 0;
  9337  002CB0  0139               	movlb	57	; () banked
  9338  002CB2  9FA8               	bcf	168,7,b	;volatile
  9339  002CB4                     
  9340                           ; BSR set to: 57
  9341                           ;mcc_generated_files/tmr5.c: 180:     if(TMR5_GateInterruptHandler)
  9342  002CB4  0100               	movlb	0	; () banked
  9343  002CB6  51E7               	movf	_TMR5_GateInterruptHandler& (0+255),w,b
  9344  002CB8  11E8               	iorwf	(_TMR5_GateInterruptHandler+1)& (0+255),w,b
  9345  002CBA  B4D8               	btfsc	status,2,c
  9346  002CBC  EF62  F016         	goto	i2u289_41
  9347  002CC0  EF64  F016         	goto	i2u289_40
  9348  002CC4                     i2u289_41:
  9349  002CC4  EF70  F016         	goto	i2l552
  9350  002CC8                     i2u289_40:
  9351  002CC8                     
  9352                           ; BSR set to: 0
  9353                           ;mcc_generated_files/tmr5.c: 181:     {;mcc_generated_files/tmr5.c: 182:         TMR5_Ga
      +                          teInterruptHandler();
  9354  002CC8  D802               	call	i2u290_48
  9355  002CCA  EF70  F016         	goto	i2u290_49
  9356  002CCE                     i2u290_48:
  9357  002CCE  0005               	push	
  9358  002CD0  6EFA               	movwf	pclath,c
  9359  002CD2  51E7               	movf	_TMR5_GateInterruptHandler& (0+255),w,b
  9360  002CD4  6EFD               	movwf	tosl,c
  9361  002CD6  51E8               	movf	(_TMR5_GateInterruptHandler+1)& (0+255),w,b
  9362  002CD8  6EFE               	movwf	tosh,c
  9363  002CDA  6AFF               	clrf	tosu,c
  9364  002CDC  50FA               	movf	pclath,w,c
  9365  002CDE  0012               	return		;indir
  9366  002CE0                     i2u290_49:
  9367  002CE0                     i2l552:
  9368  002CE0  0060  F05B  FFFB   	movff	??_TMR5_GATE_ISR+1,pclatu
  9369  002CE6  0060  F057  FFFA   	movff	??_TMR5_GATE_ISR,pclath
  9370  002CEC  0011               	retfie		f
  9371  002CEE                     __end_of_TMR5_GATE_ISR:
  9372                           	callstack 0
  9373                           
  9374 ;; *************** function _TMR5_DefaultGateInterruptHandler *****************
  9375 ;; Defined at:
  9376 ;;		line 190 in file "mcc_generated_files/tmr5.c"
  9377 ;; Parameters:    Size  Location     Type
  9378 ;;		None
  9379 ;; Auto vars:     Size  Location     Type
  9380 ;;		None
  9381 ;; Return value:  Size  Location     Type
  9382 ;;                  1    wreg      void 
  9383 ;; Registers used:
  9384 ;;		wreg, status,2, status,0, cstack
  9385 ;; Tracked objects:
  9386 ;;		On entry : 0/0
  9387 ;;		On exit  : 0/0
  9388 ;;		Unchanged: 0/0
  9389 ;; Data sizes:     COMRAM   BANK0   BANK1   BANK2   BANK3   BANK4   BANK5   BANK6   BANK7   BANK8   BANK9  BANK10  BANK1
      +1  BANK12  BANK13  BANK14  BANK15
  9390 ;;      Params:         0       0       0       0       0       0       0       0       0       0       0       0       
      +0       0       0       0       0
  9391 ;;      Locals:         0       0       0       0       0       0       0       0       0       0       0       0       
      +0       0       0       0       0
  9392 ;;      Temps:          0       0       0       0       0       0       0       0       0       0       0       0       
      +0       0       0       0       0
  9393 ;;      Totals:         0       0       0       0       0       0       0       0       0       0       0       0       
      +0       0       0       0       0
  9394 ;;Total ram usage:        0 bytes
  9395 ;; Hardware stack levels used: 1
  9396 ;; Hardware stack levels required when called: 2
  9397 ;; This function calls:
  9398 ;;		_TMR5_ReadTimer
  9399 ;;		_TMR5_Reload
  9400 ;; This function is called by:
  9401 ;;		_TMR5_Initialize
  9402 ;;		_TMR5_GATE_ISR
  9403 ;; This function uses a non-reentrant model
  9404 ;;
  9405                           
  9406                           	psect	text74
  9407  003200                     __ptext74:
  9408                           	callstack 0
  9409  003200                     _TMR5_DefaultGateInterruptHandler:
  9410                           	callstack 12
  9411  003200                     
  9412                           ;mcc_generated_files/tmr5.c: 194:     distFront = TMR5_ReadTimer();
  9413  003200  ECD2  F018         	call	_TMR5_ReadTimer	;wreg free
  9414  003204  C00D  F029         	movff	?_TMR5_ReadTimer,_distFront	;volatile
  9415  003208  C00E  F02A         	movff	?_TMR5_ReadTimer+1,_distFront+1	;volatile
  9416  00320C                     
  9417                           ;mcc_generated_files/tmr5.c: 195:     distFront >>= 1;
  9418  00320C  90D8               	bcf	status,0,c
  9419  00320E  322A               	rrcf	(_distFront+1)^0,f,c	;volatile
  9420  003210  3229               	rrcf	_distFront^0,f,c	;volatile
  9421  003212                     
  9422                           ;mcc_generated_files/tmr5.c: 196:     TMR5_Reload();
  9423  003212  EC55  F019         	call	_TMR5_Reload	;wreg free
  9424  003216                     
  9425                           ;mcc_generated_files/tmr5.c: 197:     PIR8bits.TMR5GIF = 0;
  9426  003216  0139               	movlb	57	; () banked
  9427  003218  9FA8               	bcf	168,7,b	;volatile
  9428  00321A                     
  9429                           ; BSR set to: 57
  9430  00321A  0012               	return		;funcret
  9431  00321C                     __end_of_TMR5_DefaultGateInterruptHandler:
  9432                           	callstack 0
  9433                           
  9434 ;; *************** function _TMR5_Reload *****************
  9435 ;; Defined at:
  9436 ;;		line 155 in file "mcc_generated_files/tmr5.c"
  9437 ;; Parameters:    Size  Location     Type
  9438 ;;		None
  9439 ;; Auto vars:     Size  Location     Type
  9440 ;;		None
  9441 ;; Return value:  Size  Location     Type
  9442 ;;                  1    wreg      void 
  9443 ;; Registers used:
  9444 ;;		wreg, status,2, cstack
  9445 ;; Tracked objects:
  9446 ;;		On entry : 0/0
  9447 ;;		On exit  : 0/0
  9448 ;;		Unchanged: 0/0
  9449 ;; Data sizes:     COMRAM   BANK0   BANK1   BANK2   BANK3   BANK4   BANK5   BANK6   BANK7   BANK8   BANK9  BANK10  BANK1
      +1  BANK12  BANK13  BANK14  BANK15
  9450 ;;      Params:         0       0       0       0       0       0       0       0       0       0       0       0       
      +0       0       0       0       0
  9451 ;;      Locals:         0       0       0       0       0       0       0       0       0       0       0       0       
      +0       0       0       0       0
  9452 ;;      Temps:          0       0       0       0       0       0       0       0       0       0       0       0       
      +0       0       0       0       0
  9453 ;;      Totals:         0       0       0       0       0       0       0       0       0       0       0       0       
      +0       0       0       0       0
  9454 ;;Total ram usage:        0 bytes
  9455 ;; Hardware stack levels used: 1
  9456 ;; Hardware stack levels required when called: 1
  9457 ;; This function calls:
  9458 ;;		_TMR5_WriteTimer
  9459 ;; This function is called by:
  9460 ;;		_TMR5_DefaultGateInterruptHandler
  9461 ;; This function uses a non-reentrant model
  9462 ;;
  9463                           
  9464                           	psect	text75
  9465  0032AA                     __ptext75:
  9466                           	callstack 0
  9467  0032AA                     _TMR5_Reload:
  9468                           	callstack 12
  9469  0032AA                     
  9470                           ;mcc_generated_files/tmr5.c: 157:     TMR5_WriteTimer(timer5ReloadVal);
  9471  0032AA  C0E9  F00D         	movff	_timer5ReloadVal,TMR5_WriteTimer@timerVal	;volatile
  9472  0032AE  C0EA  F00E         	movff	_timer5ReloadVal+1,TMR5_WriteTimer@timerVal+1	;volatile
  9473  0032B2  EC81  F018         	call	_TMR5_WriteTimer	;wreg free
  9474  0032B6  0012               	return		;funcret
  9475  0032B8                     __end_of_TMR5_Reload:
  9476                           	callstack 0
  9477                           
  9478 ;; *************** function _TMR5_WriteTimer *****************
  9479 ;; Defined at:
  9480 ;;		line 133 in file "mcc_generated_files/tmr5.c"
  9481 ;; Parameters:    Size  Location     Type
  9482 ;;  timerVal        2   12[COMRAM] unsigned short 
  9483 ;; Auto vars:     Size  Location     Type
  9484 ;;		None
  9485 ;; Return value:  Size  Location     Type
  9486 ;;                  1    wreg      void 
  9487 ;; Registers used:
  9488 ;;		wreg, status,2
  9489 ;; Tracked objects:
  9490 ;;		On entry : 0/0
  9491 ;;		On exit  : 0/0
  9492 ;;		Unchanged: 0/0
  9493 ;; Data sizes:     COMRAM   BANK0   BANK1   BANK2   BANK3   BANK4   BANK5   BANK6   BANK7   BANK8   BANK9  BANK10  BANK1
      +1  BANK12  BANK13  BANK14  BANK15
  9494 ;;      Params:         2       0       0       0       0       0       0       0       0       0       0       0       
      +0       0       0       0       0
  9495 ;;      Locals:         0       0       0       0       0       0       0       0       0       0       0       0       
      +0       0       0       0       0
  9496 ;;      Temps:          0       0       0       0       0       0       0       0       0       0       0       0       
      +0       0       0       0       0
  9497 ;;      Totals:         2       0       0       0       0       0       0       0       0       0       0       0       
      +0       0       0       0       0
  9498 ;;Total ram usage:        2 bytes
  9499 ;; Hardware stack levels used: 1
  9500 ;; This function calls:
  9501 ;;		Nothing
  9502 ;; This function is called by:
  9503 ;;		_TMR5_Reload
  9504 ;; This function uses a non-reentrant model
  9505 ;;
  9506                           
  9507                           	psect	text76
  9508  003102                     __ptext76:
  9509                           	callstack 0
  9510  003102                     _TMR5_WriteTimer:
  9511                           	callstack 12
  9512  003102                     
  9513                           ;mcc_generated_files/tmr5.c: 133: void TMR5_WriteTimer(uint16_t timerVal);mcc_generated_
      +                          files/tmr5.c: 134: {;mcc_generated_files/tmr5.c: 135:     if (T5CONbits.NOT_SYNC == 1)
  9514  003102  A49A               	btfss	154,2,c	;volatile
  9515  003104  EF86  F018         	goto	i2u208_41
  9516  003108  EF88  F018         	goto	i2u208_40
  9517  00310C                     i2u208_41:
  9518  00310C  EF91  F018         	goto	i2l3844
  9519  003110                     i2u208_40:
  9520  003110                     
  9521                           ;mcc_generated_files/tmr5.c: 136:     {;mcc_generated_files/tmr5.c: 138:         T5CONbi
      +                          ts.TMR5ON = 0;
  9522  003110  909A               	bcf	154,0,c	;volatile
  9523  003112                     
  9524                           ;mcc_generated_files/tmr5.c: 141:         TMR5H = (uint8_t)(timerVal >> 8);
  9525  003112  500E               	movf	(TMR5_WriteTimer@timerVal+1)^0,w,c
  9526  003114  6E99               	movwf	153,c	;volatile
  9527  003116                     
  9528                           ;mcc_generated_files/tmr5.c: 142:         TMR5L = (uint8_t)timerVal;
  9529  003116  0060  F037  FF98   	movff	TMR5_WriteTimer@timerVal,16280	;volatile
  9530  00311C                     
  9531                           ;mcc_generated_files/tmr5.c: 145:         T5CONbits.TMR5ON =1;
  9532  00311C  809A               	bsf	154,0,c	;volatile
  9533                           
  9534                           ;mcc_generated_files/tmr5.c: 146:     }
  9535  00311E  EF96  F018         	goto	i2l534
  9536  003122                     i2l3844:
  9537                           
  9538                           ;mcc_generated_files/tmr5.c: 148:     {;mcc_generated_files/tmr5.c: 150:         TMR5H =
      +                           (uint8_t)(timerVal >> 8);
  9539  003122  500E               	movf	(TMR5_WriteTimer@timerVal+1)^0,w,c
  9540  003124  6E99               	movwf	153,c	;volatile
  9541  003126                     
  9542                           ;mcc_generated_files/tmr5.c: 151:         TMR5L = (uint8_t)timerVal;
  9543  003126  0060  F037  FF98   	movff	TMR5_WriteTimer@timerVal,16280	;volatile
  9544  00312C                     i2l534:
  9545  00312C  0012               	return		;funcret
  9546  00312E                     __end_of_TMR5_WriteTimer:
  9547                           	callstack 0
  9548                           
  9549 ;; *************** function _TMR5_ReadTimer *****************
  9550 ;; Defined at:
  9551 ;;		line 117 in file "mcc_generated_files/tmr5.c"
  9552 ;; Parameters:    Size  Location     Type
  9553 ;;		None
  9554 ;; Auto vars:     Size  Location     Type
  9555 ;;  readVal         2   16[COMRAM] unsigned short 
  9556 ;;  readValLow      1   19[COMRAM] unsigned char 
  9557 ;;  readValHigh     1   18[COMRAM] unsigned char 
  9558 ;; Return value:  Size  Location     Type
  9559 ;;                  2   12[COMRAM] unsigned short 
  9560 ;; Registers used:
  9561 ;;		wreg, status,2
  9562 ;; Tracked objects:
  9563 ;;		On entry : 0/0
  9564 ;;		On exit  : 0/0
  9565 ;;		Unchanged: 0/0
  9566 ;; Data sizes:     COMRAM   BANK0   BANK1   BANK2   BANK3   BANK4   BANK5   BANK6   BANK7   BANK8   BANK9  BANK10  BANK1
      +1  BANK12  BANK13  BANK14  BANK15
  9567 ;;      Params:         2       0       0       0       0       0       0       0       0       0       0       0       
      +0       0       0       0       0
  9568 ;;      Locals:         4       0       0       0       0       0       0       0       0       0       0       0       
      +0       0       0       0       0
  9569 ;;      Temps:          2       0       0       0       0       0       0       0       0       0       0       0       
      +0       0       0       0       0
  9570 ;;      Totals:         8       0       0       0       0       0       0       0       0       0       0       0       
      +0       0       0       0       0
  9571 ;;Total ram usage:        8 bytes
  9572 ;; Hardware stack levels used: 1
  9573 ;; This function calls:
  9574 ;;		Nothing
  9575 ;; This function is called by:
  9576 ;;		_TMR5_DefaultGateInterruptHandler
  9577 ;; This function uses a non-reentrant model
  9578 ;;
  9579                           
  9580                           	psect	text77
  9581  0031A4                     __ptext77:
  9582                           	callstack 0
  9583  0031A4                     _TMR5_ReadTimer:
  9584                           	callstack 13
  9585  0031A4                     
  9586                           ;mcc_generated_files/tmr5.c: 119:     uint16_t readVal;;mcc_generated_files/tmr5.c: 120:
      +                               uint8_t readValHigh;;mcc_generated_files/tmr5.c: 121:     uint8_t readValLow;;mcc_g
      +                          enerated_files/tmr5.c: 123:     T5CONbits.T5RD16 = 1;
  9587  0031A4  829A               	bsf	154,1,c	;volatile
  9588                           
  9589                           ;mcc_generated_files/tmr5.c: 125:     readValLow = TMR5L;
  9590  0031A6  006F FE60  F014    	movff	16280,TMR5_ReadTimer@readValLow	;volatile
  9591                           
  9592                           ;mcc_generated_files/tmr5.c: 126:     readValHigh = TMR5H;
  9593  0031AC  006F FE64  F013    	movff	16281,TMR5_ReadTimer@readValHigh	;volatile
  9594  0031B2                     
  9595                           ;mcc_generated_files/tmr5.c: 128:     readVal = ((uint16_t)readValHigh << 8) | readValLo
      +                          w;
  9596  0031B2  5013               	movf	TMR5_ReadTimer@readValHigh^0,w,c
  9597  0031B4  6E0F               	movwf	??_TMR5_ReadTimer^0,c
  9598  0031B6  5014               	movf	TMR5_ReadTimer@readValLow^0,w,c
  9599  0031B8  6E11               	movwf	TMR5_ReadTimer@readVal^0,c
  9600  0031BA  C00F  F012         	movff	??_TMR5_ReadTimer,TMR5_ReadTimer@readVal+1
  9601  0031BE                     
  9602                           ;mcc_generated_files/tmr5.c: 130:     return readVal;
  9603  0031BE  C011  F00D         	movff	TMR5_ReadTimer@readVal,?_TMR5_ReadTimer
  9604  0031C2  C012  F00E         	movff	TMR5_ReadTimer@readVal+1,?_TMR5_ReadTimer+1
  9605  0031C6  0012               	return		;funcret
  9606  0031C8                     __end_of_TMR5_ReadTimer:
  9607                           	callstack 0
  9608                           
  9609 ;; *************** function _SMT1_PR_ACQ_ISR *****************
  9610 ;; Defined at:
  9611 ;;		line 192 in file "mcc_generated_files/smt1.c"
  9612 ;; Parameters:    Size  Location     Type
  9613 ;;		None
  9614 ;; Auto vars:     Size  Location     Type
  9615 ;;		None
  9616 ;; Return value:  Size  Location     Type
  9617 ;;                  1    wreg      void 
  9618 ;; Registers used:
  9619 ;;		wreg, status,2, status,0
  9620 ;; Tracked objects:
  9621 ;;		On entry : 0/0
  9622 ;;		On exit  : 0/0
  9623 ;;		Unchanged: 0/0
  9624 ;; Data sizes:     COMRAM   BANK0   BANK1   BANK2   BANK3   BANK4   BANK5   BANK6   BANK7   BANK8   BANK9  BANK10  BANK1
      +1  BANK12  BANK13  BANK14  BANK15
  9625 ;;      Params:         0       0       0       0       0       0       0       0       0       0       0       0       
      +0       0       0       0       0
  9626 ;;      Locals:         0       0       0       0       0       0       0       0       0       0       0       0       
      +0       0       0       0       0
  9627 ;;      Temps:          0       0       0       0       0       0       0       0       0       0       0       0       
      +0       0       0       0       0
  9628 ;;      Totals:         0       0       0       0       0       0       0       0       0       0       0       0       
      +0       0       0       0       0
  9629 ;;Total ram usage:        0 bytes
  9630 ;; Hardware stack levels used: 1
  9631 ;; This function calls:
  9632 ;;		Nothing
  9633 ;; This function is called by:
  9634 ;;		Interrupt level 2
  9635 ;; This function uses a non-reentrant model
  9636 ;;
  9637                           
  9638                           	psect	text78
  9639  002CF0                     __ptext78:
  9640                           	callstack 0
  9641  002CF0                     _SMT1_PR_ACQ_ISR:
  9642                           	callstack 15
  9643  002CF0                     
  9644                           ;mcc_generated_files/smt1.c: 196:     PIR1bits.SMT1PRAIF = 0;
  9645  002CF0  0139               	movlb	57	; () banked
  9646  002CF2  9DA1               	bcf	161,6,b	;volatile
  9647  002CF4                     
  9648                           ; BSR set to: 57
  9649                           ;mcc_generated_files/smt1.c: 197:     smtPeriod = SMT1CPR;
  9650  002CF4  013F               	movlb	63	; () banked
  9651  002CF6  5115               	movf	21,w,b	;volatile
  9652  002CF8  6E39               	movwf	_smtPeriod^0,c	;volatile
  9653  002CFA  5116               	movf	22,w,b	;volatile
  9654  002CFC  6E3A               	movwf	(_smtPeriod+1)^0,c	;volatile
  9655  002CFE  5117               	movf	23,w,b	;volatile
  9656  002D00  6E3B               	movwf	(_smtPeriod+2)^0,c	;volatile
  9657  002D02  6A3C               	clrf	(_smtPeriod+3)^0,c	;volatile
  9658  002D04                     
  9659                           ; BSR set to: 63
  9660                           ;mcc_generated_files/smt1.c: 198:     if(CLC3CONbits.LC3OUT) smtWay++;
  9661  002D04  013C               	movlb	60	; () banked
  9662  002D06  AB60               	btfss	96,5,b	;volatile
  9663  002D08  EF88  F016         	goto	i2u292_41
  9664  002D0C  EF8A  F016         	goto	i2u292_40
  9665  002D10                     i2u292_41:
  9666  002D10  EF93  F016         	goto	i2l4518
  9667  002D14                     i2u292_40:
  9668  002D14                     
  9669                           ; BSR set to: 60
  9670  002D14  0E01               	movlw	1
  9671  002D16  0100               	movlb	0	; () banked
  9672  002D18  27C8               	addwf	_smtWay& (0+255),f,b	;volatile
  9673  002D1A  0E00               	movlw	0
  9674  002D1C  23C9               	addwfc	(_smtWay+1)& (0+255),f,b	;volatile
  9675  002D1E  23CA               	addwfc	(_smtWay+2)& (0+255),f,b	;volatile
  9676  002D20  23CB               	addwfc	(_smtWay+3)& (0+255),f,b	;volatile
  9677  002D22  EF9C  F016         	goto	i2l856
  9678  002D26                     i2l4518:
  9679                           
  9680                           ; BSR set to: 60
  9681  002D26  0EFF               	movlw	255
  9682  002D28  0100               	movlb	0	; () banked
  9683  002D2A  27C8               	addwf	_smtWay& (0+255),f,b	;volatile
  9684  002D2C  0EFF               	movlw	255
  9685  002D2E  23C9               	addwfc	(_smtWay+1)& (0+255),f,b	;volatile
  9686  002D30  0EFF               	movlw	255
  9687  002D32  23CA               	addwfc	(_smtWay+2)& (0+255),f,b	;volatile
  9688  002D34  0EFF               	movlw	255
  9689  002D36  23CB               	addwfc	(_smtWay+3)& (0+255),f,b	;volatile
  9690  002D38                     i2l856:
  9691                           
  9692                           ; BSR set to: 0
  9693  002D38  0011               	retfie		f
  9694  002D3A                     __end_of_SMT1_PR_ACQ_ISR:
  9695                           	callstack 0
  9696                           
  9697 ;; *************** function _SMT1_PW_ACQ_ISR *****************
  9698 ;; Defined at:
  9699 ;;		line 203 in file "mcc_generated_files/smt1.c"
  9700 ;; Parameters:    Size  Location     Type
  9701 ;;		None
  9702 ;; Auto vars:     Size  Location     Type
  9703 ;;		None
  9704 ;; Return value:  Size  Location     Type
  9705 ;;                  1    wreg      void 
  9706 ;; Registers used:
  9707 ;;		wreg, status,2, status,0
  9708 ;; Tracked objects:
  9709 ;;		On entry : 0/0
  9710 ;;		On exit  : 0/0
  9711 ;;		Unchanged: 0/0
  9712 ;; Data sizes:     COMRAM   BANK0   BANK1   BANK2   BANK3   BANK4   BANK5   BANK6   BANK7   BANK8   BANK9  BANK10  BANK1
      +1  BANK12  BANK13  BANK14  BANK15
  9713 ;;      Params:         0       0       0       0       0       0       0       0       0       0       0       0       
      +0       0       0       0       0
  9714 ;;      Locals:         0       0       0       0       0       0       0       0       0       0       0       0       
      +0       0       0       0       0
  9715 ;;      Temps:          0       0       0       0       0       0       0       0       0       0       0       0       
      +0       0       0       0       0
  9716 ;;      Totals:         0       0       0       0       0       0       0       0       0       0       0       0       
      +0       0       0       0       0
  9717 ;;Total ram usage:        0 bytes
  9718 ;; Hardware stack levels used: 1
  9719 ;; This function calls:
  9720 ;;		Nothing
  9721 ;; This function is called by:
  9722 ;;		Interrupt level 2
  9723 ;; This function uses a non-reentrant model
  9724 ;;
  9725                           
  9726                           	psect	text79
  9727  0029E4                     __ptext79:
  9728                           	callstack 0
  9729  0029E4                     _SMT1_PW_ACQ_ISR:
  9730                           	callstack 15
  9731  0029E4                     
  9732                           ;mcc_generated_files/smt1.c: 207:     PIR1bits.SMT1PWAIF = 0;
  9733  0029E4  0139               	movlb	57	; () banked
  9734  0029E6  9FA1               	bcf	161,7,b	;volatile
  9735  0029E8                     
  9736                           ; BSR set to: 57
  9737                           ;mcc_generated_files/smt1.c: 208:     smtDuty = SMT1CPW;
  9738  0029E8  013F               	movlb	63	; () banked
  9739  0029EA  5118               	movf	24,w,b	;volatile
  9740  0029EC  0100               	movlb	0	; () banked
  9741  0029EE  6FCC               	movwf	_smtDuty& (0+255),b	;volatile
  9742  0029F0  013F               	movlb	63	; () banked
  9743  0029F2  5119               	movf	25,w,b	;volatile
  9744  0029F4  0100               	movlb	0	; () banked
  9745  0029F6  6FCD               	movwf	(_smtDuty+1)& (0+255),b	;volatile
  9746  0029F8  013F               	movlb	63	; () banked
  9747  0029FA  511A               	movf	26,w,b	;volatile
  9748  0029FC  0100               	movlb	0	; () banked
  9749  0029FE  6FCE               	movwf	(_smtDuty+2)& (0+255),b	;volatile
  9750  002A00  6BCF               	clrf	(_smtDuty+3)& (0+255),b	;volatile
  9751  002A02                     
  9752                           ; BSR set to: 0
  9753                           ;mcc_generated_files/smt1.c: 209:     if(CLC3CONbits.LC3OUT) smtWay++;
  9754  002A02  013C               	movlb	60	; () banked
  9755  002A04  AB60               	btfss	96,5,b	;volatile
  9756  002A06  EF07  F015         	goto	i2u293_41
  9757  002A0A  EF09  F015         	goto	i2u293_40
  9758  002A0E                     i2u293_41:
  9759  002A0E  EF12  F015         	goto	i2l4528
  9760  002A12                     i2u293_40:
  9761  002A12                     
  9762                           ; BSR set to: 60
  9763  002A12  0E01               	movlw	1
  9764  002A14  0100               	movlb	0	; () banked
  9765  002A16  27C8               	addwf	_smtWay& (0+255),f,b	;volatile
  9766  002A18  0E00               	movlw	0
  9767  002A1A  23C9               	addwfc	(_smtWay+1)& (0+255),f,b	;volatile
  9768  002A1C  23CA               	addwfc	(_smtWay+2)& (0+255),f,b	;volatile
  9769  002A1E  23CB               	addwfc	(_smtWay+3)& (0+255),f,b	;volatile
  9770  002A20  EF1B  F015         	goto	i2l863
  9771  002A24                     i2l4528:
  9772                           
  9773                           ; BSR set to: 60
  9774  002A24  0EFF               	movlw	255
  9775  002A26  0100               	movlb	0	; () banked
  9776  002A28  27C8               	addwf	_smtWay& (0+255),f,b	;volatile
  9777  002A2A  0EFF               	movlw	255
  9778  002A2C  23C9               	addwfc	(_smtWay+1)& (0+255),f,b	;volatile
  9779  002A2E  0EFF               	movlw	255
  9780  002A30  23CA               	addwfc	(_smtWay+2)& (0+255),f,b	;volatile
  9781  002A32  0EFF               	movlw	255
  9782  002A34  23CB               	addwfc	(_smtWay+3)& (0+255),f,b	;volatile
  9783  002A36                     i2l863:
  9784                           
  9785                           ; BSR set to: 0
  9786  002A36  0011               	retfie		f
  9787  002A38                     __end_of_SMT1_PW_ACQ_ISR:
  9788                           	callstack 0
  9789                           
  9790 ;; *************** function _SMT1_Overflow_ISR *****************
  9791 ;; Defined at:
  9792 ;;		line 213 in file "mcc_generated_files/smt1.c"
  9793 ;; Parameters:    Size  Location     Type
  9794 ;;		None
  9795 ;; Auto vars:     Size  Location     Type
  9796 ;;		None
  9797 ;; Return value:  Size  Location     Type
  9798 ;;                  1    wreg      void 
  9799 ;; Registers used:
  9800 ;;		wreg, status,2
  9801 ;; Tracked objects:
  9802 ;;		On entry : 0/0
  9803 ;;		On exit  : 0/0
  9804 ;;		Unchanged: 0/0
  9805 ;; Data sizes:     COMRAM   BANK0   BANK1   BANK2   BANK3   BANK4   BANK5   BANK6   BANK7   BANK8   BANK9  BANK10  BANK1
      +1  BANK12  BANK13  BANK14  BANK15
  9806 ;;      Params:         0       0       0       0       0       0       0       0       0       0       0       0       
      +0       0       0       0       0
  9807 ;;      Locals:         0       0       0       0       0       0       0       0       0       0       0       0       
      +0       0       0       0       0
  9808 ;;      Temps:          0       0       0       0       0       0       0       0       0       0       0       0       
      +0       0       0       0       0
  9809 ;;      Totals:         0       0       0       0       0       0       0       0       0       0       0       0       
      +0       0       0       0       0
  9810 ;;Total ram usage:        0 bytes
  9811 ;; Hardware stack levels used: 1
  9812 ;; This function calls:
  9813 ;;		Nothing
  9814 ;; This function is called by:
  9815 ;;		Interrupt level 2
  9816 ;; This function uses a non-reentrant model
  9817 ;;
  9818                           
  9819                           	psect	text80
  9820  003158                     __ptext80:
  9821                           	callstack 0
  9822  003158                     _SMT1_Overflow_ISR:
  9823                           	callstack 15
  9824  003158                     
  9825                           ;mcc_generated_files/smt1.c: 217:     PIR1bits.SMT1IF = 0;
  9826  003158  0139               	movlb	57	; () banked
  9827  00315A  9BA1               	bcf	161,5,b	;volatile
  9828  00315C                     
  9829                           ; BSR set to: 57
  9830                           ;mcc_generated_files/smt1.c: 218:     smtPeriod = 0;
  9831  00315C  0E00               	movlw	0
  9832  00315E  6E39               	movwf	_smtPeriod^0,c	;volatile
  9833  003160  0E00               	movlw	0
  9834  003162  6E3A               	movwf	(_smtPeriod+1)^0,c	;volatile
  9835  003164  0E00               	movlw	0
  9836  003166  6E3B               	movwf	(_smtPeriod+2)^0,c	;volatile
  9837  003168  0E00               	movlw	0
  9838  00316A  6E3C               	movwf	(_smtPeriod+3)^0,c	;volatile
  9839                           
  9840                           ;mcc_generated_files/smt1.c: 219:     smtDuty = 0;
  9841  00316C  0E00               	movlw	0
  9842  00316E  0100               	movlb	0	; () banked
  9843  003170  6FCC               	movwf	_smtDuty& (0+255),b	;volatile
  9844  003172  0E00               	movlw	0
  9845  003174  6FCD               	movwf	(_smtDuty+1)& (0+255),b	;volatile
  9846  003176  0E00               	movlw	0
  9847  003178  6FCE               	movwf	(_smtDuty+2)& (0+255),b	;volatile
  9848  00317A  0E00               	movlw	0
  9849  00317C  6FCF               	movwf	(_smtDuty+3)& (0+255),b	;volatile
  9850  00317E                     
  9851                           ; BSR set to: 0
  9852  00317E  0011               	retfie		f
  9853  003180                     __end_of_SMT1_Overflow_ISR:
  9854                           	callstack 0
  9855                           
  9856                           ;
  9857                           ; Interrupt Vector Table @ 0x8
  9858                           ;
  9859                           
  9860                           	psect	ivt0x8
  9861  000008                     __pivt0x8:
  9862                           	callstack 0
  9863  000008                     ivt0x8_base:
  9864                           	callstack 0
  9865                           
  9866                           ; Vector 0 : SWINT
  9867  000008  0CCE               	dw	_Default_ISR shr (0+2)
  9868                           
  9869                           ; Vector 1 : HLVD
  9870  00000A  0CCE               	dw	_Default_ISR shr (0+2)
  9871                           
  9872                           ; Vector 2 : OSF
  9873  00000C  0CCE               	dw	_Default_ISR shr (0+2)
  9874                           
  9875                           ; Vector 3 : CSW
  9876  00000E  0CCE               	dw	_Default_ISR shr (0+2)
  9877                           
  9878                           ; Vector 4 : NVM
  9879  000010  0CCE               	dw	_Default_ISR shr (0+2)
  9880                           
  9881                           ; Vector 5 : SCAN
  9882  000012  0CCE               	dw	_Default_ISR shr (0+2)
  9883                           
  9884                           ; Vector 6 : CRC
  9885  000014  0CCE               	dw	_Default_ISR shr (0+2)
  9886                           
  9887                           ; Vector 7 : IOC
  9888  000016  0CCE               	dw	_Default_ISR shr (0+2)
  9889                           
  9890                           ; Vector 8 : INT0
  9891  000018  0CCE               	dw	_Default_ISR shr (0+2)
  9892                           
  9893                           ; Vector 9 : ZCD
  9894  00001A  0CCE               	dw	_Default_ISR shr (0+2)
  9895                           
  9896                           ; Vector 10 : AD
  9897  00001C  0CCE               	dw	_Default_ISR shr (0+2)
  9898                           
  9899                           ; Vector 11 : ADT
  9900  00001E  0CCE               	dw	_Default_ISR shr (0+2)
  9901                           
  9902                           ; Vector 12 : CMP1
  9903  000020  0CCE               	dw	_Default_ISR shr (0+2)
  9904                           
  9905                           ; Vector 13 : SMT1
  9906  000022  0C56               	dw	_SMT1_Overflow_ISR shr (0+2)
  9907                           
  9908                           ; Vector 14 : SMT1PRA
  9909  000024  0B3C               	dw	_SMT1_PR_ACQ_ISR shr (0+2)
  9910                           
  9911                           ; Vector 15 : SMT1PRW
  9912  000026  0A79               	dw	_SMT1_PW_ACQ_ISR shr (0+2)
  9913                           
  9914                           ; Vector 16 : DMA1SCNT
  9915  000028  0CCE               	dw	_Default_ISR shr (0+2)
  9916                           
  9917                           ; Vector 17 : DMA1DCNT
  9918  00002A  0CCE               	dw	_Default_ISR shr (0+2)
  9919                           
  9920                           ; Vector 18 : DMA1OR
  9921  00002C  0CCE               	dw	_Default_ISR shr (0+2)
  9922                           
  9923                           ; Vector 19 : DMA1A
  9924  00002E  0CCE               	dw	_Default_ISR shr (0+2)
  9925                           
  9926                           ; Vector 20 : SPI1RX
  9927  000030  0CCE               	dw	_Default_ISR shr (0+2)
  9928                           
  9929                           ; Vector 21 : SPI1TX
  9930  000032  0CCE               	dw	_Default_ISR shr (0+2)
  9931                           
  9932                           ; Vector 22 : SPI1
  9933  000034  0CCE               	dw	_Default_ISR shr (0+2)
  9934                           
  9935                           ; Vector 23 : I2C1RX
  9936  000036  0CCE               	dw	_Default_ISR shr (0+2)
  9937                           
  9938                           ; Vector 24 : I2C1TX
  9939  000038  0CCE               	dw	_Default_ISR shr (0+2)
  9940                           
  9941                           ; Vector 25 : I2C1
  9942  00003A  0CCE               	dw	_Default_ISR shr (0+2)
  9943                           
  9944                           ; Vector 26 : I2C1E
  9945  00003C  0CCE               	dw	_Default_ISR shr (0+2)
  9946                           
  9947                           ; Vector 27 : U1RX
  9948  00003E  0AA3               	dw	_UART1_rx_vect_isr shr (0+2)
  9949                           
  9950                           ; Vector 28 : U1TX
  9951  000040  0A8E               	dw	_UART1_tx_vect_isr shr (0+2)
  9952                           
  9953                           ; Vector 29 : U1E
  9954  000042  0CCE               	dw	_Default_ISR shr (0+2)
  9955                           
  9956                           ; Vector 30 : U1
  9957  000044  0CCE               	dw	_Default_ISR shr (0+2)
  9958                           
  9959                           ; Vector 31 : TMR0
  9960  000046  0CCE               	dw	_Default_ISR shr (0+2)
  9961                           
  9962                           ; Vector 32 : TMR1
  9963  000048  0CCE               	dw	_Default_ISR shr (0+2)
  9964                           
  9965                           ; Vector 33 : TMR1G
  9966  00004A  0CCE               	dw	_Default_ISR shr (0+2)
  9967                           
  9968                           ; Vector 34 : TMR2
  9969  00004C  0CCE               	dw	_Default_ISR shr (0+2)
  9970                           
  9971                           ; Vector 35 : CCP1
  9972  00004E  0CCE               	dw	_Default_ISR shr (0+2)
  9973                           
  9974                           ; Vector 36 : Undefined
  9975  000050  002B               	dw	ivt0x8_undefint shr (0+2)
  9976                           
  9977                           ; Vector 37 : NCO1
  9978  000052  0CCE               	dw	_Default_ISR shr (0+2)
  9979                           
  9980                           ; Vector 38 : CWG1
  9981  000054  0CCE               	dw	_Default_ISR shr (0+2)
  9982                           
  9983                           ; Vector 39 : CLC1
  9984  000056  0CCE               	dw	_Default_ISR shr (0+2)
  9985                           
  9986                           ; Vector 40 : INT1
  9987  000058  0CCE               	dw	_Default_ISR shr (0+2)
  9988                           
  9989                           ; Vector 41 : CMP2
  9990  00005A  0CCE               	dw	_Default_ISR shr (0+2)
  9991                           
  9992                           ; Vector 42 : DMA2SCNT
  9993  00005C  0CCE               	dw	_Default_ISR shr (0+2)
  9994                           
  9995                           ; Vector 43 : DMA2DCNT
  9996  00005E  0CCE               	dw	_Default_ISR shr (0+2)
  9997                           
  9998                           ; Vector 44 : DMA2OR
  9999  000060  0CCE               	dw	_Default_ISR shr (0+2)
 10000                           
 10001                           ; Vector 45 : DMA2A
 10002  000062  0CCE               	dw	_Default_ISR shr (0+2)
 10003                           
 10004                           ; Vector 46 : I2C2RX
 10005  000064  0CCE               	dw	_Default_ISR shr (0+2)
 10006                           
 10007                           ; Vector 47 : I2C2TX
 10008  000066  0CCE               	dw	_Default_ISR shr (0+2)
 10009                           
 10010                           ; Vector 48 : I2C2
 10011  000068  0CCE               	dw	_Default_ISR shr (0+2)
 10012                           
 10013                           ; Vector 49 : I2C2E
 10014  00006A  0CCE               	dw	_Default_ISR shr (0+2)
 10015                           
 10016                           ; Vector 50 : U2RX
 10017  00006C  0CCE               	dw	_Default_ISR shr (0+2)
 10018                           
 10019                           ; Vector 51 : U2TX
 10020  00006E  0CCE               	dw	_Default_ISR shr (0+2)
 10021                           
 10022                           ; Vector 52 : U2E
 10023  000070  0CCE               	dw	_Default_ISR shr (0+2)
 10024                           
 10025                           ; Vector 53 : U2
 10026  000072  0CCE               	dw	_Default_ISR shr (0+2)
 10027                           
 10028                           ; Vector 54 : TMR3
 10029  000074  0CCE               	dw	_Default_ISR shr (0+2)
 10030                           
 10031                           ; Vector 55 : TMR3G
 10032  000076  0CCE               	dw	_Default_ISR shr (0+2)
 10033                           
 10034                           ; Vector 56 : TMR4
 10035  000078  0AB7               	dw	_TMR4_ISR shr (0+2)
 10036                           
 10037                           ; Vector 57 : CCP2
 10038  00007A  0CCE               	dw	_Default_ISR shr (0+2)
 10039                           
 10040                           ; Vector 58 : Undefined
 10041  00007C  002B               	dw	ivt0x8_undefint shr (0+2)
 10042                           
 10043                           ; Vector 59 : CWG2
 10044  00007E  0CCE               	dw	_Default_ISR shr (0+2)
 10045                           
 10046                           ; Vector 60 : CLC2
 10047  000080  0CCE               	dw	_Default_ISR shr (0+2)
 10048                           
 10049                           ; Vector 61 : INT2
 10050  000082  0CCE               	dw	_Default_ISR shr (0+2)
 10051                           
 10052                           ; Vector 62 : Undefined
 10053  000084  002B               	dw	ivt0x8_undefint shr (0+2)
 10054                           
 10055                           ; Vector 63 : Undefined
 10056  000086  002B               	dw	ivt0x8_undefint shr (0+2)
 10057                           
 10058                           ; Vector 64 : Undefined
 10059  000088  002B               	dw	ivt0x8_undefint shr (0+2)
 10060                           
 10061                           ; Vector 65 : Undefined
 10062  00008A  002B               	dw	ivt0x8_undefint shr (0+2)
 10063                           
 10064                           ; Vector 66 : Undefined
 10065  00008C  002B               	dw	ivt0x8_undefint shr (0+2)
 10066                           
 10067                           ; Vector 67 : Undefined
 10068  00008E  002B               	dw	ivt0x8_undefint shr (0+2)
 10069                           
 10070                           ; Vector 68 : Undefined
 10071  000090  002B               	dw	ivt0x8_undefint shr (0+2)
 10072                           
 10073                           ; Vector 69 : Undefined
 10074  000092  002B               	dw	ivt0x8_undefint shr (0+2)
 10075                           
 10076                           ; Vector 70 : TMR5
 10077  000094  0CCE               	dw	_Default_ISR shr (0+2)
 10078                           
 10079                           ; Vector 71 : TMR5G
 10080  000096  0B29               	dw	_TMR5_GATE_ISR shr (0+2)
 10081                           
 10082                           ; Vector 72 : TMR6
 10083  000098  0CCE               	dw	_Default_ISR shr (0+2)
 10084                           
 10085                           ; Vector 73 : CCP3
 10086  00009A  0ADE               	dw	_CCP3_CaptureISR shr (0+2)
 10087                           
 10088                           ; Vector 74 : CWG3
 10089  00009C  0CCE               	dw	_Default_ISR shr (0+2)
 10090                           
 10091                           ; Vector 75 : CLC3
 10092  00009E  0CCE               	dw	_Default_ISR shr (0+2)
 10093                           
 10094                           ; Vector 76 : Undefined
 10095  0000A0  002B               	dw	ivt0x8_undefint shr (0+2)
 10096                           
 10097                           ; Vector 77 : Undefined
 10098  0000A2  002B               	dw	ivt0x8_undefint shr (0+2)
 10099                           
 10100                           ; Vector 78 : Undefined
 10101  0000A4  002B               	dw	ivt0x8_undefint shr (0+2)
 10102                           
 10103                           ; Vector 79 : Undefined
 10104  0000A6  002B               	dw	ivt0x8_undefint shr (0+2)
 10105                           
 10106                           ; Vector 80 : CCP4
 10107  0000A8  0AF1               	dw	_CCP4_CaptureISR shr (0+2)
 10108                           
 10109                           ; Vector 81 : CLC4
 10110  0000AA  0CCE               	dw	_Default_ISR shr (0+2)
 10111  0000AC                     ivt0x8_undefint:
 10112                           	callstack 0
 10113  0000AC  00FF               	reset	
 10114                           
 10115                           	psect	text81
 10116  000000                     __ptext81:
 10117                           	callstack 0
 10118  000000                     
 10119                           	psect	rparam
 10120  0000                     
 10121                           	psect	idloc
 10122                           
 10123                           ;Config register IDLOC0 @ 0x200000
 10124                           ;	unspecified, using default values
 10125  200000                     	org	2097152
 10126  200000  0FFF               	dw	4095
 10127                           
 10128                           ;Config register IDLOC1 @ 0x200002
 10129                           ;	unspecified, using default values
 10130  200002                     	org	2097154
 10131  200002  0FFF               	dw	4095
 10132                           
 10133                           ;Config register IDLOC2 @ 0x200004
 10134                           ;	unspecified, using default values
 10135  200004                     	org	2097156
 10136  200004  0FFF               	dw	4095
 10137                           
 10138                           ;Config register IDLOC3 @ 0x200006
 10139                           ;	unspecified, using default values
 10140  200006                     	org	2097158
 10141  200006  0FFF               	dw	4095
 10142                           
 10143                           ;Config register IDLOC4 @ 0x200008
 10144                           ;	unspecified, using default values
 10145  200008                     	org	2097160
 10146  200008  0FFF               	dw	4095
 10147                           
 10148                           ;Config register IDLOC5 @ 0x20000A
 10149                           ;	unspecified, using default values
 10150  20000A                     	org	2097162
 10151  20000A  0FFF               	dw	4095
 10152                           
 10153                           ;Config register IDLOC6 @ 0x20000C
 10154                           ;	unspecified, using default values
 10155  20000C                     	org	2097164
 10156  20000C  0FFF               	dw	4095
 10157                           
 10158                           ;Config register IDLOC7 @ 0x20000E
 10159                           ;	unspecified, using default values
 10160  20000E                     	org	2097166
 10161  20000E  0FFF               	dw	4095
 10162                           
 10163                           	psect	config
 10164                           
 10165                           ;Config register CONFIG1L @ 0x300000
 10166                           ;	External Oscillator Selection
 10167                           ;	FEXTOSC = OFF, Oscillator not enabled
 10168                           ;	Reset Oscillator Selection
 10169                           ;	RSTOSC = HFINTOSC_64MHZ, HFINTOSC with HFFRQ = 64 MHz and CDIV = 1:1
 10170  300000                     	org	3145728
 10171  300000  8C                 	db	140
 10172                           
 10173                           ;Config register CONFIG1H @ 0x300001
 10174                           ;	Clock out Enable bit
 10175                           ;	CLKOUTEN = OFF, CLKOUT function is disabled
 10176                           ;	PRLOCKED One-Way Set Enable bit
 10177                           ;	PR1WAY = ON, PRLOCK bit can be cleared and set only once
 10178                           ;	Clock Switch Enable bit
 10179                           ;	CSWEN = ON, Writing to NOSC and NDIV is allowed
 10180                           ;	Fail-Safe Clock Monitor Enable bit
 10181                           ;	FCMEN = ON, Fail-Safe Clock Monitor enabled
 10182  300001                     	org	3145729
 10183  300001  FF                 	db	255
 10184                           
 10185                           ;Config register CONFIG2L @ 0x300002
 10186                           ;	MCLR Enable bit
 10187                           ;	MCLRE = EXTMCLR, If LVP = 0, MCLR pin is MCLR; If LVP = 1, RE3 pin function is MCLR
 10188                           ;	Power-up timer selection bits
 10189                           ;	PWRTS = PWRT_OFF, PWRT is disabled
 10190                           ;	Multi-vector enable bit
 10191                           ;	MVECEN = ON, Multi-vector enabled, Vector table used for interrupts
 10192                           ;	IVTLOCK bit One-way set enable bit
 10193                           ;	IVT1WAY = ON, IVTLOCK bit can be cleared and set only once
 10194                           ;	Low Power BOR Enable bit
 10195                           ;	LPBOREN = OFF, ULPBOR disabled
 10196                           ;	Brown-out Reset Enable bits
 10197                           ;	BOREN = SBORDIS, Brown-out Reset enabled , SBOREN bit is ignored
 10198  300002                     	org	3145730
 10199  300002  FF                 	db	255
 10200                           
 10201                           ;Config register CONFIG2H @ 0x300003
 10202                           ;	Brown-out Reset Voltage Selection bits
 10203                           ;	BORV = VBOR_2P45, Brown-out Reset Voltage (VBOR) set to 2.45V
 10204                           ;	ZCD Disable bit
 10205                           ;	ZCD = OFF, ZCD disabled. ZCD can be enabled by setting the ZCDSEN bit of ZCDCON
 10206                           ;	PPSLOCK bit One-Way Set Enable bit
 10207                           ;	PPS1WAY = ON, PPSLOCK bit can be cleared and set only once; PPS registers remain locke
      +                          d after one clear/set cycle
 10208                           ;	Stack Full/Underflow Reset Enable bit
 10209                           ;	STVREN = ON, Stack full/underflow will cause Reset
 10210                           ;	Debugger Enable bit
 10211                           ;	DEBUG = OFF, Background debugger disabled
 10212                           ;	Extended Instruction Set Enable bit
 10213                           ;	XINST = OFF, Extended Instruction Set and Indexed Addressing Mode disabled
 10214  300003                     	org	3145731
 10215  300003  FF                 	db	255
 10216                           
 10217                           ;Config register CONFIG3L @ 0x300004
 10218                           ;	WDT Period selection bits
 10219                           ;	WDTCPS = WDTCPS_31, Divider ratio 1:65536; software control of WDTPS
 10220                           ;	WDT operating mode
 10221                           ;	WDTE = OFF, WDT Disabled; SWDTEN is ignored
 10222  300004                     	org	3145732
 10223  300004  9F                 	db	159
 10224                           
 10225                           ;Config register CONFIG3H @ 0x300005
 10226                           ;	WDT Window Select bits
 10227                           ;	WDTCWS = WDTCWS_7, window always open (100%); software control; keyed access not requi
      +                          red
 10228                           ;	WDT input clock selector
 10229                           ;	WDTCCS = SC, Software Control
 10230  300005                     	org	3145733
 10231  300005  FF                 	db	255
 10232                           
 10233                           ;Config register CONFIG4L @ 0x300006
 10234                           ;	Boot Block Size selection bits
 10235                           ;	BBSIZE = BBSIZE_512, Boot Block size is 512 words
 10236                           ;	Boot Block enable bit
 10237                           ;	BBEN = OFF, Boot block disabled
 10238                           ;	Storage Area Flash enable bit
 10239                           ;	SAFEN = OFF, SAF disabled
 10240                           ;	Application Block write protection bit
 10241                           ;	WRTAPP = OFF, Application Block not write protected
 10242  300006                     	org	3145734
 10243  300006  FF                 	db	255
 10244                           
 10245                           ;Config register CONFIG4H @ 0x300007
 10246                           ;	Configuration Register Write Protection bit
 10247                           ;	WRTB = OFF, Configuration registers (300000-30000Bh) not write-protected
 10248                           ;	Boot Block Write Protection bit
 10249                           ;	WRTC = OFF, Boot Block (000000-0007FFh) not write-protected
 10250                           ;	Data EEPROM Write Protection bit
 10251                           ;	WRTD = OFF, Data EEPROM not write-protected
 10252                           ;	SAF Write protection bit
 10253                           ;	WRTSAF = OFF, SAF not Write Protected
 10254                           ;	Low Voltage Programming Enable bit
 10255                           ;	LVP = ON, Low voltage programming enabled. MCLR/VPP pin function is MCLR. MCLRE config
      +                          uration bit is ignored
 10256  300007                     	org	3145735
 10257  300007  FF                 	db	255
 10258                           
 10259                           ;Config register CONFIG5L @ 0x300008
 10260                           ;	PFM and Data EEPROM Code Protection bit
 10261                           ;	CP = OFF, PFM and Data EEPROM code protection disabled
 10262  300008                     	org	3145736
 10263  300008  FF                 	db	255
 10264                           
 10265                           ;Config register CONFIG5H @ 0x300009
 10266                           ;	unspecified, using default values
 10267  300009                     	org	3145737
 10268  300009  FF                 	db	255
 10269                           tosu	equ	0x3FFF
 10270                           tosh	equ	0x3FFE
 10271                           tosl	equ	0x3FFD
 10272                           stkptr	equ	0x3FFC
 10273                           pclatu	equ	0x3FFB
 10274                           pclath	equ	0x3FFA
 10275                           pcl	equ	0x3FF9
 10276                           tblptru	equ	0x3FF8
 10277                           tblptrh	equ	0x3FF7
 10278                           tblptrl	equ	0x3FF6
 10279                           tablat	equ	0x3FF5
 10280                           prodh	equ	0x3FF4
 10281                           prodl	equ	0x3FF3
 10282                           indf0	equ	0x3FEF
 10283                           postinc0	equ	0x3FEE
 10284                           postdec0	equ	0x3FED
 10285                           preinc0	equ	0x3FEC
 10286                           plusw0	equ	0x3FEB
 10287                           fsr0h	equ	0x3FEA
 10288                           fsr0l	equ	0x3FE9
 10289                           wreg	equ	0x3FE8
 10290                           indf1	equ	0x3FE7
 10291                           postinc1	equ	0x3FE6
 10292                           postdec1	equ	0x3FE5
 10293                           preinc1	equ	0x3FE4
 10294                           plusw1	equ	0x3FE3
 10295                           fsr1h	equ	0x3FE2
 10296                           fsr1l	equ	0x3FE1
 10297                           bsr	equ	0x3FE0
 10298                           indf2	equ	0x3FDF
 10299                           postinc2	equ	0x3FDE
 10300                           postdec2	equ	0x3FDD
 10301                           preinc2	equ	0x3FDC
 10302                           plusw2	equ	0x3FDB
 10303                           fsr2h	equ	0x3FDA
 10304                           fsr2l	equ	0x3FD9
 10305                           status	equ	0x3FD8

Data Sizes:
    Strings     17
    Constant    0
    Data        9
    BSS         107
    Persistent  25
    Stack       0

Auto Spaces:
    Space          Size  Autos    Used
    COMRAM           95     34      64
    BANK0           160     80     159
    BANK1           256     12      44
    BANK2           256      0       0
    BANK3           256      0       0
    BANK4           256      0       0
    BANK5           256      0       0
    BANK6           256      0       0
    BANK7           256      0       0
    BANK8           256      0       0
    BANK9           256      0       0
    BANK10          256      0       0
    BANK11          256      0       0
    BANK12          256      0       0
    BANK13          256      0       0
    BANK14          256      0       0
    BANK15          256      0       0

Pointer List with Targets:

    strlen@s	PTR const unsigned char  size(2) Largest target is 32
		 -> dbuf(BANK1[32]), 

    strlen@a	PTR const unsigned char  size(2) Largest target is 32
		 -> dbuf(BANK1[32]), 

    fputs@s	PTR const unsigned char  size(2) Largest target is 32
		 -> dbuf(BANK1[32]), 

    fputs@fp	PTR struct _IO_FILE size(2) Largest target is 0
		 -> NULL(NULL[0]), 

    S3347$source	PTR const unsigned char  size(2) Largest target is 0

    fputc@fp...source	PTR const unsigned char  size(2) Largest target is 0

    S3347$buffer	PTR unsigned char  size(2) Largest target is 0

    fputc@fp...buffer	PTR unsigned char  size(2) Largest target is 0

    fputc@fp	PTR struct _IO_FILE size(2) Largest target is 0
		 -> NULL(NULL[0]), 

    vfprintf@ap	PTR PTR void  size(2) Largest target is 2
		 -> printf@ap(BANK1[2]), 

    vfprintf@fp	PTR struct _IO_FILE size(2) Largest target is 0
		 -> NULL(NULL[0]), 

    vfprintf@fmt	PTR const unsigned char  size(2) Largest target is 11
		 -> STR_2(CODE[11]), STR_1(CODE[6]), 

    vfprintf@cfmt	PTR unsigned char  size(2) Largest target is 11
		 -> STR_2(CODE[11]), STR_1(CODE[6]), 

    vfpfcnvrt@fp	PTR struct _IO_FILE size(2) Largest target is 0
		 -> NULL(NULL[0]), 

    vfpfcnvrt@ap	PTR PTR void  size(2) Largest target is 2
		 -> printf@ap(BANK1[2]), 

    vfpfcnvrt@fmt	PTR PTR unsigned char  size(2) Largest target is 2
		 -> vfprintf@cfmt(BANK0[2]), 

    dtoa@fp	PTR struct _IO_FILE size(2) Largest target is 0
		 -> NULL(NULL[0]), 

    pad@fp	PTR struct _IO_FILE size(2) Largest target is 0
		 -> NULL(NULL[0]), 

    pad@buf	PTR unsigned char  size(2) Largest target is 32
		 -> dbuf(BANK1[32]), 

    printf@fmt	PTR const unsigned char  size(2) Largest target is 11
		 -> STR_2(CODE[11]), STR_1(CODE[6]), 

    printf@ap	PTR void [1] size(2) Largest target is 2
		 -> ?_printf(BANK1[2]), 

    TMR4_SetInterruptHandler@InterruptHandler	PTR FTN()void  size(2) Largest target is 1
		 -> TMR4_10msISR(), TMR4_DefaultInterruptHandler(), 

    TMR4_InterruptHandler	PTR FTN()void  size(2) Largest target is 1
		 -> TMR4_10msISR(), TMR4_DefaultInterruptHandler(), Absolute function(), 

    TMR5_SetGateInterruptHandler@InterruptHandler	PTR FTN()void  size(2) Largest target is 1
		 -> TMR5_DefaultGateInterruptHandler(), 

    TMR5_GateInterruptHandler	PTR FTN()void  size(2) Largest target is 1
		 -> TMR5_DefaultGateInterruptHandler(), Absolute function(), 

    CCP4_SetCallBack@customCallBack	PTR FTN(unsigned short ,)void  size(2) Largest target is 1
		 -> CCP4_DefaultCallBack(), 

    CCP4_CallBack	PTR FTN(unsigned short ,)void  size(2) Largest target is 1
		 -> CCP4_DefaultCallBack(), Absolute function(), 

    CCP3_SetCallBack@customCallBack	PTR FTN(unsigned short ,)void  size(2) Largest target is 1
		 -> CCP3_DefaultCallBack(), 

    CCP3_CallBack	PTR FTN(unsigned short ,)void  size(2) Largest target is 1
		 -> CCP3_DefaultCallBack(), Absolute function(), 

    UART1_SetTxInterruptHandler@InterruptHandler	PTR FTN()void  size(2) Largest target is 1
		 -> UART1_Transmit_ISR(), 

    UART1_SetRxInterruptHandler@InterruptHandler	PTR FTN()void  size(2) Largest target is 1
		 -> UART1_Receive_ISR(), 

    UART1_SetErrorHandler@interruptHandler	PTR FTN()void  size(2) Largest target is 1
		 -> UART1_DefaultErrorHandler(), 

    UART1_SetOverrunErrorHandler@interruptHandler	PTR FTN()void  size(2) Largest target is 1
		 -> UART1_DefaultOverrunErrorHandler(), 

    UART1_SetFramingErrorHandler@interruptHandler	PTR FTN()void  size(2) Largest target is 1
		 -> UART1_DefaultFramingErrorHandler(), 

    UART1_ErrorHandler	PTR FTN()void  size(2) Largest target is 1
		 -> Absolute function(), UART1_DefaultErrorHandler(), 

    UART1_OverrunErrorHandler	PTR FTN()void  size(2) Largest target is 1
		 -> Absolute function(), UART1_DefaultOverrunErrorHandler(), 

    UART1_FramingErrorHandler	PTR FTN()void  size(2) Largest target is 1
		 -> Absolute function(), UART1_DefaultFramingErrorHandler(), 

    UART1_RxInterruptHandler	PTR FTN()void  size(2) Largest target is 1
		 -> Absolute function(), UART1_Receive_ISR(), 

    UART1_TxInterruptHandler	PTR FTN()void  size(2) Largest target is 1
		 -> Absolute function(), UART1_Transmit_ISR(), 


Critical Paths under _main in COMRAM

    _loop->_ADCC_GetSingleConversion
    _dtoa->_pad
    _pad->_strlen
    _fputc->_putch
    _putch->_UART1_Write
    _abs->___aomod
    _calcMotorPow->___fltol
    _calcMotorPow->_actSpeed
    _setMotor->_PWM7_LoadDutyValue
    _setMotor->_PWM8_LoadDutyValue
    _SYSTEM_Initialize->_TMR3_Initialize
    _UART1_Initialize->_UART1_SetErrorHandler
    _UART1_Initialize->_UART1_SetFramingErrorHandler
    _UART1_Initialize->_UART1_SetOverrunErrorHandler
    _UART1_Initialize->_UART1_SetRxInterruptHandler
    _UART1_Initialize->_UART1_SetTxInterruptHandler
    _TMR5_Initialize->_TMR5_SetGateInterruptHandler
    _TMR4_Initialize->_TMR4_SetInterruptHandler
    _CCP4_Initialize->_CCP4_SetCallBack
    _CCP3_Initialize->_CCP3_SetCallBack

Critical Paths under _UART1_tx_vect_isr in COMRAM

    None.

Critical Paths under _UART1_rx_vect_isr in COMRAM

    None.

Critical Paths under _TMR4_ISR in COMRAM

    None.

Critical Paths under _Default_ISR in COMRAM

    None.

Critical Paths under _CCP3_CaptureISR in COMRAM

    _CCP3_CaptureISR->_CCP3_DefaultCallBack

Critical Paths under _CCP4_CaptureISR in COMRAM

    _CCP4_CaptureISR->_CCP4_DefaultCallBack

Critical Paths under _TMR5_GATE_ISR in COMRAM

    _TMR5_DefaultGateInterruptHandler->_TMR5_ReadTimer
    _TMR5_Reload->_TMR5_WriteTimer

Critical Paths under _SMT1_PR_ACQ_ISR in COMRAM

    None.

Critical Paths under _SMT1_PW_ACQ_ISR in COMRAM

    None.

Critical Paths under _SMT1_Overflow_ISR in COMRAM

    None.

Critical Paths under _main in BANK0

    _printf->_vfprintf
    _vfprintf->_vfpfcnvrt
    _vfpfcnvrt->_dtoa
    _dtoa->___aodiv
    _dtoa->_pad
    _pad->_fputs
    _fputs->_fputc
    _abs->___aomod
    _calcMotorPow->___fltol
    _setMotor->_PWM7_LoadDutyValue
    _setMotor->_PWM8_LoadDutyValue
    _actSpeed->___aldiv
    ___xxtofl->___awdiv
    ___fltol->___flmul
    ___flmul->___xxtofl
    _SYSTEM_Initialize->_TMR5_Initialize

Critical Paths under _UART1_tx_vect_isr in BANK0

    None.

Critical Paths under _UART1_rx_vect_isr in BANK0

    None.

Critical Paths under _TMR4_ISR in BANK0

    None.

Critical Paths under _Default_ISR in BANK0

    None.

Critical Paths under _CCP3_CaptureISR in BANK0

    None.

Critical Paths under _CCP4_CaptureISR in BANK0

    None.

Critical Paths under _TMR5_GATE_ISR in BANK0

    None.

Critical Paths under _SMT1_PR_ACQ_ISR in BANK0

    None.

Critical Paths under _SMT1_PW_ACQ_ISR in BANK0

    None.

Critical Paths under _SMT1_Overflow_ISR in BANK0

    None.

Critical Paths under _main in BANK1

    _loop->_printf
    _outBatteryVoltage->_printf
    _printf->_vfprintf

Critical Paths under _UART1_tx_vect_isr in BANK1

    None.

Critical Paths under _UART1_rx_vect_isr in BANK1

    None.

Critical Paths under _TMR4_ISR in BANK1

    None.

Critical Paths under _Default_ISR in BANK1

    None.

Critical Paths under _CCP3_CaptureISR in BANK1

    None.

Critical Paths under _CCP4_CaptureISR in BANK1

    None.

Critical Paths under _TMR5_GATE_ISR in BANK1

    None.

Critical Paths under _SMT1_PR_ACQ_ISR in BANK1

    None.

Critical Paths under _SMT1_PW_ACQ_ISR in BANK1

    None.

Critical Paths under _SMT1_Overflow_ISR in BANK1

    None.

Critical Paths under _main in BANK2

    None.

Critical Paths under _UART1_tx_vect_isr in BANK2

    None.

Critical Paths under _UART1_rx_vect_isr in BANK2

    None.

Critical Paths under _TMR4_ISR in BANK2

    None.

Critical Paths under _Default_ISR in BANK2

    None.

Critical Paths under _CCP3_CaptureISR in BANK2

    None.

Critical Paths under _CCP4_CaptureISR in BANK2

    None.

Critical Paths under _TMR5_GATE_ISR in BANK2

    None.

Critical Paths under _SMT1_PR_ACQ_ISR in BANK2

    None.

Critical Paths under _SMT1_PW_ACQ_ISR in BANK2

    None.

Critical Paths under _SMT1_Overflow_ISR in BANK2

    None.

Critical Paths under _main in BANK3

    None.

Critical Paths under _UART1_tx_vect_isr in BANK3

    None.

Critical Paths under _UART1_rx_vect_isr in BANK3

    None.

Critical Paths under _TMR4_ISR in BANK3

    None.

Critical Paths under _Default_ISR in BANK3

    None.

Critical Paths under _CCP3_CaptureISR in BANK3

    None.

Critical Paths under _CCP4_CaptureISR in BANK3

    None.

Critical Paths under _TMR5_GATE_ISR in BANK3

    None.

Critical Paths under _SMT1_PR_ACQ_ISR in BANK3

    None.

Critical Paths under _SMT1_PW_ACQ_ISR in BANK3

    None.

Critical Paths under _SMT1_Overflow_ISR in BANK3

    None.

Critical Paths under _main in BANK4

    None.

Critical Paths under _UART1_tx_vect_isr in BANK4

    None.

Critical Paths under _UART1_rx_vect_isr in BANK4

    None.

Critical Paths under _TMR4_ISR in BANK4

    None.

Critical Paths under _Default_ISR in BANK4

    None.

Critical Paths under _CCP3_CaptureISR in BANK4

    None.

Critical Paths under _CCP4_CaptureISR in BANK4

    None.

Critical Paths under _TMR5_GATE_ISR in BANK4

    None.

Critical Paths under _SMT1_PR_ACQ_ISR in BANK4

    None.

Critical Paths under _SMT1_PW_ACQ_ISR in BANK4

    None.

Critical Paths under _SMT1_Overflow_ISR in BANK4

    None.

Critical Paths under _main in BANK5

    None.

Critical Paths under _UART1_tx_vect_isr in BANK5

    None.

Critical Paths under _UART1_rx_vect_isr in BANK5

    None.

Critical Paths under _TMR4_ISR in BANK5

    None.

Critical Paths under _Default_ISR in BANK5

    None.

Critical Paths under _CCP3_CaptureISR in BANK5

    None.

Critical Paths under _CCP4_CaptureISR in BANK5

    None.

Critical Paths under _TMR5_GATE_ISR in BANK5

    None.

Critical Paths under _SMT1_PR_ACQ_ISR in BANK5

    None.

Critical Paths under _SMT1_PW_ACQ_ISR in BANK5

    None.

Critical Paths under _SMT1_Overflow_ISR in BANK5

    None.

Critical Paths under _main in BANK6

    None.

Critical Paths under _UART1_tx_vect_isr in BANK6

    None.

Critical Paths under _UART1_rx_vect_isr in BANK6

    None.

Critical Paths under _TMR4_ISR in BANK6

    None.

Critical Paths under _Default_ISR in BANK6

    None.

Critical Paths under _CCP3_CaptureISR in BANK6

    None.

Critical Paths under _CCP4_CaptureISR in BANK6

    None.

Critical Paths under _TMR5_GATE_ISR in BANK6

    None.

Critical Paths under _SMT1_PR_ACQ_ISR in BANK6

    None.

Critical Paths under _SMT1_PW_ACQ_ISR in BANK6

    None.

Critical Paths under _SMT1_Overflow_ISR in BANK6

    None.

Critical Paths under _main in BANK7

    None.

Critical Paths under _UART1_tx_vect_isr in BANK7

    None.

Critical Paths under _UART1_rx_vect_isr in BANK7

    None.

Critical Paths under _TMR4_ISR in BANK7

    None.

Critical Paths under _Default_ISR in BANK7

    None.

Critical Paths under _CCP3_CaptureISR in BANK7

    None.

Critical Paths under _CCP4_CaptureISR in BANK7

    None.

Critical Paths under _TMR5_GATE_ISR in BANK7

    None.

Critical Paths under _SMT1_PR_ACQ_ISR in BANK7

    None.

Critical Paths under _SMT1_PW_ACQ_ISR in BANK7

    None.

Critical Paths under _SMT1_Overflow_ISR in BANK7

    None.

Critical Paths under _main in BANK8

    None.

Critical Paths under _UART1_tx_vect_isr in BANK8

    None.

Critical Paths under _UART1_rx_vect_isr in BANK8

    None.

Critical Paths under _TMR4_ISR in BANK8

    None.

Critical Paths under _Default_ISR in BANK8

    None.

Critical Paths under _CCP3_CaptureISR in BANK8

    None.

Critical Paths under _CCP4_CaptureISR in BANK8

    None.

Critical Paths under _TMR5_GATE_ISR in BANK8

    None.

Critical Paths under _SMT1_PR_ACQ_ISR in BANK8

    None.

Critical Paths under _SMT1_PW_ACQ_ISR in BANK8

    None.

Critical Paths under _SMT1_Overflow_ISR in BANK8

    None.

Critical Paths under _main in BANK9

    None.

Critical Paths under _UART1_tx_vect_isr in BANK9

    None.

Critical Paths under _UART1_rx_vect_isr in BANK9

    None.

Critical Paths under _TMR4_ISR in BANK9

    None.

Critical Paths under _Default_ISR in BANK9

    None.

Critical Paths under _CCP3_CaptureISR in BANK9

    None.

Critical Paths under _CCP4_CaptureISR in BANK9

    None.

Critical Paths under _TMR5_GATE_ISR in BANK9

    None.

Critical Paths under _SMT1_PR_ACQ_ISR in BANK9

    None.

Critical Paths under _SMT1_PW_ACQ_ISR in BANK9

    None.

Critical Paths under _SMT1_Overflow_ISR in BANK9

    None.

Critical Paths under _main in BANK10

    None.

Critical Paths under _UART1_tx_vect_isr in BANK10

    None.

Critical Paths under _UART1_rx_vect_isr in BANK10

    None.

Critical Paths under _TMR4_ISR in BANK10

    None.

Critical Paths under _Default_ISR in BANK10

    None.

Critical Paths under _CCP3_CaptureISR in BANK10

    None.

Critical Paths under _CCP4_CaptureISR in BANK10

    None.

Critical Paths under _TMR5_GATE_ISR in BANK10

    None.

Critical Paths under _SMT1_PR_ACQ_ISR in BANK10

    None.

Critical Paths under _SMT1_PW_ACQ_ISR in BANK10

    None.

Critical Paths under _SMT1_Overflow_ISR in BANK10

    None.

Critical Paths under _main in BANK11

    None.

Critical Paths under _UART1_tx_vect_isr in BANK11

    None.

Critical Paths under _UART1_rx_vect_isr in BANK11

    None.

Critical Paths under _TMR4_ISR in BANK11

    None.

Critical Paths under _Default_ISR in BANK11

    None.

Critical Paths under _CCP3_CaptureISR in BANK11

    None.

Critical Paths under _CCP4_CaptureISR in BANK11

    None.

Critical Paths under _TMR5_GATE_ISR in BANK11

    None.

Critical Paths under _SMT1_PR_ACQ_ISR in BANK11

    None.

Critical Paths under _SMT1_PW_ACQ_ISR in BANK11

    None.

Critical Paths under _SMT1_Overflow_ISR in BANK11

    None.

Critical Paths under _main in BANK12

    None.

Critical Paths under _UART1_tx_vect_isr in BANK12

    None.

Critical Paths under _UART1_rx_vect_isr in BANK12

    None.

Critical Paths under _TMR4_ISR in BANK12

    None.

Critical Paths under _Default_ISR in BANK12

    None.

Critical Paths under _CCP3_CaptureISR in BANK12

    None.

Critical Paths under _CCP4_CaptureISR in BANK12

    None.

Critical Paths under _TMR5_GATE_ISR in BANK12

    None.

Critical Paths under _SMT1_PR_ACQ_ISR in BANK12

    None.

Critical Paths under _SMT1_PW_ACQ_ISR in BANK12

    None.

Critical Paths under _SMT1_Overflow_ISR in BANK12

    None.

Critical Paths under _main in BANK13

    None.

Critical Paths under _UART1_tx_vect_isr in BANK13

    None.

Critical Paths under _UART1_rx_vect_isr in BANK13

    None.

Critical Paths under _TMR4_ISR in BANK13

    None.

Critical Paths under _Default_ISR in BANK13

    None.

Critical Paths under _CCP3_CaptureISR in BANK13

    None.

Critical Paths under _CCP4_CaptureISR in BANK13

    None.

Critical Paths under _TMR5_GATE_ISR in BANK13

    None.

Critical Paths under _SMT1_PR_ACQ_ISR in BANK13

    None.

Critical Paths under _SMT1_PW_ACQ_ISR in BANK13

    None.

Critical Paths under _SMT1_Overflow_ISR in BANK13

    None.

Critical Paths under _main in BANK14

    None.

Critical Paths under _UART1_tx_vect_isr in BANK14

    None.

Critical Paths under _UART1_rx_vect_isr in BANK14

    None.

Critical Paths under _TMR4_ISR in BANK14

    None.

Critical Paths under _Default_ISR in BANK14

    None.

Critical Paths under _CCP3_CaptureISR in BANK14

    None.

Critical Paths under _CCP4_CaptureISR in BANK14

    None.

Critical Paths under _TMR5_GATE_ISR in BANK14

    None.

Critical Paths under _SMT1_PR_ACQ_ISR in BANK14

    None.

Critical Paths under _SMT1_PW_ACQ_ISR in BANK14

    None.

Critical Paths under _SMT1_Overflow_ISR in BANK14

    None.

Critical Paths under _main in BANK15

    None.

Critical Paths under _UART1_tx_vect_isr in BANK15

    None.

Critical Paths under _UART1_rx_vect_isr in BANK15

    None.

Critical Paths under _TMR4_ISR in BANK15

    None.

Critical Paths under _Default_ISR in BANK15

    None.

Critical Paths under _CCP3_CaptureISR in BANK15

    None.

Critical Paths under _CCP4_CaptureISR in BANK15

    None.

Critical Paths under _TMR5_GATE_ISR in BANK15

    None.

Critical Paths under _SMT1_PR_ACQ_ISR in BANK15

    None.

Critical Paths under _SMT1_PW_ACQ_ISR in BANK15

    None.

Critical Paths under _SMT1_Overflow_ISR in BANK15

    None.

Call Graph Tables:

 ---------------------------------------------------------------------------------
 (Depth) Function   	        Calls       Base Space   Used Autos Params    Refs
 ---------------------------------------------------------------------------------
 (0) _main                                                 0     0      0   24057
                  _SYSTEM_Initialize
           _TMR4_SetInterruptHandler
                               _loop
 ---------------------------------------------------------------------------------
 (1) _loop                                                 0     0      0   22910
           _ADCC_GetSingleConversion
                        _calcLenkung
                       _calcMotorPow
                  _outBatteryVoltage
                             _printf
 ---------------------------------------------------------------------------------
 (2) _outBatteryVoltage                                    2     2      0    8226
                             _printf
 ---------------------------------------------------------------------------------
 (2) _printf                                               8     4      4    8192
                                              6 BANK1      6     2      4
                           _vfprintf
 ---------------------------------------------------------------------------------
 (3) _vfprintf                                             8     2      6    7931
                                             78 BANK0      2     2      0
                                              0 BANK1      6     0      6
                          _vfpfcnvrt
 ---------------------------------------------------------------------------------
 (4) _vfpfcnvrt                                           42    36      6    7458
                                             62 BANK0     16    10      6
                               _dtoa
                              _fputc
 ---------------------------------------------------------------------------------
 (5) _dtoa                                                36    26     10    5683
                                             26 BANK0     36    26     10
                            ___aodiv
                            ___aomod
                                _abs
                                _pad
 ---------------------------------------------------------------------------------
 (6) _pad                                                 11     5      6    3417
                                             33 COMRAM     1     1      0
                                             16 BANK0     10     4      6
                              _fputc
                              _fputs
                             _strlen
 ---------------------------------------------------------------------------------
 (7) _strlen                                               4     2      2     220
                                             31 COMRAM     2     0      2
                                              0 BANK0      2     2      0
 ---------------------------------------------------------------------------------
 (7) _fputs                                                7     3      4    1537
                                              9 BANK0      7     3      4
                              _fputc
 ---------------------------------------------------------------------------------
 (5) _fputc                                                9     5      4    1037
                                              0 BANK0      9     5      4
                              _putch
 ---------------------------------------------------------------------------------
 (6) _putch                                                1     1      0      93
                                             32 COMRAM     1     1      0
                        _UART1_Write
 ---------------------------------------------------------------------------------
 (7) _UART1_Write                                          1     1      0      62
                                             31 COMRAM     1     1      0
 ---------------------------------------------------------------------------------
 (6) _abs                                                  4     2      2     183
                                             16 BANK0      4     2      2
                            ___aomod (ARG)
 ---------------------------------------------------------------------------------
 (6) ___aomod                                             18     2     16     613
                                             31 COMRAM     2     2      0
                                              0 BANK0     16     0     16
 ---------------------------------------------------------------------------------
 (6) ___aodiv                                             26    10     16     625
                                              0 BANK0     26    10     16
 ---------------------------------------------------------------------------------
 (2) _calcMotorPow                                        10    10      0    6460
                                             55 BANK0     10    10      0
                            ___awdiv
                            ___flmul
                            ___fltol
                           ___xxtofl
                           _actSpeed
                           _setMotor
 ---------------------------------------------------------------------------------
 (3) _setMotor                                             6     4      2    1073
                                              2 BANK0      4     2      2
                 _PWM7_LoadDutyValue
                 _PWM8_LoadDutyValue
 ---------------------------------------------------------------------------------
 (4) _PWM8_LoadDutyValue                                   4     2      2     332
                                             31 COMRAM     2     0      2
                                              0 BANK0      2     2      0
 ---------------------------------------------------------------------------------
 (4) _PWM7_LoadDutyValue                                   4     2      2     332
                                             31 COMRAM     2     0      2
                                              0 BANK0      2     2      0
 ---------------------------------------------------------------------------------
 (3) _actSpeed                                             4     2      2     845
                                             31 COMRAM     2     0      2
                                             14 BANK0      2     2      0
                            ___aldiv
 ---------------------------------------------------------------------------------
 (4) ___aldiv                                             14     6      8     805
                                              0 BANK0     14     6      8
 ---------------------------------------------------------------------------------
 (3) ___xxtofl                                            14    10      4     566
                                              8 BANK0     14    10      4
                            ___awdiv (ARG)
 ---------------------------------------------------------------------------------
 (3) ___fltol                                             10     6      4     305
                                             31 COMRAM     2     2      0
                                             47 BANK0      8     4      4
                            ___awdiv (ARG)
                            ___flmul (ARG)
                           ___xxtofl (ARG)
 ---------------------------------------------------------------------------------
 (3) ___flmul                                             25    17      8    2513
                                             22 BANK0     25    17      8
                            ___awdiv (ARG)
                           ___xxtofl (ARG)
 ---------------------------------------------------------------------------------
 (3) ___awdiv                                              8     4      4     985
                                              0 BANK0      8     4      4
 ---------------------------------------------------------------------------------
 (2) _calcLenkung                                          6     6      0       1
                                             31 COMRAM     2     2      0
 ---------------------------------------------------------------------------------
 (2) _ADCC_GetSingleConversion                             5     3      2      31
                                             31 COMRAM     3     1      2
                                              0 BANK0      2     2      0
 ---------------------------------------------------------------------------------
 (1) _SYSTEM_Initialize                                    0     0      0     973
                    _ADCC_Initialize
                    _CCP3_Initialize
                    _CCP4_Initialize
                    _CLC3_Initialize
               _INTERRUPT_Initialize
              _OSCILLATOR_Initialize
             _PIN_MANAGER_Initialize
                     _PMD_Initialize
                    _PWM5_Initialize
                    _PWM6_Initialize
                    _PWM7_Initialize
                    _PWM8_Initialize
                    _SMT1_Initialize
                    _TMR2_Initialize
                    _TMR3_Initialize
                    _TMR4_Initialize
                    _TMR5_Initialize
                   _UART1_Initialize
 ---------------------------------------------------------------------------------
 (2) _UART1_Initialize                                     0     0      0     490
              _UART1_SetErrorHandler
       _UART1_SetFramingErrorHandler
       _UART1_SetOverrunErrorHandler
        _UART1_SetRxInterruptHandler
        _UART1_SetTxInterruptHandler
 ---------------------------------------------------------------------------------
 (3) _UART1_SetTxInterruptHandler                          2     0      2      98
                                             31 COMRAM     2     0      2
 ---------------------------------------------------------------------------------
 (3) _UART1_SetRxInterruptHandler                          2     0      2      98
                                             31 COMRAM     2     0      2
 ---------------------------------------------------------------------------------
 (3) _UART1_SetOverrunErrorHandler                         2     0      2      98
                                             31 COMRAM     2     0      2
 ---------------------------------------------------------------------------------
 (3) _UART1_SetFramingErrorHandler                         2     0      2      98
                                             31 COMRAM     2     0      2
 ---------------------------------------------------------------------------------
 (3) _UART1_SetErrorHandler                                2     0      2      98
                                             31 COMRAM     2     0      2
 ---------------------------------------------------------------------------------
 (2) _TMR5_Initialize                                      2     2      0      98
                                              0 BANK0      2     2      0
       _TMR5_SetGateInterruptHandler
 ---------------------------------------------------------------------------------
 (3) _TMR5_SetGateInterruptHandler                         2     0      2      98
                                             31 COMRAM     2     0      2
 ---------------------------------------------------------------------------------
 (2) _TMR4_Initialize                                      0     0      0     174
           _TMR4_SetInterruptHandler
 ---------------------------------------------------------------------------------
 (1) _TMR4_SetInterruptHandler                             2     0      2     174
                                             31 COMRAM     2     0      2
 ---------------------------------------------------------------------------------
 (2) _TMR3_Initialize                                      2     2      0       0
                                             31 COMRAM     2     2      0
 ---------------------------------------------------------------------------------
 (2) _TMR2_Initialize                                      0     0      0       0
 ---------------------------------------------------------------------------------
 (2) _SMT1_Initialize                                      0     0      0       0
 ---------------------------------------------------------------------------------
 (2) _PWM8_Initialize                                      0     0      0       0
 ---------------------------------------------------------------------------------
 (2) _PWM7_Initialize                                      0     0      0       0
 ---------------------------------------------------------------------------------
 (2) _PWM6_Initialize                                      0     0      0       0
 ---------------------------------------------------------------------------------
 (2) _PWM5_Initialize                                      0     0      0       0
 ---------------------------------------------------------------------------------
 (2) _PMD_Initialize                                       0     0      0       0
 ---------------------------------------------------------------------------------
 (2) _PIN_MANAGER_Initialize                               0     0      0       0
 ---------------------------------------------------------------------------------
 (2) _OSCILLATOR_Initialize                                0     0      0       0
 ---------------------------------------------------------------------------------
 (2) _INTERRUPT_Initialize                                 1     1      0      15
                                             31 COMRAM     1     1      0
 ---------------------------------------------------------------------------------
 (2) _CLC3_Initialize                                      0     0      0       0
 ---------------------------------------------------------------------------------
 (2) _CCP4_Initialize                                      0     0      0      98
                   _CCP4_SetCallBack
 ---------------------------------------------------------------------------------
 (3) _CCP4_SetCallBack                                     2     0      2      98
                                             31 COMRAM     2     0      2
 ---------------------------------------------------------------------------------
 (2) _CCP3_Initialize                                      0     0      0      98
                   _CCP3_SetCallBack
 ---------------------------------------------------------------------------------
 (3) _CCP3_SetCallBack                                     2     0      2      98
                                             31 COMRAM     2     0      2
 ---------------------------------------------------------------------------------
 (2) _ADCC_Initialize                                      0     0      0       0
 ---------------------------------------------------------------------------------
 Estimated maximum stack depth 7
 ---------------------------------------------------------------------------------
 (Depth) Function   	        Calls       Base Space   Used Autos Params    Refs
 ---------------------------------------------------------------------------------
 (12) _UART1_tx_vect_isr                                   3     3      0       0
                                             22 COMRAM     3     3      0
                   Absolute function *
                 _UART1_Transmit_ISR *
 ---------------------------------------------------------------------------------
 (13) _UART1_Transmit_ISR                                  0     0      0       0
 ---------------------------------------------------------------------------------
 (17) Absolute function(Fake)                              0     0      0       0
 ---------------------------------------------------------------------------------
 Estimated maximum stack depth 17
 ---------------------------------------------------------------------------------
 (Depth) Function   	        Calls       Base Space   Used Autos Params    Refs
 ---------------------------------------------------------------------------------
 (12) _UART1_rx_vect_isr                                   3     3      0       0
                                             25 COMRAM     3     3      0
                   Absolute function *
                  _UART1_Receive_ISR *
 ---------------------------------------------------------------------------------
 (13) _UART1_Receive_ISR                                   0     0      0       0
                   Absolute function *
          _UART1_DefaultErrorHandler *
   _UART1_DefaultFramingErrorHandler *
   _UART1_DefaultOverrunErrorHandler *
                _UART1_RxDataHandler
 ---------------------------------------------------------------------------------
 (14) _UART1_DefaultOverrunErrorHandler                    0     0      0       0
 ---------------------------------------------------------------------------------
 (14) _UART1_DefaultFramingErrorHandler                    0     0      0       0
 ---------------------------------------------------------------------------------
 (14) _UART1_DefaultErrorHandler                           0     0      0       0
                _UART1_RxDataHandler
 ---------------------------------------------------------------------------------
 (14) _UART1_RxDataHandler                                 0     0      0       0
 ---------------------------------------------------------------------------------
 (17) Absolute function(Fake)                              0     0      0       0
 ---------------------------------------------------------------------------------
 Estimated maximum stack depth 17
 ---------------------------------------------------------------------------------
 (Depth) Function   	        Calls       Base Space   Used Autos Params    Refs
 ---------------------------------------------------------------------------------
 (12) _TMR4_ISR                                            3     3      0       0
                                             28 COMRAM     3     3      0
                      _TMR4_CallBack
 ---------------------------------------------------------------------------------
 (13) _TMR4_CallBack                                       0     0      0       0
                   Absolute function *
                       _TMR4_10msISR *
       _TMR4_DefaultInterruptHandler *
 ---------------------------------------------------------------------------------
 (14) _TMR4_DefaultInterruptHandler                        0     0      0       0
 ---------------------------------------------------------------------------------
 (14) _TMR4_10msISR                                        0     0      0       0
 ---------------------------------------------------------------------------------
 (17) Absolute function(Fake)                              0     0      0       0
 ---------------------------------------------------------------------------------
 Estimated maximum stack depth 17
 ---------------------------------------------------------------------------------
 (Depth) Function   	        Calls       Base Space   Used Autos Params    Refs
 ---------------------------------------------------------------------------------
 (16) _Default_ISR                                         0     0      0       0
 ---------------------------------------------------------------------------------
 Estimated maximum stack depth 16
 ---------------------------------------------------------------------------------
 (Depth) Function   	        Calls       Base Space   Used Autos Params    Refs
 ---------------------------------------------------------------------------------
 (16) _CCP3_CaptureISR                                     4     4      0     144
                                              2 COMRAM     4     4      0
                   Absolute function *
               _CCP3_DefaultCallBack *
 ---------------------------------------------------------------------------------
 (17) _CCP3_DefaultCallBack                                2     0      2      97
                                              0 COMRAM     2     0      2
 ---------------------------------------------------------------------------------
 (17) Absolute function(Fake)                              0     0      0       0
 ---------------------------------------------------------------------------------
 Estimated maximum stack depth 17
 ---------------------------------------------------------------------------------
 (Depth) Function   	        Calls       Base Space   Used Autos Params    Refs
 ---------------------------------------------------------------------------------
 (16) _CCP4_CaptureISR                                     4     4      0     144
                                              8 COMRAM     4     4      0
                   Absolute function *
               _CCP4_DefaultCallBack *
 ---------------------------------------------------------------------------------
 (17) _CCP4_DefaultCallBack                                2     0      2      97
                                              6 COMRAM     2     0      2
 ---------------------------------------------------------------------------------
 (17) Absolute function(Fake)                              0     0      0       0
 ---------------------------------------------------------------------------------
 Estimated maximum stack depth 17
 ---------------------------------------------------------------------------------
 (Depth) Function   	        Calls       Base Space   Used Autos Params    Refs
 ---------------------------------------------------------------------------------
 (16) _TMR5_GATE_ISR                                       2     2      0     233
                                             20 COMRAM     2     2      0
                   Absolute function *
   _TMR5_DefaultGateInterruptHandler *
 ---------------------------------------------------------------------------------
 (17) _TMR5_DefaultGateInterruptHandler                    0     0      0     233
                     _TMR5_ReadTimer
                        _TMR5_Reload
 ---------------------------------------------------------------------------------
 (18) _TMR5_Reload                                         0     0      0     164
                    _TMR5_WriteTimer
 ---------------------------------------------------------------------------------
 (19) _TMR5_WriteTimer                                     2     0      2     164
                                             12 COMRAM     2     0      2
 ---------------------------------------------------------------------------------
 (18) _TMR5_ReadTimer                                      8     6      2      69
                                             12 COMRAM     8     6      2
 ---------------------------------------------------------------------------------
 (17) Absolute function(Fake)                              0     0      0       0
 ---------------------------------------------------------------------------------
 Estimated maximum stack depth 19
 ---------------------------------------------------------------------------------
 (Depth) Function   	        Calls       Base Space   Used Autos Params    Refs
 ---------------------------------------------------------------------------------
 (16) _SMT1_PR_ACQ_ISR                                     0     0      0       0
 ---------------------------------------------------------------------------------
 Estimated maximum stack depth 16
 ---------------------------------------------------------------------------------
 (Depth) Function   	        Calls       Base Space   Used Autos Params    Refs
 ---------------------------------------------------------------------------------
 (16) _SMT1_PW_ACQ_ISR                                     0     0      0       0
 ---------------------------------------------------------------------------------
 Estimated maximum stack depth 16
 ---------------------------------------------------------------------------------
 (Depth) Function   	        Calls       Base Space   Used Autos Params    Refs
 ---------------------------------------------------------------------------------
 (16) _SMT1_Overflow_ISR                                   0     0      0       0
 ---------------------------------------------------------------------------------
 Estimated maximum stack depth 16
 ---------------------------------------------------------------------------------

 Call Graph Graphs:

 _main (ROOT)
   _SYSTEM_Initialize
     _ADCC_Initialize
     _CCP3_Initialize
       _CCP3_SetCallBack
     _CCP4_Initialize
       _CCP4_SetCallBack
     _CLC3_Initialize
     _INTERRUPT_Initialize
     _OSCILLATOR_Initialize
     _PIN_MANAGER_Initialize
     _PMD_Initialize
     _PWM5_Initialize
     _PWM6_Initialize
     _PWM7_Initialize
     _PWM8_Initialize
     _SMT1_Initialize
     _TMR2_Initialize
     _TMR3_Initialize
     _TMR4_Initialize
       _TMR4_SetInterruptHandler
     _TMR5_Initialize
       _TMR5_SetGateInterruptHandler
     _UART1_Initialize
       _UART1_SetErrorHandler
       _UART1_SetFramingErrorHandler
       _UART1_SetOverrunErrorHandler
       _UART1_SetRxInterruptHandler
       _UART1_SetTxInterruptHandler
   _TMR4_SetInterruptHandler
   _loop
     _ADCC_GetSingleConversion
     _calcLenkung
     _calcMotorPow
       ___awdiv
       ___flmul
         ___awdiv (ARG)
         ___xxtofl (ARG)
           ___awdiv (ARG)
       ___fltol
         ___awdiv (ARG)
         ___flmul (ARG)
         ___xxtofl (ARG)
       ___xxtofl
       _actSpeed
         ___aldiv
       _setMotor
         _PWM7_LoadDutyValue
         _PWM8_LoadDutyValue
     _outBatteryVoltage
       _printf
         _vfprintf
           _vfpfcnvrt
             _dtoa
               ___aodiv
               ___aomod
               _abs
                 ___aomod (ARG)
               _pad
                 _fputc
                   _putch
                     _UART1_Write
                 _fputs
                   _fputc
                 _strlen
             _fputc
     _printf

 _UART1_tx_vect_isr (ROOT)
   Absolute function(Fake) *
   _UART1_Transmit_ISR *

 _UART1_rx_vect_isr (ROOT)
   Absolute function(Fake) *
   _UART1_Receive_ISR *
     Absolute function(Fake) *
     _UART1_DefaultErrorHandler *
       _UART1_RxDataHandler
     _UART1_DefaultFramingErrorHandler *
     _UART1_DefaultOverrunErrorHandler *
     _UART1_RxDataHandler *

 _TMR4_ISR (ROOT)
   _TMR4_CallBack
     Absolute function(Fake) *
     _TMR4_10msISR *
     _TMR4_DefaultInterruptHandler *

 _Default_ISR (ROOT)

 _CCP3_CaptureISR (ROOT)
   Absolute function(Fake) *
   _CCP3_DefaultCallBack *

 _CCP4_CaptureISR (ROOT)
   Absolute function(Fake) *
   _CCP4_DefaultCallBack *

 _TMR5_GATE_ISR (ROOT)
   Absolute function(Fake) *
   _TMR5_DefaultGateInterruptHandler *
     _TMR5_ReadTimer
     _TMR5_Reload
       _TMR5_WriteTimer

 _SMT1_PR_ACQ_ISR (ROOT)

 _SMT1_PW_ACQ_ISR (ROOT)

 _SMT1_Overflow_ISR (ROOT)

 Address spaces:
Name               Size   Autos  Total    Cost      Usage
BIGRAM             FFF      0       0      85        0.0%
EEDATA             400      0       0       0        0.0%
BITBIGSFRlllll     181      0       0      83        0.0%
BITBIGSFRhhhhll    17E      0       0      53        0.0%
BITBIGSFRhhhhll    17A      0       0      54        0.0%
BITBANK15          100      0       0      34        0.0%
BANK15             100      0       0      35        0.0%
BITBANK14          100      0       0      32        0.0%
BANK14             100      0       0      33        0.0%
BITBANK13          100      0       0      30        0.0%
BANK13             100      0       0      31        0.0%
BITBANK12          100      0       0      28        0.0%
BANK12             100      0       0      29        0.0%
BITBANK11          100      0       0      26        0.0%
BANK11             100      0       0      27        0.0%
BITBANK10          100      0       0      24        0.0%
BANK10             100      0       0      25        0.0%
BITBANK9           100      0       0      22        0.0%
BANK9              100      0       0      23        0.0%
BITBANK8           100      0       0      20        0.0%
BANK8              100      0       0      21        0.0%
BITBANK7           100      0       0      18        0.0%
BANK7              100      0       0      19        0.0%
BITBANK6           100      0       0      16        0.0%
BANK6              100      0       0      17        0.0%
BITBANK5           100      0       0      14        0.0%
BANK5              100      0       0      15        0.0%
BITBANK4           100      0       0      12        0.0%
BANK4              100      0       0      13        0.0%
BITBANK3           100      0       0      10        0.0%
BANK3              100      0       0      11        0.0%
BITBANK2           100      0       0       8        0.0%
BANK2              100      0       0       9        0.0%
BITBANK1           100      0       0       6        0.0%
BANK1              100      C      2C       7       17.2%
BITBIGSFRhhhhll     E3      0       0      50        0.0%
BITBANK0            A0      0       0       4        0.0%
BANK0               A0     50      9F       5       99.4%
BITCOMRAM           5F      0       0       0        0.0%
COMRAM              5F     22      40       1       67.4%
BITBIGSFRhhhhll     44      0       0      59        0.0%
BITBIGSFRhhhhll     3A      0       0      47        0.0%
BITBIGSFRhhhhll     34      0       0      67        0.0%
BITBIGSFRhhhhhh     28      0       0      36        0.0%
BITBIGSFRhhhhll     20      0       0      42        0.0%
BITBIGSFRhhhhll     20      0       0      70        0.0%
BITBIGSFRllhh       15      0       0      74        0.0%
BITBIGSFRhhhhll     12      0       0      48        0.0%
BITBIGSFRlh         11      0       0      73        0.0%
BITBIGSFRhhhhll      B      0       0      66        0.0%
BITBIGSFRhhhhll      A      0       0      41        0.0%
BITBIGSFRhhhhll      8      0       0      55        0.0%
BITBIGSFRllhlhl      6      0       0      77        0.0%
BITBIGSFRlllhhl      6      0       0      80        0.0%
BITBIGSFRhhhhll      6      0       0      57        0.0%
BITBIGSFRhhhhll      6      0       0      68        0.0%
BITBIGSFRhhhhhh      6      0       0      39        0.0%
BITBIGSFRhhhhll      5      0       0      58        0.0%
BITBIGSFRhhhhll      5      0       0      65        0.0%
BITBIGSFRhhhhll      5      0       0      63        0.0%
BITBIGSFRhhhhll      5      0       0      61        0.0%
BITBIGSFRhhhhhh      4      0       0      38        0.0%
BITBIGSFRhhhhll      4      0       0      60        0.0%
BITBIGSFRhhhhll      4      0       0      62        0.0%
BITBIGSFRhhhhll      4      0       0      64        0.0%
BITBIGSFRlllhll      3      0       0      81        0.0%
BITBIGSFRllhll       3      0       0      78        0.0%
BITBIGSFRhhhhhl      3      0       0      40        0.0%
BITBIGSFRllhlhl      2      0       0      76        0.0%
BITBIGSFRhhhhll      1      0       0      49        0.0%
BITBIGSFRllhlhl      1      0       0      75        0.0%
BITBIGSFRlllhhh      1      0       0      79        0.0%
BITBIGSFRhhhhll      1      0       0      44        0.0%
BITBIGSFRhhhhll      1      0       0      43        0.0%
BITBIGSFRhhhhll      1      0       0      46        0.0%
BITBIGSFRhhhhll      1      0       0      45        0.0%
BITBIGSFRllllh       1      0       0      82        0.0%
BITBIGSFRhhhhhh      1      0       0      37        0.0%
BITBIGSFRhhhhll      1      0       0      52        0.0%
BITBIGSFRhhhhll      1      0       0      51        0.0%
BITBIGSFRhhhhll      1      0       0      56        0.0%
BITBIGSFRhhhhll      1      0       0      69        0.0%
BITBIGSFRhhl         1      0       0      71        0.0%
BITBIGSFRhl          1      0       0      72        0.0%
BIGSFR               0      0       0     200        0.0%
BITSFR_8             0      0       0     200        0.0%
SFR_8                0      0       0     200        0.0%
BITSFR_7             0      0       0     200        0.0%
SFR_7                0      0       0     200        0.0%
BITSFR_6             0      0       0     200        0.0%
SFR_6                0      0       0     200        0.0%
BITSFR_5             0      0       0     200        0.0%
SFR_5                0      0       0     200        0.0%
BITSFR_4             0      0       0     200        0.0%
SFR_4                0      0       0     200        0.0%
BITSFR_3             0      0       0     200        0.0%
SFR_3                0      0       0     200        0.0%
BITSFR_2             0      0       0     200        0.0%
SFR_2                0      0       0     200        0.0%
BITSFR_1             0      0       0     200        0.0%
SFR_1                0      0       0     200        0.0%
BITSFR               0      0       0     200        0.0%
SFR                  0      0       0     200        0.0%
STACK                0      0       0       2        0.0%
NULL                 0      0       0       0        0.0%
ABS                  0      0     10B      84        0.0%
DATA                 0      0     10B       3        0.0%
CODE                 0      0       0       0        0.0%


Microchip Technology PIC18 Macro Assembler V2.36 build 20220127204148 
Symbol Table                                                                                   Fri Jan 19 11:08:14 2024

                             _CCP4_Initialize 2F98                        ??_CCP3_DefaultCallBack 0003  
                                          l72 3292                                            l75 31A2  
                                          l69 2C58                                  ___awdiv@sign 0065  
                              _maxMPowForward 00FD                             ??_TMR5_WriteTimer 000F  
                                         l312 2986                                           l404 2B76  
                                         l308 293E                                           l309 2958  
                                         l318 32C0                                           l520 2CA2  
                                         l441 2FF2                                           l362 32DE  
                                         l371 32CA                                           l188 23CC  
                                         l284 26BE                                           l365 32F2  
                                         l359 32E8                                           l368 32D4  
                                         l712 2F66                                           l449 331A  
                                         l482 2FC4                                           l723 3232  
                                         l555 32FC                                           l644 30A8  
                                         l709 324A                                           l581 2EFA  
                                         l726 2F30                                           l479 3310  
                                         l751 3262                                           l737 327A  
                                         l923 31FE                                           l695 3306  
                                         l795 2F96                                           l893 30D4  
                                         _GIE 01FE97                                           _PR2 003FAB  
                                         _PR4 003F9F                                           _abs 2E0A  
                                         _pad 23CE                               _TMR2_Initialize 31E4  
              CCP4_SetCallBack@customCallBack 0020                                           tosl 003FFD  
                                         wreg 003FE8                              _CCP4_SetCallBack 3308  
                                ___flmul@aexp 0083                                  ___flmul@bexp 0088  
                          _UART1_Transmit_ISR 2DC6                                  ___flmul@sign 0082  
                                ___flmul@temp 008D                                  ___flmul@prod 0089  
                     __end_of_CCP4_CaptureISR 2C10                                  ___fltol@exp1 0021  
                                        l1042 29E2                                          ?_abs 0070  
                                        l1212 2758                                          l2020 28BC  
                                        l2021 28C4                                          l1054 2E98  
                                        l2014 1956                                          l2007 1748  
                                        l1215 32A8                                          l2040 27F0  
                                        l1057 2EC2                                          l1225 2DC4  
                                        l2025 2E42                                          l2028 2E4A  
                                        l1502 255A                                          l1350 2114  
                                        l2054 2E86                                          l2048 2D80  
                                        l1192 31E0                                          l1259 1B5E  
                                        l1195 28C6                               _timer3ReloadVal 00E5  
                                        l4100 21EC                                          l1268 2302  
                                        l4102 21FC                                          l5000 114E  
                                        l4104 220C                                          l1385 1EA0  
                                        l4210 262C                                          l5010 11A0  
                                        l5002 116A                                          l4220 264E  
                                        l4212 263C                                          l5100 24EA  
                                        l5020 11FE                                          l5012 11B0  
                                        l5004 1176                                          l4230 2662  
                                        l4222 2652                                          l4214 2642  
                                        l4206 261C                                          l5110 2524  
                                        l5102 24F2                                          l1902 1424  
                                        l5030 12AE                                          l5022 121E  
                                        l5014 11C0                                          l5006 1182  
                                        l4070 2142                                          l1398 2006  
                                        l4160 2FEC                                          l2720 2B2C  
                                        l2800 2F68                                          l4240 2676  
                                        l4232 2666                                          l4224 2656  
                                        l4216 2646                                          l4208 2620  
                                        l5120 254A                                          l5112 252C  
                                        l5104 24FA                                          l5040 1304  
                                        l5032 12BC                                          l5024 122E  
                                        l5016 11D0                                          l5008 1190  
                                        l4080 2190                                          l4072 216C  
                                        l1568 221C                                          l4064 2116  
                                        l5200 3294                                          l4162 2FF0  
                                        l4154 2FC6                                          l2730 2B58  
                                        l2722 2B2E                                          l2810 2F90  
                                        l2802 2F86                                          l4170 3098  
                                        l4242 267A                                          l4234 266A  
                                        l4226 265A                                          l4218 264A  
                                        l4330 2D82                                          l5122 2552  
                                        l5114 252E                                          l5106 2508  
                                        l5042 1312                                          l5034 12DA  
                                        l5026 124E                                          l5018 11EE  
                                        l4090 21BC                                          l4074 216E  
                                        l4066 212E                                          l5130 1B84  
                                        l5210 198C                                          l5202 1958  
                                        l4156 2FD6                                          l4180 2FBE  
                                        l2740 2B6C                                          l2732 2B62  
                                        l2724 2B36                                          l2812 2F92  
                                        l2804 2F88                                          l2820 31F6  
                                        l4172 30A4                                          l4164 307E  
                                        l4244 2686                                          l4236 266E  
                                        l4228 265E                                          l5116 2534  
                                        l5108 250E                                          l5052 137C  
                                        l5060 13C4                                          l5044 1316  
                                        l5036 12E4                                          l5028 1278  
                                        l4076 217E                                          l1940 1CAE  
                                        l5140 1BFC                                          l5132 1BCA  
                                        l5220 1A4E                                          l5212 198C  
                                        l5204 196A                                          l1933 1C52  
                                        l4158 2FE2                                          l4182 2FC2  
                                        l4174 2F98                                          l2742 2B6E  
                                        l2734 2B66                                          l2726 2B40  
                                        l2750 3180                                          l2822 324C  
                                        l2814 321C                                          l2806 2F8A  
                                        l4190 2EF6                                          l4166 3092  
                                        l4246 2692                                          l4238 2672  
                                        l4326 2D82                                          l5118 253A  
                                        l5070 1438                                          l5062 13DE  
                                        l5054 1388                                          l5046 1324  
                                        l5038 12F2                                          l4086 21A8  
                                        l4078 2182                                          l5150 1C84  
                                        l5142 1C08                                          l5134 1BE0  
                                        l1926 1BBA                                          l5126 1B64  
                                        l5222 1A5C                                          l5230 1AB0  
                                        l5214 1A0A                                          l5206 1972  
                                        l4176 2FA8                                          l2744 2B70  
                                        l2736 2B68                                          l2728 2B56  
                                        l2760 237C                                          l2752 2304  
                                        l2808 2F8E                                          l2816 31E4  
                                        l4184 2EC4                                          l4168 3096  
                                        l4248 26BA                                          l5072 1446  
                                        l5064 13F2                                          l5056 1396  
                                        l5048 1352                                          l4096 21D0  
                                        l4088 21B2                                          l5160 1CC2  
                                        l5152 1C90                                          l5144 1C3A  
                                        l5128 1B76                                          l5240 1B0A  
                                        l5232 1ABA                                          l5224 1A78  
                                        l5216 1A26                                          l5208 197E  
                                        l4600 295A                                          l1929 1D16  
                                        l4178 2FB4                                          l2834 30AA  
                                        l2746 2B72                                          l2738 2B6A  
                                        l2770 238A                                          l2762 237E  
                                        l2754 2324                                          l2818 31F0  
                                        l4186 2ED8                                          l3810 32C2  
                                        l5250 2C10                                          l5090 24B6  
                                        l5082 2496                                          l5074 1448  
                                        l5066 140C                                          l5058 13C0  
                                        l4098 21DC                                          l5162 1CE6  
                                        l5154 1C9E                                          l5146 1C3C  
                                        l5138 1BF4                                          l5242 1B26  
                                        l5234 1AD6                                          l5226 1A80  
                                        l5218 1A42                                          l4602 296C  
                                        l4610 2984                                          l2748 2B74  
                                        l2772 238C                                          l2764 2380  
                                        l2756 2326                                          l2844 3264  
                                        l2860 3234                                          l4188 2EDC  
                                        l5180 2C90                                          l5172 2C5A  
                                        l3812 32E0                                          l5260 2C34  
                                        l5252 2C20                                          l5092 24C4  
                                        l5084 249C                                          l5068 1428  
                                        l5076 144E                                          l1892 12F4  
                                        l5164 1CF6                                          l5156 1CBC  
                                        l5148 1C48                                          l5244 1B42  
                                        l5236 1AE2                                          l5228 1AA0  
                                        l4700 1EE8                                          l4604 296E  
                                        l4612 32BA                                          l4620 278A  
                                        l1885 10DA                                          l1981 2494  
                                        l1949 3154                                          l3830 3308  
                                        l2774 238E                                          l2766 2382  
                                        l2758 232E                                          l5182 2C92  
                                        l5174 2C6E                                          l3814 32D6  
                                        l5270 2C50                                          l5262 2C38  
                                        l5254 2C24                                          l5190 2E94  
                                        l5350 2D96                                          l5094 24CC  
                                        l5086 24AA                                          l5078 1452  
                                        l1894 136C                                          l5166 1D04  
                                        l5158 1CBE                                          l5238 1AFE  
                                        l5246 1B4A                                          l4710 1F50  
                                        l4702 1F08                                          l4606 297E  
                                        l4622 27A8                                          l4614 275A  
                                        l4630 2D48                                          ?_pad 0070  
                                        l1895 135A                                          l2776 327C  
                                        l2768 2388                                          l3832 32F4  
                                        l5184 2C9E                                          l5176 2C72  
                                        l3816 32EA                                          l3808 32CC  
                                        l5264 2C40                                          l5256 2C2C  
                                        l5192 2E96                                          l5096 24D0  
                                        l5088 24B2                                          l5168 1D06  
                                        l5248 1B56                                          l4720 1FC6  
                                        l4712 1F7E                                          l4704 1F26  
                                        l4608 2982                                          l4624 27DE  
                                        l4616 276E                                          l4632 2D5A  
                                        l4640 2E5C                                          l1976 2414  
                                        l4800 16E2                                          l5280 2902  
                                        l5272 28C6                                          l1889 1462  
                                        l5178 2C8C                                          l5266 2C44  
                                        l5258 2C30                                          l5194 2EA6  
                                        l5186 2E8A                                          l5098 24D8  
                                        l4650 1D2C                                          l4722 1FE6  
                                        l4714 1F9E                                          l4706 1F2E  
                                        l4618 2780                                          l4634 2D60  
                                        l4642 2E78                                          l4730 23F0  
                                        l4802 16E8                                          l4810 1720  
                                        l5282 2906                                          l5274 28D4  
                                        l5290 31C8                                          l1979 2458  
                                        l1987 1504                                          l2788 2988  
                                        l3828 3312                                          l5268 2C4C  
                                        l5188 2E90                                          l4900 2104  
                                        l4660 1D82                                          l4652 1D4C  
                                        l4716 1FB0                                          l4708 1F42  
                                        l4628 2D3A                                          l4636 2E4C  
                                        l4740 243A                                          l4732 2400  
                                        l4804 16FA                                          l4820 179C  
                                        l5284 2914                                          l5276 28D8  
                                        l5292 31CC                                          l1989 150C  
                                        l4670 1DD6                                          l4662 1D8E  
                                        l4654 1D50                                          l4646 1D18  
                                        l4718 1FB6                                          l4750 2E26  
                                        l4638 2E58                                          l4742 2466  
                                        l4734 240C                                          l4726 23CE  
                                        l4806 1706                                          l4822 17A0  
                                        l4814 174A                                          l4910 289A  
                                        l5198 3294                                          l5286 291E  
                                        l5278 28F0                                          l5294 31CE  
                                        l3848 32FE                                          l4920 26CA  
                                        l4680 1E4A                                          l4672 1DE8  
                                        l4664 1DAC                                          l4656 1D5E  
                                        l4648 1D1E                                          l4744 247A  
                                        l4736 2420                                          l4728 23DC  
                                        l4808 170E                                          l4760 14DC  
                                        l4752 1464                                          l4832 1890  
                                        l4824 17CE                                          l4816 1778  
                                        l4904 285E                                          l4912 312E  
                                        l5288 2922                                          l5296 31DC  
                                        l4922 26E0                                          l4674 1E16  
                                        l4666 1DB4                                          l4682 1E50  
                                        l4658 1D7E                                          l4690 1EA2  
                                        l4594 292E                                          l4738 2434  
                                        l4770 1534                                          l4762 14DE  
                                        l4754 1484                                          l4850 1940  
                                        l4834 18BE                                          l4842 18F2  
                                        l4826 17FC                                          l4818 178A  
                                        l4906 2866                                          l4914 3138  
                                        l4860 2008                                          l4924 26F0  
                                        l4940 2260                                          l4932 221E  
                                        l4684 1E60                                          l4676 1E36  
                                        l4668 1DC8                                          l4692 1EA6  
                                        l4748 2E0A                                          l4596 292E  
                                        l4780 15D6                                          l4772 153A  
                                        l4764 14F8                                          l4756 14AE  
                                        l4844 1904                                          l4836 18D0  
                                        l4828 1858                                          l4908 2874  
                                        l4870 203E                                          l4862 200E  
                                        l4926 2722                                          l4918 26C0  
                                        l4950 22EA                                          l4942 227C  
                                        l4934 221E                                          l4686 1E80  
                                        l4678 1E38                                          l4694 1EB6  
                                        l4598 294E                                          l4790 1680  
                                        l4782 15DC                                          l4774 1542  
                                        l4766 1514                                          l4758 14CE  
                                        l4838 18E4                                          l4960 1042  
                                        l4952 1014                                          l4880 2080  
                                        l4872 204E                                          l4864 201C  
                                        l4928 2750                                          l4856 2F32  
                                        l4944 2298                                          l4936 223C  
                                        l4696 1ED6                                          l4792 169A  
                                        l4784 15E2                                          l4776 154C  
                                        l4768 1526                                          l4848 1910  
                                        l4970 107E                                          l4962 1052  
                                        l4954 1022                                          l4890 20D2  
                                        l4882 208C                                          l4874 2052  
                                        l4866 202C                                          l4858 2EFC  
                                        l4946 22B4                                          l4938 2258  
                                        l4698 1EDA                                          l4794 16B4  
                                        l4778 1552                                          l4786 1646  
                                        l4980 10B4                                          l4972 1084  
                                        l4964 1062                                          l4956 1030  
                                        l4892 20D4                                          l4884 209A  
                                        l4876 2062                                          l4868 2030  
                                        l4948 22BC                                          l4788 1662  
                                        l4796 16C2                                          l4982 10C4  
                                        l4974 1092                                          l4966 1068  
                                        l4958 1032                                          l4894 20DE  
                                        l4886 20A4                                          l4878 2078  
                                        l4798 16D4                                          l4992 110E  
                                        l4984 10CA                                          l4976 1094  
                                        l4968 1078                                          l4888 20C2  
                                        l4896 20E4                                          l4994 111E  
                                        l4986 10EA                                          l4978 10A4  
                                        l4898 20F4                                          l4996 1128  
                                        l4988 10FA                                          l4998 1142  
                                        STR_1 100C                                          STR_2 1001  
                                        u3000 297E                                          u1065 2B60  
                                        u3001 297A                                          u1066 2B62  
                                        u3010 276E                                          u3011 276A  
                                        u3100 1DAC                                          u3020 2780  
                                        u3101 1DA8                                          u3021 277C  
                                        _LATA 003FBA                                          u3110 1DD6  
                                        u3030 27A8                                          _LATB 003FBB  
                                        u3111 1DD2                                          u3031 27A4  
                                        _LATC 003FBC                                          u2400 212E  
                                        u4000 1AFE                                          u3120 1E16  
                                        u3040 27DE                                          u3200 23DC  
                                        _LATD 003FBD                                          u2401 212A  
                                        u4001 1AFA                                          u3121 1E12  
                                        u3041 27DA                                          u3201 23D8  
                                        _LATE 003FBE                                          u2410 2162  
                                        u4010 1B26                                          u3130 1E60  
                                        u3050 2D80                                          u3210 2400  
                                        u4011 1B22                                          u3131 1E5C  
                                        u3051 2D7C                                          u3211 23FC  
                                        u2420 2190                                          u4020 1B42  
                                        u3140 1EB6                                          u3060 2E78  
                                        u3220 2458                                          u3300 1526  
                                        u2421 218C                                          u4021 1B3E  
                                        u3141 1EB2                                          u3061 2E74  
                                        u3221 2454                                          u3301 1522  
                                        u2430 21A4                                          u3070 1D2C  
                                        u3150 1EE8                                          u3230 2466  
                                        u3310 1534                                          u4030 28F0  
                                        u2431 21A0                                          u2415 2158  
                                        u3071 1D28                                          u3151 1EE4  
                                        u3231 2462                                          u3311 1530  
                                        u4031 28EC                                          u2440 21CC  
                                        u3080 1D5E                                          u3160 1F26  
                                        u3240 2E26                                          u3320 1662  
                                        u3400 1778                                          u4040 2902  
                                        u2441 21C8                                          u3081 1D5A  
                                        u3161 1F22                                          u3241 2E22  
                                        u3321 165E                                          u3401 1774  
                                        u4041 28FE                                          u2450 21EC  
                                        u3170 1F50                                          u3330 1680  
                                        u3250 1496                                          u3410 17CE  
                                        _T2PR 003FAB                                          u2451 21E8  
                                        u3091 1D88                                          u3171 1F4C  
                                        u3331 167C                                          u3251 1490  
                                        u3411 17CA                                          u2460 21FC  
                                        u3500 20C2                                          u3180 1F7E  
                                        u3340 169A                                          u3260 1498  
                                        u3420 17FC                                          u2461 21F8  
                                        u3501 20BE                                          u3181 1F7A  
                                        u3341 1696                                          u3421 17F8  
                                        u3510 20F4                                          u3190 1FC6  
                                        u3350 16B4                                          u3270 14AE  
                                        u3430 18BE                                          u3511 20F0  
                                        u3191 1FC2                                          u3351 16B0  
                                        u3271 14AA                                          u3431 18BA  
                                        u3600 1042                                          u3360 16C2  
                                        u3280 14DC                                          u3520 28BC  
                                        u3601 103E                                          u3361 16BE  
                                        u3281 14D8                                          u3521 28B8  
                                        u3610 1052                                          u3530 26E0  
                                        u3370 16D4                                          u3290 14F8  
                                        _T4PR 003F9F                                          u3611 104E  
                                        u3531 26DC                                          u3371 16D0  
                                        u3291 14F4                                          u3700 1324  
                                        u3620 1092                                          u3460 201C  
                                        u3540 26F0                                          u3380 16E2  
                                        u3701 1320                                          u3621 108E  
                                        u3461 2018                                          u3541 26EC  
                                        u3445 2F58                                          u3381 16DE  
                                        u3710 1352                                          u3630 10A4  
                                        u3470 203E                                          u3550 223C  
                                        u3390 16FA                                          u3711 134E  
                                        u3631 10A0                                          u3471 203A  
                                        u3455 2F22                                          u3551 2238  
                                        u3391 16F6                                          u3800 24EA  
                                        u3720 1368                                          u3640 10B4  
                                        u3480 2078                                          u3560 2258  
                                        u3801 24E6                                          u3721 1364  
                                        u3641 10B0                                          u3481 2074  
                                        u3561 2254                                          u3810 2508  
                                        u3730 137C                                          u3650 10EA  
                                        u3490 209A                                          u3570 2298  
                                        u3811 2504                                          u3731 1378  
                                        u3651 10E6                                          u3491 2096  
                                        u3571 2294                                          u3820 2524  
                                        u3740 1396                                          u3660 10FA  
                                        u3900 1CAE                                          u3580 22B4  
                                        _PMD0 0039C0                                          u3821 2520  
                                        u3741 1392                                          u3661 10F6  
                                        u3901 1CAA                                          u3581 22B0  
                                        _PMD1 0039C1                                          u3830 254A  
                                        u3750 13DE                                          u3670 1298  
                                        u3590 1030                                          u3910 1CBC  
                                        _PMD2 0039C2                                          u3831 2546  
                                        u3751 13DA                                          u3591 102C  
                                        u3911 1CB8                                          _PMD3 0039C3  
                                        u3760 140C                                          u3680 12F2  
                                        u3920 1CF6                                          u3840 1B76  
                                        _PMD4 0039C4                                          u3761 1408  
                                        u3681 12EE                                          u3921 1CF2  
                                        u3841 1B72                                          _PMD5 0039C5  
                                        u3770 1446                                          u3690 1312  
                                        u3930 1D04                                          u3850 1B84  
                                        _PMD6 0039C6                                          u3771 1442  
                                        u3691 130E                                          u3675 128E  
                                        u3931 1D00                                          u3851 1B80  
                                        _PMD7 0039C7                                          u3940 2EA6  
                                        u3780 24AA                                          u3860 1BE0  
                                        u2980 293E                                          u3941 2EA2  
                                        u3781 24A6                                          u3861 1BDC  
                                        u2981 293A                                          u3790 24C4  
                                        u3870 1C36                                          u3950 1A26  
                                        u2990 294E                                          u3791 24C0  
                                        u3871 1C32                                          u3951 1A22  
                                        u2991 294A                                          u3880 1C80  
                                        u3960 1A42                                          u3881 1C7C  
                                        u3961 1A3E                                          u3890 1C9E  
                                        u3970 1A5C                                          u3891 1C9A  
                                        u3971 1A58                                          u3980 1A78  
                                        u3981 1A74                                          u3990 1AD6  
                                        u3991 1AD2                                          _TMR2 003FAA  
                                        _TMR4 003F9E                                          _WPUA 003A41  
                                        _WPUB 003A51                                          _WPUC 003A61  
                                        _WPUD 003A71                                          _WPUE 003A81  
                         ?_UART1_Transmit_ISR 0001                                          abs@a 0070  
                                        _dbuf 0100                                          _main 31C8  
                                        _dtoa 1464                                          _loop 28C6  
                                        _prec 00D4                                          _nout 00D0  
                                        pad@i 0076                                          pad@p 0074  
                                        fsr1h 003FE2                                          fsr2h 003FDA  
                                        indf2 003FDF                                          fsr1l 003FE1  
                                        pad@w 0078                                          fsr2l 003FD9  
                                        prodh 003FF4                                          prodl 003FF3  
                                        start 00AE                               _timer5ReloadVal 00E9  
                             _TMR3_Initialize 2EC4                               _PWM5_Initialize 3264  
                           ??_CLC3_Initialize 0020                 ??_UART1_SetTxInterruptHandler 0022  
                  ??_TMR4_SetInterruptHandler 0022                             _UART1_rx_vect_isr 2A8C  
                                ___param_bank 000000                            ?_UART1_rx_vect_isr 0001  
                                       ??_abs 0072                                         ??_pad 0022  
                        ??_UART1_Transmit_ISR 0017                 __end_of_OSCILLATOR_Initialize 3294  
                           _outBatteryVoltage 3294                                 ___fltol@sign1 0020  
                             __end_of___aldiv 2116                               __end_of___aodiv 1EA2  
                                       _ADACT 003EFE                                         _ADCAP 003EF5  
                     __end_of_CCP3_Initialize 2FF4                                         ?_main 0001  
                                       ?_dtoa 007A                                         _ADCLK 003EFF  
                             __end_of___aomod 2008                                         _ADCNT 003EEB  
                                       _ADPCH 003EF1                                         _ADREF 003EFD  
                             __end_of___awdiv 255C                                         ?_loop 0001  
                                       _ADRPT 003EEC                        ??_CCP4_DefaultCallBack 0009  
                             __end_of___flmul 1464                      TMR5_ReadTimer@readValLow 0014  
                             __end_of___fltol 221E                               ___awdiv@divisor 0062  
                                       _U1P1H 003DED                                         _U1P2H 003DEF  
                                       _U1P3H 003DF1                                         _U1P1L 003DEC  
                                       _T3CLK 003FA9                                         _U1P2L 003DEE  
                                       _T2CON 003FAC                                         _U1P3L 003DF0  
                                       _T3CON 003FA6                                         _T5CLK 003F9D  
                                       _T4CON 003FA0                                         _T2HLT 003FAD  
                                       _T5CON 003F9A                                         _T4HLT 003FA1  
                                       _T2TMR 003FAA                                         _U1UIR 003DF8  
                                       i1l330 2AC8                                         _T2RST 003FAF  
                                       _U1RXB 003DE8                                         i1l324 2A76  
                                       i1l333 2E04                                         i1l350 3332  
                                       i1l343 261A                                         i1l336 2E08  
                                       i1l353 3330                                         _U1TXB 003DEA  
                                       i1l347 3100                                         i1l356 3328  
                                       _T4TMR 003F9E                                         _T4RST 003FA3  
                                       i2l409 3338                                         i1l692 3020  
                                       i2l534 312C                                         i2l438 304E  
                                       i2l446 2BB6                                         i2l552 2CE0  
                                       i1l688 2B18                                         i2l529 31C6  
                                       i2l537 32B6                                         i1l698 3334  
                                       i2l476 307C                                         i2l558 321A  
                                       i2l487 2C02                           ??_UART1_rx_vect_isr 001A  
                                       i2l863 2A36                                         i2l856 2D38  
                                       i2l868 317E                               ___awdiv@counter 0064  
                                       _OSCEN 0039DD                            ?_outBatteryVoltage 0001  
                                vfpfcnvrt@fmt 00A0                                         _TMR3H 003FA5  
                                       _TMR5H 003F99                                         _TMR3L 003FA4  
                                       _TMR5L 003F98                                         _TRISA 003FC2  
                                       _TRISB 003FC3                                         _TRISC 003FC4  
                                       _TRISD 003FC5                                         _TRISE 003FC6  
                                 _Default_ISR 3338                               _TMR4_Initialize 307E  
                             _PWM6_Initialize 324C                             _UART1_tx_vect_isr 2A38  
                            __end_of_TMR4_ISR 2B2C                                         _flags 0023  
                                       _fputc 275A                                         _fputs 2D3A  
                         ??_outBatteryVoltage 0023                            ?_UART1_tx_vect_isr 0001  
                                       pad@fp 0070                                         _width 00D2  
                                       _putch 32B8                                         dtoa@d 007C  
                                       dtoa@i 009C                                         dtoa@n 0094  
                                       dtoa@p 008E                                         dtoa@s 0092  
                                       dtoa@w 0090                              ?_SMT1_Initialize 0001  
                                       pclath 003FFA                                         pclatu 003FFB  
                                       tablat 003FF5                                   _BatteryVolt 00E1  
                                       status 003FD8           __end_of_UART1_SetRxInterruptHandler 32D6  
                 _UART1_SetRxInterruptHandler 32CC                       __end_of_CCP4_Initialize 2FC6  
         fp__UART1_DefaultFramingErrorHandler 0000      __end_of_UART1_DefaultFramingErrorHandler 3334  
          ??_UART1_DefaultFramingErrorHandler 001A             ?_UART1_DefaultFramingErrorHandler 0001  
            _UART1_DefaultFramingErrorHandler 3332                           ??_UART1_tx_vect_isr 0017  
                   __end_of_UART1_rx_vect_isr 2ADC                               _TMR5_Initialize 2C5A  
                             _PWM7_Initialize 3234                               __initialization 27F2  
                       TMR5_ReadTimer@readVal 0011                              ?_CCP3_CaptureISR 0001  
                                __end_of_main 31E4                                  __end_of_dtoa 174A  
                                __end_of_loop 292C                     __end_of_outBatteryVoltage 32AA  
                 ??_UART1_DefaultErrorHandler 001A                       __end_of_TMR2_Initialize 3200  
                                ?_UART1_Write 0001                                        ??_main 0023  
                                      ??_dtoa 0084                                        ??_loop 0023  
                               __activetblptr 000003                                  _calcMotorPow 1958  
                   __end_of_UART1_tx_vect_isr 2A8A                               _PWM8_Initialize 321C  
                            _UART1_Initialize 261C                              ?_CCP4_CaptureISR 0001  
                                      _ADACCH 003EE9                                        _ADACCL 003EE8  
                                      _ADACCU 003EEA                                        _ADACQH 003EF4  
                                      _ADACQL 003EF3                                        _ADCON0 003EF8  
                                      _ADCON1 003EF9                                        _ADCON2 003EFA  
                                      _ADCON3 003EFB                                        _ADERRH 003EE3  
                                      _ADERRL 003EE2                                        ?_fputc 0060  
                                      _ADLTHH 003EDF                                        _ADLTHL 003EDE  
                                      ?_fputs 0069                                        _ADRESH 003EF0  
                                      _ADRESL 003EEF                                        _ADPREH 003EF7  
                                      _ADPREL 003EF6                                        _CCPR3H 003F75  
                                      _CCPR4H 003F71                                        _CCPR3L 003F74  
                                      _CCPR4L 003F70                                        _ADSTAT 003EFC  
                                      _ADUTHH 003EE1                              ___awdiv@dividend 0060  
                                      _ADUTHL 003EE0                            _PWM8_LoadDutyValue 2EFC  
                                      _ANSELA 003A40                                        ?_putch 0001  
                                      _ANSELB 003A50                                        _ANSELC 003A60  
                                      _ANSELD 003A70                                        _ANSELE 003A80  
                                      _RB1I2C 003A5A                                        _RB2I2C 003A5B  
                                      _RD0I2C 003A7A                                        _U1CON0 003DF2  
                                      _U1CON1 003DF3                                        _U1CON2 003DF4  
                                      _RD1I2C 003A7B                                        _RC3I2C 003A6A  
                                      _T3GATE 003FA8                                        _RC4I2C 003A6B  
                                      _U1BRGH 003DF6                                        _U1FIFO 003DF7  
                                      _T3GCON 003FA7                                        _U1BRGL 003DF5  
                                      _T5GATE 003F9C                                        _T5GCON 003F9B  
                                      _RA0PPS 003A00                                        _RA1PPS 003A01  
                                      _RA3PPS 003A03                                        _RA4PPS 003A04  
                                      _RB3PPS 003A0B                                        _T5GPPS 003AC9  
                                      i1l1206 332E                                        _ODCONA 003A42  
                                      _ODCONB 003A52                                        _ODCONC 003A62  
                                      _ODCOND 003A72                                        _ODCONE 003A82  
                                      i1l4400 258C                                        i1l4250 3324  
                                      i1l4410 25F8                                        i1l4402 25A4  
                                      i1l4412 2616                                        i1l4404 25B4  
                     __end_of_PWM5_Initialize 327C                       __end_of_TMR3_Initialize 2EFC  
                                      i1l4502 2AEE                                        i1l4406 25C4  
                                      i1l4336 332A                                        i1l4504 2AF2  
                                      i1l4408 25DC                                        i1l4506 2B0C  
                                      i1l4452 2FF4                                        i1l4508 2B10  
                                      i1l3820 30E8                                        i1l4454 3008  
                                      i1l3822 30EA                                        i1l4390 2DFA  
                                      i1l4382 2DC6                                        i1l3824 30FA  
                                      i1l4392 2DFE                                        i1l4384 2DD6  
                                      i1l4480 2A5E                                        i1l3826 30FE  
                                      i1l3818 30D6                                        i1l4394 255C  
                                      i1l4482 2A9E                                        i1l4386 2DE8  
                                      i1l4396 256C                                        i1l4484 2AB0  
                                      i1l4388 2DEA                                        i1l4398 257C  
                                      i1l4478 2A4A                                        i2l4252 31A4  
                                      i2l4260 32AA                                        i2l4420 3048  
                                      i2l4510 2CF0                                        i2l4254 31B2  
                                      i2l4430 3200                                        i2l4422 3050  
                                      i2l4414 3022                                        i2l4520 29E4  
                                      i2l4512 2CF4                                        i2l4256 31BE  
                                      i2l4432 320C                                        i2l4424 305E  
                                      i2l4416 3030                                        i2l4530 3158  
                                      i2l4522 29E8                                        i2l4514 2D04  
                                      i2l4434 3212                                        i2l4426 306A  
                                      i2l4418 303C                                        i2l4532 315C  
                                      i2l4524 2A02                                        i2l4516 2D14  
                                      i2l4436 3216                                        i2l4428 3076  
                                      i2l4526 2A12                                        i2l4518 2D26  
                                      i2l4528 2A24                                        i2l3840 3116  
                                      _INLVLA 003A44                                        i2l3842 311C  
                                      i2l3834 3102                                        i2l4490 2BD0  
                                      _INLVLB 003A54                                        _INLVLC 003A64  
                                      i2l3836 3110                                        i2l3844 3122  
                                      i2l4492 2BE0                                        _INLVLD 003A74  
                                      _INLVLE 003A84                                        i2l3846 3126  
                                      i2l3838 3112                                        i2l4494 2CB0  
                                      i2l4486 2B84                                        i2l4496 2CB4  
                                      i2l4488 2B94                                        i2l4498 2CC8  
                                      _OSCFRQ 0039DF                              __end_of_actSpeed 275A  
                                      _SMT1PR 003F1B                         _UART1_SetErrorHandler 32EA  
                            __end_of___xxtofl 1D18                           ?_PWM8_LoadDutyValue 0020  
                    __end_of_CCP3_SetCallBack 331C                                  _CCPTMRS0bits 003F5E  
                                _CCPTMRS1bits 003F5F                                  vfprintf@cfmt 00AE  
                                   ??___aldiv 0020                                     ??___aodiv 0020  
                                   ??___aomod 0020                                     ??___awdiv 0020  
                                   ??___flmul 007E                                     ??___fltol 0093  
                               _CCP3_CallBack 00ED                                  ?_TMR5_Reload 0001  
                     __end_of_PWM6_Initialize 3264                       __end_of_TMR4_Initialize 30AA  
                                      clear_0 282E                                        clear_1 283A  
                                      clear_2 2846                              ___awdiv@quotient 0066  
                                      _motPow 0025                       fp__CCP3_DefaultCallBack 0000  
                                      isa$std 000001                                 _CCP4_CallBack 00EB  
                                      _smtWay 00C8                                        _printf 312E  
                                      pad@buf 0072                                        dtoa@fp 007A  
                            ?_CCP3_Initialize 0001                                        _strlen 2E4C  
                        ??_PWM8_LoadDutyValue 0060                              __end_of_setMotor 2304  
                             _ADCC_Initialize 2988          __end_of_TMR4_DefaultInterruptHandler 3336  
                _TMR4_DefaultInterruptHandler 3334                                        fputc@c 0060  
                              _PMD_Initialize 3180                                        fputs@c 006D  
                                      fputs@i 006E                                  __pdataCOMRAM 0040  
                                      fputs@s 0069                                  __mediumconst 0000  
                       __end_of_TMR5_GATE_ISR 2CEE                                        tblptrh 003FF7  
                                      tblptrl 003FF6                                        tblptru 003FF8  
                            __end_of_vfprintf 28C6                     ?_ADCC_GetSingleConversion 0020  
    TMR4_SetInterruptHandler@InterruptHandler 0020  TMR5_SetGateInterruptHandler@InterruptHandler 0020  
 UART1_SetTxInterruptHandler@InterruptHandler 0020   UART1_SetRxInterruptHandler@InterruptHandler 0020  
        __end_of_UART1_SetOverrunErrorHandler 32E0                  _UART1_SetOverrunErrorHandler 32D6  
                   _UART1_DefaultErrorHandler 3324                       __end_of_PWM7_Initialize 324C  
                     __end_of_TMR5_Initialize 2CA4                                  ___xxtofl@arg 0072  
                                ___xxtofl@exp 0071                             _SYSTEM_Initialize 2C10  
                                ___xxtofl@val 0068                                    __accesstop 0060  
                     __end_of__initialization 2858                              ?_CCP4_Initialize 0001  
                          ?_SYSTEM_Initialize 0001                                 ___rparam_used 000001  
                                  ___fltol@f1 008F                               _TMR5_WriteTimer 3102  
                   calcMotorPow@setSpeedDelta 009D                      __end_of_CCP4_SetCallBack 3312  
                              __pcstackCOMRAM 0001                         __end_of_TMR4_CallBack 3022  
                                __pidataBANK0 331C                           ??_SYSTEM_Initialize 0022  
                                   ?_TMR4_ISR 0001                                ivt0x8_undefint 00AC  
                               __end_of_fputc 27F2                                 __end_of_fputs 2D82  
                             fp__TMR4_10msISR 0000                                 __end_of_putch 32C2  
                            ?_TMR2_Initialize 0001                       __end_of_PWM8_Initialize 3234  
                      __end_of_PMD_Initialize 31A4                         CCP3_CaptureISR@module 0005  
              CCP3_SetCallBack@customCallBack 0020                     _UART1_FramingErrorHandler 00F3  
             fp__TMR4_DefaultInterruptHandler 0000                 ?_TMR4_DefaultInterruptHandler 0001  
                     fp__CCP4_DefaultCallBack 0000                                       ??_fputc 0064  
                   __end_of_SYSTEM_Initialize 2C5A                                       ??_fputs 0022  
                             _CLC3_Initialize 30AA                                       ??_putch 0021  
                 PWM7_LoadDutyValue@dutyValue 0020                                    __pbssBANK0 00B0  
                                  __pbssBANK1 0100                 ?_UART1_SetOverrunErrorHandler 0020  
                      ?_UART1_SetErrorHandler 0020                              ?_PWM5_Initialize 0001  
                            ?_TMR3_Initialize 0001                                    __pnvCOMRAM 003D  
                       _TMR4_InterruptHandler 00E3                                 _oldSpeedDelta 00D8  
                                     IVTBASEH 003FD6                                       IVTBASEL 003FD5  
                                     IVTBASEU 003FD7                                    ??_TMR4_ISR 001D  
                     __end_of_ADCC_Initialize 29E4          __end_of_TMR5_SetGateInterruptHandler 32FE  
                _TMR5_SetGateInterruptHandler 32F4                                       _CCP3CAP 003F77  
                                     _CCP4CAP 003F73                                       _CCP3CON 003F76  
                                     _CCP4CON 003F72                                       _ADFLTRH 003EE7  
                                     _ADFLTRL 003EE6                                       _CCP3PPS 003ACF  
                                     _CCP4PPS 003AD0                                       _CLC3CON 003C60  
                                     _CLC3POL 003C61                                       _ADPREVH 003EEE  
                                     _ADPREVL 003EED                              ?_PWM6_Initialize 0001  
                            ?_TMR4_Initialize 0001                                       _ADSTPTH 003EE5  
                                     _ADSTPTL 003EE4                                       ?_printf 0126  
                             ?_PMD_Initialize 0001                             _UART1_Receive_ISR 255C  
                                     ?_strlen 0020                                       _U1ERRIE 003DFA  
                                   ?_actSpeed 0020                                       _U1ERRIR 003DF9  
                               ?_TMR4_10msISR 0001                                  ?_Default_ISR 0001  
                          ?_UART1_Receive_ISR 0001                                       _U1RXPPS 003AE5  
                                   ?___xxtofl 0068                                    _distRightM 002B  
                                     _OSCCON1 0039D9                                       _OSCCON3 0039DB  
                                     _IVTLOCK 003FD4                                       _SMT1CLK 003F21  
                                     _OSCTUNE 0039DE                                       _SMT1CPR 003F15  
                                     _SMT1CPW 003F18                                       _PWM5DCH 003F6D  
                               ??_calcLenkung 0020                                       _PWM5DCL 003F6C  
                                     _PWM6DCH 003F69                                       _PWM6DCL 003F68  
                                     _PWM7DCH 003F65                                       _PWM7DCL 003F64  
                                     _SMT1SIG 003F22                                       _PWM8DCH 003F61  
                                     _PWM5CON 003F6E                                       _PWM8DCL 003F60  
                                     _SMT1PRH 003F1C                                       _PWM6CON 003F6A  
                                     _SMT1PRL 003F1B                                       _PWM7CON 003F66  
                                     _SMT1PRU 003F1D                                       _SMT1TMR 003F12  
                                     _SMT1WIN 003F23                                       _PWM8CON 003F62  
                                     _SLRCONA 003A43                                       _SLRCONB 003A53  
                                     _SLRCONC 003A63                                       _SLRCOND 003A73  
                                     _SLRCONE 003A83                           ??_UART1_Receive_ISR 001A  
                     __end_of_TMR5_WriteTimer 312E                              ?_PWM7_Initialize 0001  
                            ?_TMR5_Initialize 0001                     INTERRUPT_Initialize@state 0020  
                          setMotor@MotorPower 0062                                     _CLCIN0PPS 003AD9  
                                   _CLCIN2PPS 003ADB                                     _CLCIN3PPS 003ADC  
                                     __Hparam 0000                                     ?_setMotor 0062  
                                     __Lparam 0000                      __end_of_UART1_Initialize 26C0  
                   _defaultMotorPowerBackward 00F7                                       ___aldiv 2008  
                                     ___aodiv 1D18                                       ___aomod 1EA2  
                                     ___awdiv 2496                                       ___flmul 1014  
                                     ___fltol 2116                     __end_of_UART1_Receive_ISR 261C  
                                   ?_vfprintf 0120                                  __psmallconst 1000  
                                     __pcinit 27F2                     _TMR5_GateInterruptHandler 00E7  
                            ?_PWM8_Initialize 0001                                       __ramtop 1000  
               ?_TMR5_SetGateInterruptHandler 0020                                       __ptext0 31C8  
                                     __ptext1 28C6                                       __ptext2 3294  
                                     __ptext3 312E                                       __ptext4 285E  
                                     __ptext5 174A                                       __ptext6 1464  
                                     __ptext7 23CE                                       __ptext8 2E4C  
                                     __ptext9 2D3A                      _defaultMotorPowerForward 00F9  
                              ??_TMR4_10msISR 001D                                    ??_actSpeed 0022  
                     __end_of_CLC3_Initialize 30D6                         _OSCILLATOR_Initialize 327C  
                                   _T2CONbits 003FAC                                    ??___xxtofl 006C  
                                   _T3CONbits 003FA6                              ___aldiv@dividend 0060  
                                   _T4CONbits 003FA0                      ??_PIN_MANAGER_Initialize 0020  
                                   _T2HLTbits 003FAD                                     _T5CONbits 003F9A  
                   ?_TMR4_SetInterruptHandler 0020                                     _IPR10bits 00398A  
                                     _smtDuty 00CC                                     _T4HLTbits 003FA1  
                                   _PIE10bits 00399A                          end_of_initialization 2858  
                                   _T2RSTbits 003FAF                ??_TMR4_DefaultInterruptHandler 001D  
                                   _PIR10bits 0039AA                                     _T4RSTbits 003FA3  
                                     fputc@fp 0062                             ??_SMT1_PR_ACQ_ISR 0017  
         __end_of_UART1_SetTxInterruptHandler 32CC                   _UART1_SetTxInterruptHandler 32C2  
                                     fputs@fp 006B                           __end_of_calcLenkung 2DC6  
              ??_UART1_SetOverrunErrorHandler 0022                                    ??_setMotor 0064  
                           __end_of_vfpfcnvrt 1958                             ?_CCP3_SetCallBack 0020  
                            ___aldiv@quotient 006A                                       postdec1 003FE5  
                                     postdec2 003FDD                             ??_SMT1_PW_ACQ_ISR 0017  
                                     postinc0 003FEE                                       postinc1 003FE6  
                                     postinc2 003FDE                              ?_ADCC_Initialize 0001  
                          ??_CCP3_SetCallBack 0022                                    ??_vfprintf 0023  
            __end_of_ADCC_GetSingleConversion 2EC4                             UART1_Write@txData 0020  
                         _UART1_RxDataHandler 30D6                                       strlen@a 0060  
                                     strlen@s 0020                                     _PORTDbits 003FCD  
                               ___xxtofl@sign 0070                          ?_UART1_RxDataHandler 0001  
                            ?_TMR5_WriteTimer 000D                       TMR5_WriteTimer@timerVal 000D  
                                 ___flmul@grs 0084             CCP4_DefaultCallBack@capturedValue 0007  
                           ?_CCP4_SetCallBack 0020                  __end_of_INTERRUPT_Initialize 2B78  
                          ??_CCP4_SetCallBack 0022                                   _CLC3CONbits 003C60  
                                 vfpfcnvrt@ap 00A2                                   vfpfcnvrt@fp 009E  
                                 vfpfcnvrt@ll 00A6                                 __pidataCOMRAM 333A  
                      ?_OSCILLATOR_Initialize 0001                                __end_of_printf 3156  
                            ?_CLC3_Initialize 0001                                __end_of_strlen 2E88  
                              _TMR5_ReadTimer 31A4                           start_initialization 27F2  
              ??_TMR5_SetGateInterruptHandler 0022                                   __end_of_abs 2E4C  
                                 __end_of_pad 2496                       ??_UART1_SetErrorHandler 0022  
                                 _calcLenkung 2D82                         ??_UART1_RxDataHandler 001A  
                                 putch@txData 0021                                    ivt0x8_base 0008  
                               _uart1RxBuffer 00B8                                   _actMotorPow 00D6  
                               _uart1TxBuffer 00C0                          __end_of_TMR4_10msISR 3330  
                                 vfprintf@fmt 0122                              ??_PMD_Initialize 0020  
                                 __pdataBANK0 00F7                    __end_of_PWM7_LoadDutyValue 2F68  
                           ??_SMT1_Initialize 0020                                      ??_printf 0023  
                                    ??_strlen 0022                        __end_of_TMR5_ReadTimer 31C8  
                       CCP4_CaptureISR@module 000B                           calcMotorPow@addMPow 009F  
                    _ADCC_GetSingleConversion 2E88                         TMR4_ISR@CountCallBack 0027  
                                   ___flmul@a 007A                                     ___flmul@b 0076  
                                 __pbssCOMRAM 0023                            _UART1_ErrorHandler 00EF  
                               __pcstackBANK0 0060                                 __pcstackBANK1 0120  
                            ___aodiv@dividend 0060                      _UART1_RxInterruptHandler 003D  
                           ??_CCP3_CaptureISR 0003                  __end_of_CCP3_DefaultCallBack 3050  
                 PWM8_LoadDutyValue@dutyValue 0020                  fp__UART1_DefaultErrorHandler 0000  
                                _currentSpeed 00DC                  ?_UART1_SetRxInterruptHandler 0020  
                                   __pnvBANK0 00E1                                     _fahrModus 0040  
                      _PIN_MANAGER_Initialize 2304                                     _dtoa$3416 008C  
                           ?_UART1_Initialize 0001          __end_of_UART1_SetFramingErrorHandler 32EA  
                _UART1_SetFramingErrorHandler 32E0                                      ?___aldiv 0060  
             ADCC_GetSingleConversion@channel 0022                                      ?___aodiv 0060  
                                    ?___aomod 0060              __end_of_TMR4_SetInterruptHandler 3308  
                                    ?___awdiv 0060                              ___aodiv@quotient 0072  
           CCP3_DefaultCallBack@capturedValue 0001                             ??_CCP4_CaptureISR 0009  
                                    ?___flmul 0076                                      ?___fltol 008F  
                          ??_UART1_Initialize 0022                                     _distLeftM 002F  
                                   _distFront 0029                              _uart1RxLastError 0033  
                               ??_UART1_Write 0020                                     _distRight 002D  
                                   _cycle10ms 00E0                               ?_TMR5_ReadTimer 000D  
                               ?_calcMotorPow 0001                                   __smallconst 1000  
                                    _CLC3GLS0 003C66                                      _CLC3GLS1 003C67  
                                    _CLC3GLS2 003C68                                      _CLC3GLS3 003C69  
         fp__UART1_DefaultOverrunErrorHandler 0000      __end_of_UART1_DefaultOverrunErrorHandler 3332  
          ??_UART1_DefaultOverrunErrorHandler 001A             ?_UART1_DefaultOverrunErrorHandler 0001  
            _UART1_DefaultOverrunErrorHandler 3330                                      _CLC3SEL0 003C62  
                                    _CLC3SEL1 003C63                                      _CLC3SEL2 003C64  
                                    _CLC3SEL3 003C65                               _SMT1_PR_ACQ_ISR 2CF0  
                               _TMR5_GATE_ISR 2CA4                                      _T2CLKCON 003FAE  
                                 _U1ERRIRbits 003DF9                                      _T4CLKCON 003FA2  
                        _INTERRUPT_Initialize 2B2C                               ___aldiv@divisor 0064  
                             _SMT1_PW_ACQ_ISR 29E4                               ___aldiv@counter 0068  
       UART1_SetErrorHandler@interruptHandler 0020                                      _IPR1bits 003981  
                __end_of_CCP4_DefaultCallBack 307E                             ??_CCP3_Initialize 0022  
                                    _PIE1bits 003991                                      _IPR3bits 003983  
                                    _PIE3bits 003993                                      _IPR7bits 003987  
                                    _IPR8bits 003988                                      _PIE7bits 003997  
                                    _IPR9bits 003989                                      _PIE8bits 003998  
                                    _PIE9bits 003999                                      _IVTBASEH 003FD6  
                                    i1u207_20 30FA                                      i1u207_21 30F6  
                                    _IVTBASEL 003FD5                                      _IVTBASEU 003FD7  
                                    i1u270_20 257C                                      i1u270_21 2578  
                                    i1u272_20 25B4                                      i1u271_28 2592  
                                    i1u272_21 25B0                                      i1u271_29 25A4  
                                    i1u280_28 300E                                      i1u280_29 3020  
                                    i1u274_20 25F8                                      i1u273_28 25CA  
                                    i1u274_21 25F4                                      i1u273_29 25DC  
                                    i1u291_20 2B0C                                      i1u283_20 2A5E  
                                    i1u291_21 2B08                                      i1u283_21 2A5A  
               ??_UART1_SetRxInterruptHandler 0022                                      i1u275_28 25FE  
                                    i1u268_20 2DD6                                      i1u275_29 2612  
                                    i1u268_21 2DD2                                      i1u285_20 2AB0  
                                    i1u269_20 2DFA                                      i1u284_28 2A64  
                                    i1u285_21 2AAC                                      i1u269_21 2DF6  
                                    i1u284_29 2A76                                      i1u279_20 3008  
                                    i1u286_28 2AB6                                      i1u279_21 3004  
                                    i1u286_29 2AC8                                      i2u208_40 3110  
                                    i2u208_41 310C                                      _PIR1bits 0039A1  
                                    i2u290_48 2CCE                                      i2u290_49 2CE0  
                                    i2u292_40 2D14                                      i2u276_40 3030  
                                    i2u292_41 2D10                                      i2u276_41 302C  
                                    i2u293_40 2A12                                      i2u277_40 305E  
                                    i2u293_41 2A0E                                      i2u277_41 305A  
                                    _PIR4bits 0039A4                                      i2u287_48 2BA2  
                                    i2u287_49 2BB6                                      i2u289_40 2CC8  
                                    i2u288_48 2BEE                                      i2u289_41 2CC4  
                                    i2u288_49 2C02                                      _PIR6bits 0039A6  
                                    _PIR7bits 0039A7                                      _PIR8bits 0039A8  
                                    _PIR9bits 0039A9                                      _SMT1CON0 003F1E  
                                    _SMT1CON1 003F1F                                      _SMT1STAT 003F20  
                           _SMT1_Overflow_ISR 3158                                      _TMR4_ISR 2ADC  
                  __end_of_UART1_Transmit_ISR 2E0A                                 _TMR4_CallBack 2FF4  
                                   _smtPeriod 0039                 ?_UART1_SetFramingErrorHandler 0020  
                               ??_TMR5_Reload 000F                                     _vfpfcnvrt 174A  
                          ?_SMT1_Overflow_ISR 0001                                ??_calcMotorPow 0097  
                                  _ADCON0bits 003EF8                                    _ADCON1bits 003EF9  
                                  _ADCON2bits 003EFA                                    _ADCON3bits 003EFB  
                           ??_CCP4_Initialize 0022                           ??_SMT1_Overflow_ISR 0017  
                   TMR5_ReadTimer@readValHigh 0013                                ?_TMR5_GATE_ISR 0001  
                         __end_of_UART1_Write 2988                                  _SMT1CON0bits 003F1E  
                                _SMT1CON1bits 003F1F                                   _INTCON0bits 003FD2  
                                   copy_data0 2806                         ?_INTERRUPT_Initialize 0001  
                        fp__UART1_Receive_ISR 0000                        _uart1TxBufferRemaining 003F  
                           ??_TMR2_Initialize 0020                                  _uart1RxCount 0034  
                                  _ADSTATbits 003EFC                                      __Hrparam 0000  
                   __end_of_SMT1_Overflow_ISR 3180                                    vfprintf@ap 0124  
                                    __Lrparam 0000                                    vfprintf@fp 0120  
                              ?_TMR4_CallBack 0001                       ??_OSCILLATOR_Initialize 0020  
                                _SMT1STATbits 003F20                          _CCP3_DefaultCallBack 3022  
                     __end_of_SMT1_PR_ACQ_ISR 2D3A                                    ?_vfpfcnvrt 009E  
                          calcMotorPow@factor 0099                               ___aodiv@divisor 0068  
                           ??_PWM5_Initialize 0020                             ??_TMR3_Initialize 0020  
                             ___aodiv@counter 0070                      _TMR4_SetInterruptHandler 32FE  
                                    _actSpeed 26C0                                  _TMR4_10msISR 332A  
                                    ___xxtofl 1B60                           __end_of_TMR5_Reload 32B8  
                                    __pivt0x8 0008                       __end_of_SMT1_PW_ACQ_ISR 2A38  
                                ?_calcLenkung 0001                                      __ptext10 275A  
                                    __ptext11 32B8                                      __ptext20 26C0  
                                    __ptext12 292C                                      __ptext21 2008  
                                    __ptext13 2E0A                                      __ptext30 32C2  
                                    __ptext22 1B60                                      __ptext14 1EA2  
                                    __ptext31 32CC                                      __ptext23 2116  
                                    __ptext15 1D18                                      __ptext40 31E4  
                                    __ptext32 32D6                                      __ptext24 1014  
                                    __ptext16 1958                                      __ptext41 2F68  
                                    __ptext33 32E0                                      __ptext25 2496  
                                    __ptext17 221E                                      __ptext50 30AA  
                                    __ptext42 321C                                      __ptext34 32EA  
                                    __ptext26 2D82                                      __ptext18 2EFC  
                                    __ptext51 2F98                                      __ptext43 3234  
                                    __ptext35 2C5A                                      __ptext27 2E88  
                                    __ptext19 2F32                                      __ptext60 3330  
                                    __ptext52 3308                                      __ptext44 324C  
                                    __ptext36 32F4                                      __ptext28 2C10  
                                    __ptext61 3332                                      __ptext53 2FC6  
                                    __ptext45 3264                                      __ptext37 307E  
                                    __ptext29 261C                                      __ptext70 3022  
                                    __ptext62 3324                                      __ptext54 3312  
                                    __ptext46 3180                                      __ptext38 32FE  
                                    __ptext71 2BC4                                      __ptext63 30D6  
                                    __ptext55 2988                                      __ptext47 2304  
                                    __ptext39 2EC4                                      __ptext80 3158  
                                    __ptext72 3050                                      __ptext64 2ADC  
                                    __ptext56 2A38                                      __ptext48 327C  
                                    __ptext81 0000                                      __ptext73 2CA4  
                                    __ptext65 2FF4                                      __ptext57 2DC6  
                                    __ptext49 2B2C                                      __ptext74 3200  
                                    __ptext66 332A                                      __ptext58 2A8C  
                                    __ptext75 32AA                                      __ptext67 3334  
                                    __ptext59 255C                                      __ptext76 3102  
                                    __ptext68 3338                                      __ptext77 31A4  
                                    __ptext69 2B78                                      __ptext78 2CF0  
                                    __ptext79 29E4                                      _distLeft 0031  
               __end_of_UART1_SetErrorHandler 32F4                                    _T3GCONbits 003FA7  
                           ??_TMR4_Initialize 0022                             ??_PWM6_Initialize 0020  
                                    _oldSpeed 00DA                                    _T5GCONbits 003F9B  
                             _SMT1_Initialize 2F68                                   _IVTLOCKbits 003FD4  
                                    _setMotor 221E                                      _setSpeed 00DE  
                   _UART1_OverrunErrorHandler 00F1  UART1_SetOverrunErrorHandler@interruptHandler 0020  
                                    isa$xinst 000000                    ??_ADCC_GetSingleConversion 0060  
                  ?_UART1_DefaultErrorHandler 0001                         ?_CCP3_DefaultCallBack 0001  
                                    _vfprintf 285E                                     printf@fmt 0126  
                  __end_of_PWM8_LoadDutyValue 2F32                               _CCP3_CaptureISR 2B78  
                                 _UART1_Write 292C                         fp__UART1_Transmit_ISR 0000  
                           ??_PWM7_Initialize 0020                             ??_TMR5_Initialize 0060  
         fp__TMR5_DefaultGateInterruptHandler 0000      __end_of_TMR5_DefaultGateInterruptHandler 321C  
          ??_TMR5_DefaultGateInterruptHandler 0015             ?_TMR5_DefaultGateInterruptHandler 0001  
            _TMR5_DefaultGateInterruptHandler 3200                              ___aomod@dividend 0060  
                               ??_Default_ISR 0001                ??_UART1_SetFramingErrorHandler 0022  
                             ??_TMR5_GATE_ISR 0015                   __end_of_UART1_RxDataHandler 3102  
                                 _uart1RxHead 0036                          _CCP4_DefaultCallBack 3050  
                                 _uart1TxHead 0038                                   _uart1RxTail 0035  
                                 _uart1TxTail 0037                        ??_INTERRUPT_Initialize 0020  
                          _PWM7_LoadDutyValue 2F32                                      intlevel1 0000  
                                    intlevel2 0000                               _CCP4_CaptureISR 2BC4  
                     ?_PIN_MANAGER_Initialize 0001                             ??_PWM8_Initialize 0020  
                         ?_PWM7_LoadDutyValue 0020                          __end_of_calcMotorPow 1B60  
                             ??_TMR4_CallBack 001D                           _uart1RxStatusBuffer 00B0  
                                    printf@ap 012A                              ??_TMR5_ReadTimer 000F  
UART1_SetFramingErrorHandler@interruptHandler 0020             __end_of_UART1_DefaultErrorHandler 332A  
                             ___aomod@divisor 0068                                   ??_vfpfcnvrt 00A4  
                             ___aomod@counter 0020                              ?_SMT1_PR_ACQ_ISR 0001  
                                 _TMR5_Reload 32AA                                    _SMT1SIGPPS 003AD2  
                                  _SMT1WINPPS 003AD1                          ??_PWM7_LoadDutyValue 0060  
                               actSpeed@speed 006E                         ?_CCP4_DefaultCallBack 0007  
                            _CCP3_SetCallBack 3312                                  ___aldiv@sign 0069  
                            ?_SMT1_PW_ACQ_ISR 0001                               _CCP3_Initialize 2FC6  
                    _UART1_TxInterruptHandler 00F5                           __end_of_Default_ISR 333A  
                     __end_of_SMT1_Initialize 2F98                                  ___aodiv@sign 0071  
              __end_of_PIN_MANAGER_Initialize 23CE                             ??_ADCC_Initialize 0020  
                ?_UART1_SetTxInterruptHandler 0020                                  ___aomod@sign 0021  
                             _maxMPowBackward 00FB                       __end_of_CCP3_CaptureISR 2BC4  
